
udp_client_1.elf:     file format elf32-littlearm

Sections:
Idx Name          Size      VMA       LMA       File off  Algn
  0 .isr_vector   000001c8  08000000  08000000  00010000  2**0
                  CONTENTS, ALLOC, LOAD, READONLY, DATA
  1 .text         0000bbd8  080001d0  080001d0  000101d0  2**4
                  CONTENTS, ALLOC, LOAD, READONLY, CODE
  2 .rodata       000020a4  0800bda8  0800bda8  0001bda8  2**2
                  CONTENTS, ALLOC, LOAD, READONLY, DATA
  3 .ARM.extab    00000000  0800de4c  0800de4c  00020228  2**0
                  CONTENTS
  4 .ARM          00000008  0800de4c  0800de4c  0001de4c  2**2
                  CONTENTS, ALLOC, LOAD, READONLY, DATA
  5 .preinit_array 00000000  0800de54  0800de54  00020228  2**0
                  CONTENTS, ALLOC, LOAD, DATA
  6 .init_array   00000004  0800de54  0800de54  0001de54  2**2
                  CONTENTS, ALLOC, LOAD, DATA
  7 .fini_array   00000004  0800de58  0800de58  0001de58  2**2
                  CONTENTS, ALLOC, LOAD, DATA
  8 .data         000000e8  20000000  0800de5c  00020000  2**3
                  CONTENTS, ALLOC, LOAD, DATA
  9 .RxDecripSection 000000a0  200000e8  0800df44  000200e8  2**2
                  CONTENTS, ALLOC, LOAD, DATA
 10 .TxDecripSection 000000a0  20000188  0800dfe4  00020188  2**2
                  CONTENTS, ALLOC, LOAD, DATA
 11 .bss          0000aacc  20000228  0800e084  00020228  2**2
                  ALLOC
 12 ._user_heap_stack 00000604  2000acf4  0800e084  0002acf4  2**0
                  ALLOC
 13 .ARM.attributes 00000030  00000000  00000000  00020228  2**0
                  CONTENTS, READONLY
 14 .comment      00000043  00000000  00000000  00020258  2**0
                  CONTENTS, READONLY
 15 .debug_frame  00001060  00000000  00000000  0002029c  2**2
                  CONTENTS, READONLY, DEBUGGING, OCTETS

Disassembly of section .text:

080001d0 <__do_global_dtors_aux>:
 80001d0:	b510      	push	{r4, lr}
 80001d2:	4c05      	ldr	r4, [pc, #20]	; (80001e8 <__do_global_dtors_aux+0x18>)
 80001d4:	7823      	ldrb	r3, [r4, #0]
 80001d6:	b933      	cbnz	r3, 80001e6 <__do_global_dtors_aux+0x16>
 80001d8:	4b04      	ldr	r3, [pc, #16]	; (80001ec <__do_global_dtors_aux+0x1c>)
 80001da:	b113      	cbz	r3, 80001e2 <__do_global_dtors_aux+0x12>
 80001dc:	4804      	ldr	r0, [pc, #16]	; (80001f0 <__do_global_dtors_aux+0x20>)
 80001de:	f3af 8000 	nop.w
 80001e2:	2301      	movs	r3, #1
 80001e4:	7023      	strb	r3, [r4, #0]
 80001e6:	bd10      	pop	{r4, pc}
 80001e8:	20000228 	.word	0x20000228
 80001ec:	00000000 	.word	0x00000000
 80001f0:	0800bd90 	.word	0x0800bd90

080001f4 <frame_dummy>:
 80001f4:	b508      	push	{r3, lr}
 80001f6:	4b03      	ldr	r3, [pc, #12]	; (8000204 <frame_dummy+0x10>)
 80001f8:	b11b      	cbz	r3, 8000202 <frame_dummy+0xe>
 80001fa:	4903      	ldr	r1, [pc, #12]	; (8000208 <frame_dummy+0x14>)
 80001fc:	4803      	ldr	r0, [pc, #12]	; (800020c <frame_dummy+0x18>)
 80001fe:	f3af 8000 	nop.w
 8000202:	bd08      	pop	{r3, pc}
 8000204:	00000000 	.word	0x00000000
 8000208:	2000022c 	.word	0x2000022c
 800020c:	0800bd90 	.word	0x0800bd90

08000210 <strcmp>:
 8000210:	f810 2b01 	ldrb.w	r2, [r0], #1
 8000214:	f811 3b01 	ldrb.w	r3, [r1], #1
 8000218:	2a01      	cmp	r2, #1
 800021a:	bf28      	it	cs
 800021c:	429a      	cmpcs	r2, r3
 800021e:	d0f7      	beq.n	8000210 <strcmp>
 8000220:	1ad0      	subs	r0, r2, r3
 8000222:	4770      	bx	lr

08000224 <strlen>:
 8000224:	4603      	mov	r3, r0
 8000226:	f813 2b01 	ldrb.w	r2, [r3], #1
 800022a:	2a00      	cmp	r2, #0
 800022c:	d1fb      	bne.n	8000226 <strlen+0x2>
 800022e:	1a18      	subs	r0, r3, r0
 8000230:	3801      	subs	r0, #1
 8000232:	4770      	bx	lr
	...

08000240 <memchr>:
 8000240:	f001 01ff 	and.w	r1, r1, #255	; 0xff
 8000244:	2a10      	cmp	r2, #16
 8000246:	db2b      	blt.n	80002a0 <memchr+0x60>
 8000248:	f010 0f07 	tst.w	r0, #7
 800024c:	d008      	beq.n	8000260 <memchr+0x20>
 800024e:	f810 3b01 	ldrb.w	r3, [r0], #1
 8000252:	3a01      	subs	r2, #1
 8000254:	428b      	cmp	r3, r1
 8000256:	d02d      	beq.n	80002b4 <memchr+0x74>
 8000258:	f010 0f07 	tst.w	r0, #7
 800025c:	b342      	cbz	r2, 80002b0 <memchr+0x70>
 800025e:	d1f6      	bne.n	800024e <memchr+0xe>
 8000260:	b4f0      	push	{r4, r5, r6, r7}
 8000262:	ea41 2101 	orr.w	r1, r1, r1, lsl #8
 8000266:	ea41 4101 	orr.w	r1, r1, r1, lsl #16
 800026a:	f022 0407 	bic.w	r4, r2, #7
 800026e:	f07f 0700 	mvns.w	r7, #0
 8000272:	2300      	movs	r3, #0
 8000274:	e8f0 5602 	ldrd	r5, r6, [r0], #8
 8000278:	3c08      	subs	r4, #8
 800027a:	ea85 0501 	eor.w	r5, r5, r1
 800027e:	ea86 0601 	eor.w	r6, r6, r1
 8000282:	fa85 f547 	uadd8	r5, r5, r7
 8000286:	faa3 f587 	sel	r5, r3, r7
 800028a:	fa86 f647 	uadd8	r6, r6, r7
 800028e:	faa5 f687 	sel	r6, r5, r7
 8000292:	b98e      	cbnz	r6, 80002b8 <memchr+0x78>
 8000294:	d1ee      	bne.n	8000274 <memchr+0x34>
 8000296:	bcf0      	pop	{r4, r5, r6, r7}
 8000298:	f001 01ff 	and.w	r1, r1, #255	; 0xff
 800029c:	f002 0207 	and.w	r2, r2, #7
 80002a0:	b132      	cbz	r2, 80002b0 <memchr+0x70>
 80002a2:	f810 3b01 	ldrb.w	r3, [r0], #1
 80002a6:	3a01      	subs	r2, #1
 80002a8:	ea83 0301 	eor.w	r3, r3, r1
 80002ac:	b113      	cbz	r3, 80002b4 <memchr+0x74>
 80002ae:	d1f8      	bne.n	80002a2 <memchr+0x62>
 80002b0:	2000      	movs	r0, #0
 80002b2:	4770      	bx	lr
 80002b4:	3801      	subs	r0, #1
 80002b6:	4770      	bx	lr
 80002b8:	2d00      	cmp	r5, #0
 80002ba:	bf06      	itte	eq
 80002bc:	4635      	moveq	r5, r6
 80002be:	3803      	subeq	r0, #3
 80002c0:	3807      	subne	r0, #7
 80002c2:	f015 0f01 	tst.w	r5, #1
 80002c6:	d107      	bne.n	80002d8 <memchr+0x98>
 80002c8:	3001      	adds	r0, #1
 80002ca:	f415 7f80 	tst.w	r5, #256	; 0x100
 80002ce:	bf02      	ittt	eq
 80002d0:	3001      	addeq	r0, #1
 80002d2:	f415 3fc0 	tsteq.w	r5, #98304	; 0x18000
 80002d6:	3001      	addeq	r0, #1
 80002d8:	bcf0      	pop	{r4, r5, r6, r7}
 80002da:	3801      	subs	r0, #1
 80002dc:	4770      	bx	lr
 80002de:	bf00      	nop

080002e0 <__aeabi_uldivmod>:
 80002e0:	b953      	cbnz	r3, 80002f8 <__aeabi_uldivmod+0x18>
 80002e2:	b94a      	cbnz	r2, 80002f8 <__aeabi_uldivmod+0x18>
 80002e4:	2900      	cmp	r1, #0
 80002e6:	bf08      	it	eq
 80002e8:	2800      	cmpeq	r0, #0
 80002ea:	bf1c      	itt	ne
 80002ec:	f04f 31ff 	movne.w	r1, #4294967295
 80002f0:	f04f 30ff 	movne.w	r0, #4294967295
 80002f4:	f000 b970 	b.w	80005d8 <__aeabi_idiv0>
 80002f8:	f1ad 0c08 	sub.w	ip, sp, #8
 80002fc:	e96d ce04 	strd	ip, lr, [sp, #-16]!
 8000300:	f000 f806 	bl	8000310 <__udivmoddi4>
 8000304:	f8dd e004 	ldr.w	lr, [sp, #4]
 8000308:	e9dd 2302 	ldrd	r2, r3, [sp, #8]
 800030c:	b004      	add	sp, #16
 800030e:	4770      	bx	lr

08000310 <__udivmoddi4>:
 8000310:	e92d 47f0 	stmdb	sp!, {r4, r5, r6, r7, r8, r9, sl, lr}
 8000314:	9e08      	ldr	r6, [sp, #32]
 8000316:	460d      	mov	r5, r1
 8000318:	4604      	mov	r4, r0
 800031a:	460f      	mov	r7, r1
 800031c:	2b00      	cmp	r3, #0
 800031e:	d14a      	bne.n	80003b6 <__udivmoddi4+0xa6>
 8000320:	428a      	cmp	r2, r1
 8000322:	4694      	mov	ip, r2
 8000324:	d965      	bls.n	80003f2 <__udivmoddi4+0xe2>
 8000326:	fab2 f382 	clz	r3, r2
 800032a:	b143      	cbz	r3, 800033e <__udivmoddi4+0x2e>
 800032c:	fa02 fc03 	lsl.w	ip, r2, r3
 8000330:	f1c3 0220 	rsb	r2, r3, #32
 8000334:	409f      	lsls	r7, r3
 8000336:	fa20 f202 	lsr.w	r2, r0, r2
 800033a:	4317      	orrs	r7, r2
 800033c:	409c      	lsls	r4, r3
 800033e:	ea4f 4e1c 	mov.w	lr, ip, lsr #16
 8000342:	fa1f f58c 	uxth.w	r5, ip
 8000346:	fbb7 f1fe 	udiv	r1, r7, lr
 800034a:	0c22      	lsrs	r2, r4, #16
 800034c:	fb0e 7711 	mls	r7, lr, r1, r7
 8000350:	ea42 4207 	orr.w	r2, r2, r7, lsl #16
 8000354:	fb01 f005 	mul.w	r0, r1, r5
 8000358:	4290      	cmp	r0, r2
 800035a:	d90a      	bls.n	8000372 <__udivmoddi4+0x62>
 800035c:	eb1c 0202 	adds.w	r2, ip, r2
 8000360:	f101 37ff 	add.w	r7, r1, #4294967295
 8000364:	f080 811c 	bcs.w	80005a0 <__udivmoddi4+0x290>
 8000368:	4290      	cmp	r0, r2
 800036a:	f240 8119 	bls.w	80005a0 <__udivmoddi4+0x290>
 800036e:	3902      	subs	r1, #2
 8000370:	4462      	add	r2, ip
 8000372:	1a12      	subs	r2, r2, r0
 8000374:	b2a4      	uxth	r4, r4
 8000376:	fbb2 f0fe 	udiv	r0, r2, lr
 800037a:	fb0e 2210 	mls	r2, lr, r0, r2
 800037e:	ea44 4402 	orr.w	r4, r4, r2, lsl #16
 8000382:	fb00 f505 	mul.w	r5, r0, r5
 8000386:	42a5      	cmp	r5, r4
 8000388:	d90a      	bls.n	80003a0 <__udivmoddi4+0x90>
 800038a:	eb1c 0404 	adds.w	r4, ip, r4
 800038e:	f100 32ff 	add.w	r2, r0, #4294967295
 8000392:	f080 8107 	bcs.w	80005a4 <__udivmoddi4+0x294>
 8000396:	42a5      	cmp	r5, r4
 8000398:	f240 8104 	bls.w	80005a4 <__udivmoddi4+0x294>
 800039c:	4464      	add	r4, ip
 800039e:	3802      	subs	r0, #2
 80003a0:	ea40 4001 	orr.w	r0, r0, r1, lsl #16
 80003a4:	1b64      	subs	r4, r4, r5
 80003a6:	2100      	movs	r1, #0
 80003a8:	b11e      	cbz	r6, 80003b2 <__udivmoddi4+0xa2>
 80003aa:	40dc      	lsrs	r4, r3
 80003ac:	2300      	movs	r3, #0
 80003ae:	e9c6 4300 	strd	r4, r3, [r6]
 80003b2:	e8bd 87f0 	ldmia.w	sp!, {r4, r5, r6, r7, r8, r9, sl, pc}
 80003b6:	428b      	cmp	r3, r1
 80003b8:	d908      	bls.n	80003cc <__udivmoddi4+0xbc>
 80003ba:	2e00      	cmp	r6, #0
 80003bc:	f000 80ed 	beq.w	800059a <__udivmoddi4+0x28a>
 80003c0:	2100      	movs	r1, #0
 80003c2:	e9c6 0500 	strd	r0, r5, [r6]
 80003c6:	4608      	mov	r0, r1
 80003c8:	e8bd 87f0 	ldmia.w	sp!, {r4, r5, r6, r7, r8, r9, sl, pc}
 80003cc:	fab3 f183 	clz	r1, r3
 80003d0:	2900      	cmp	r1, #0
 80003d2:	d149      	bne.n	8000468 <__udivmoddi4+0x158>
 80003d4:	42ab      	cmp	r3, r5
 80003d6:	d302      	bcc.n	80003de <__udivmoddi4+0xce>
 80003d8:	4282      	cmp	r2, r0
 80003da:	f200 80f8 	bhi.w	80005ce <__udivmoddi4+0x2be>
 80003de:	1a84      	subs	r4, r0, r2
 80003e0:	eb65 0203 	sbc.w	r2, r5, r3
 80003e4:	2001      	movs	r0, #1
 80003e6:	4617      	mov	r7, r2
 80003e8:	2e00      	cmp	r6, #0
 80003ea:	d0e2      	beq.n	80003b2 <__udivmoddi4+0xa2>
 80003ec:	e9c6 4700 	strd	r4, r7, [r6]
 80003f0:	e7df      	b.n	80003b2 <__udivmoddi4+0xa2>
 80003f2:	b902      	cbnz	r2, 80003f6 <__udivmoddi4+0xe6>
 80003f4:	deff      	udf	#255	; 0xff
 80003f6:	fab2 f382 	clz	r3, r2
 80003fa:	2b00      	cmp	r3, #0
 80003fc:	f040 8090 	bne.w	8000520 <__udivmoddi4+0x210>
 8000400:	1a8a      	subs	r2, r1, r2
 8000402:	ea4f 471c 	mov.w	r7, ip, lsr #16
 8000406:	fa1f fe8c 	uxth.w	lr, ip
 800040a:	2101      	movs	r1, #1
 800040c:	fbb2 f5f7 	udiv	r5, r2, r7
 8000410:	fb07 2015 	mls	r0, r7, r5, r2
 8000414:	0c22      	lsrs	r2, r4, #16
 8000416:	ea42 4200 	orr.w	r2, r2, r0, lsl #16
 800041a:	fb0e f005 	mul.w	r0, lr, r5
 800041e:	4290      	cmp	r0, r2
 8000420:	d908      	bls.n	8000434 <__udivmoddi4+0x124>
 8000422:	eb1c 0202 	adds.w	r2, ip, r2
 8000426:	f105 38ff 	add.w	r8, r5, #4294967295
 800042a:	d202      	bcs.n	8000432 <__udivmoddi4+0x122>
 800042c:	4290      	cmp	r0, r2
 800042e:	f200 80cb 	bhi.w	80005c8 <__udivmoddi4+0x2b8>
 8000432:	4645      	mov	r5, r8
 8000434:	1a12      	subs	r2, r2, r0
 8000436:	b2a4      	uxth	r4, r4
 8000438:	fbb2 f0f7 	udiv	r0, r2, r7
 800043c:	fb07 2210 	mls	r2, r7, r0, r2
 8000440:	ea44 4402 	orr.w	r4, r4, r2, lsl #16
 8000444:	fb0e fe00 	mul.w	lr, lr, r0
 8000448:	45a6      	cmp	lr, r4
 800044a:	d908      	bls.n	800045e <__udivmoddi4+0x14e>
 800044c:	eb1c 0404 	adds.w	r4, ip, r4
 8000450:	f100 32ff 	add.w	r2, r0, #4294967295
 8000454:	d202      	bcs.n	800045c <__udivmoddi4+0x14c>
 8000456:	45a6      	cmp	lr, r4
 8000458:	f200 80bb 	bhi.w	80005d2 <__udivmoddi4+0x2c2>
 800045c:	4610      	mov	r0, r2
 800045e:	eba4 040e 	sub.w	r4, r4, lr
 8000462:	ea40 4005 	orr.w	r0, r0, r5, lsl #16
 8000466:	e79f      	b.n	80003a8 <__udivmoddi4+0x98>
 8000468:	f1c1 0720 	rsb	r7, r1, #32
 800046c:	408b      	lsls	r3, r1
 800046e:	fa22 fc07 	lsr.w	ip, r2, r7
 8000472:	ea4c 0c03 	orr.w	ip, ip, r3
 8000476:	fa05 f401 	lsl.w	r4, r5, r1
 800047a:	fa20 f307 	lsr.w	r3, r0, r7
 800047e:	40fd      	lsrs	r5, r7
 8000480:	ea4f 491c 	mov.w	r9, ip, lsr #16
 8000484:	4323      	orrs	r3, r4
 8000486:	fbb5 f8f9 	udiv	r8, r5, r9
 800048a:	fa1f fe8c 	uxth.w	lr, ip
 800048e:	fb09 5518 	mls	r5, r9, r8, r5
 8000492:	0c1c      	lsrs	r4, r3, #16
 8000494:	ea44 4405 	orr.w	r4, r4, r5, lsl #16
 8000498:	fb08 f50e 	mul.w	r5, r8, lr
 800049c:	42a5      	cmp	r5, r4
 800049e:	fa02 f201 	lsl.w	r2, r2, r1
 80004a2:	fa00 f001 	lsl.w	r0, r0, r1
 80004a6:	d90b      	bls.n	80004c0 <__udivmoddi4+0x1b0>
 80004a8:	eb1c 0404 	adds.w	r4, ip, r4
 80004ac:	f108 3aff 	add.w	sl, r8, #4294967295
 80004b0:	f080 8088 	bcs.w	80005c4 <__udivmoddi4+0x2b4>
 80004b4:	42a5      	cmp	r5, r4
 80004b6:	f240 8085 	bls.w	80005c4 <__udivmoddi4+0x2b4>
 80004ba:	f1a8 0802 	sub.w	r8, r8, #2
 80004be:	4464      	add	r4, ip
 80004c0:	1b64      	subs	r4, r4, r5
 80004c2:	b29d      	uxth	r5, r3
 80004c4:	fbb4 f3f9 	udiv	r3, r4, r9
 80004c8:	fb09 4413 	mls	r4, r9, r3, r4
 80004cc:	ea45 4404 	orr.w	r4, r5, r4, lsl #16
 80004d0:	fb03 fe0e 	mul.w	lr, r3, lr
 80004d4:	45a6      	cmp	lr, r4
 80004d6:	d908      	bls.n	80004ea <__udivmoddi4+0x1da>
 80004d8:	eb1c 0404 	adds.w	r4, ip, r4
 80004dc:	f103 35ff 	add.w	r5, r3, #4294967295
 80004e0:	d26c      	bcs.n	80005bc <__udivmoddi4+0x2ac>
 80004e2:	45a6      	cmp	lr, r4
 80004e4:	d96a      	bls.n	80005bc <__udivmoddi4+0x2ac>
 80004e6:	3b02      	subs	r3, #2
 80004e8:	4464      	add	r4, ip
 80004ea:	ea43 4308 	orr.w	r3, r3, r8, lsl #16
 80004ee:	fba3 9502 	umull	r9, r5, r3, r2
 80004f2:	eba4 040e 	sub.w	r4, r4, lr
 80004f6:	42ac      	cmp	r4, r5
 80004f8:	46c8      	mov	r8, r9
 80004fa:	46ae      	mov	lr, r5
 80004fc:	d356      	bcc.n	80005ac <__udivmoddi4+0x29c>
 80004fe:	d053      	beq.n	80005a8 <__udivmoddi4+0x298>
 8000500:	b156      	cbz	r6, 8000518 <__udivmoddi4+0x208>
 8000502:	ebb0 0208 	subs.w	r2, r0, r8
 8000506:	eb64 040e 	sbc.w	r4, r4, lr
 800050a:	fa04 f707 	lsl.w	r7, r4, r7
 800050e:	40ca      	lsrs	r2, r1
 8000510:	40cc      	lsrs	r4, r1
 8000512:	4317      	orrs	r7, r2
 8000514:	e9c6 7400 	strd	r7, r4, [r6]
 8000518:	4618      	mov	r0, r3
 800051a:	2100      	movs	r1, #0
 800051c:	e8bd 87f0 	ldmia.w	sp!, {r4, r5, r6, r7, r8, r9, sl, pc}
 8000520:	f1c3 0120 	rsb	r1, r3, #32
 8000524:	fa02 fc03 	lsl.w	ip, r2, r3
 8000528:	fa20 f201 	lsr.w	r2, r0, r1
 800052c:	fa25 f101 	lsr.w	r1, r5, r1
 8000530:	409d      	lsls	r5, r3
 8000532:	432a      	orrs	r2, r5
 8000534:	ea4f 471c 	mov.w	r7, ip, lsr #16
 8000538:	fa1f fe8c 	uxth.w	lr, ip
 800053c:	fbb1 f0f7 	udiv	r0, r1, r7
 8000540:	fb07 1510 	mls	r5, r7, r0, r1
 8000544:	0c11      	lsrs	r1, r2, #16
 8000546:	ea41 4105 	orr.w	r1, r1, r5, lsl #16
 800054a:	fb00 f50e 	mul.w	r5, r0, lr
 800054e:	428d      	cmp	r5, r1
 8000550:	fa04 f403 	lsl.w	r4, r4, r3
 8000554:	d908      	bls.n	8000568 <__udivmoddi4+0x258>
 8000556:	eb1c 0101 	adds.w	r1, ip, r1
 800055a:	f100 38ff 	add.w	r8, r0, #4294967295
 800055e:	d22f      	bcs.n	80005c0 <__udivmoddi4+0x2b0>
 8000560:	428d      	cmp	r5, r1
 8000562:	d92d      	bls.n	80005c0 <__udivmoddi4+0x2b0>
 8000564:	3802      	subs	r0, #2
 8000566:	4461      	add	r1, ip
 8000568:	1b49      	subs	r1, r1, r5
 800056a:	b292      	uxth	r2, r2
 800056c:	fbb1 f5f7 	udiv	r5, r1, r7
 8000570:	fb07 1115 	mls	r1, r7, r5, r1
 8000574:	ea42 4201 	orr.w	r2, r2, r1, lsl #16
 8000578:	fb05 f10e 	mul.w	r1, r5, lr
 800057c:	4291      	cmp	r1, r2
 800057e:	d908      	bls.n	8000592 <__udivmoddi4+0x282>
 8000580:	eb1c 0202 	adds.w	r2, ip, r2
 8000584:	f105 38ff 	add.w	r8, r5, #4294967295
 8000588:	d216      	bcs.n	80005b8 <__udivmoddi4+0x2a8>
 800058a:	4291      	cmp	r1, r2
 800058c:	d914      	bls.n	80005b8 <__udivmoddi4+0x2a8>
 800058e:	3d02      	subs	r5, #2
 8000590:	4462      	add	r2, ip
 8000592:	1a52      	subs	r2, r2, r1
 8000594:	ea45 4100 	orr.w	r1, r5, r0, lsl #16
 8000598:	e738      	b.n	800040c <__udivmoddi4+0xfc>
 800059a:	4631      	mov	r1, r6
 800059c:	4630      	mov	r0, r6
 800059e:	e708      	b.n	80003b2 <__udivmoddi4+0xa2>
 80005a0:	4639      	mov	r1, r7
 80005a2:	e6e6      	b.n	8000372 <__udivmoddi4+0x62>
 80005a4:	4610      	mov	r0, r2
 80005a6:	e6fb      	b.n	80003a0 <__udivmoddi4+0x90>
 80005a8:	4548      	cmp	r0, r9
 80005aa:	d2a9      	bcs.n	8000500 <__udivmoddi4+0x1f0>
 80005ac:	ebb9 0802 	subs.w	r8, r9, r2
 80005b0:	eb65 0e0c 	sbc.w	lr, r5, ip
 80005b4:	3b01      	subs	r3, #1
 80005b6:	e7a3      	b.n	8000500 <__udivmoddi4+0x1f0>
 80005b8:	4645      	mov	r5, r8
 80005ba:	e7ea      	b.n	8000592 <__udivmoddi4+0x282>
 80005bc:	462b      	mov	r3, r5
 80005be:	e794      	b.n	80004ea <__udivmoddi4+0x1da>
 80005c0:	4640      	mov	r0, r8
 80005c2:	e7d1      	b.n	8000568 <__udivmoddi4+0x258>
 80005c4:	46d0      	mov	r8, sl
 80005c6:	e77b      	b.n	80004c0 <__udivmoddi4+0x1b0>
 80005c8:	3d02      	subs	r5, #2
 80005ca:	4462      	add	r2, ip
 80005cc:	e732      	b.n	8000434 <__udivmoddi4+0x124>
 80005ce:	4608      	mov	r0, r1
 80005d0:	e70a      	b.n	80003e8 <__udivmoddi4+0xd8>
 80005d2:	4464      	add	r4, ip
 80005d4:	3802      	subs	r0, #2
 80005d6:	e742      	b.n	800045e <__udivmoddi4+0x14e>

080005d8 <__aeabi_idiv0>:
 80005d8:	4770      	bx	lr
 80005da:	bf00      	nop

080005dc <SystemClock_Config>:
 80005dc:	b530      	push	{r4, r5, lr}
 80005de:	b095      	sub	sp, #84	; 0x54
 80005e0:	2100      	movs	r1, #0
 80005e2:	2214      	movs	r2, #20
 80005e4:	2402      	movs	r4, #2
 80005e6:	a803      	add	r0, sp, #12
 80005e8:	910c      	str	r1, [sp, #48]	; 0x30
 80005ea:	250f      	movs	r5, #15
 80005ec:	e9cd 110a 	strd	r1, r1, [sp, #40]	; 0x28
 80005f0:	f009 facf 	bl	8009b92 <memset>
 80005f4:	4b1f      	ldr	r3, [pc, #124]	; (8000674 <SystemClock_Config+0x98>)
 80005f6:	2109      	movs	r1, #9
 80005f8:	a808      	add	r0, sp, #32
 80005fa:	6c1a      	ldr	r2, [r3, #64]	; 0x40
 80005fc:	f042 5280 	orr.w	r2, r2, #268435456	; 0x10000000
 8000600:	641a      	str	r2, [r3, #64]	; 0x40
 8000602:	6c1b      	ldr	r3, [r3, #64]	; 0x40
 8000604:	4a1c      	ldr	r2, [pc, #112]	; (8000678 <SystemClock_Config+0x9c>)
 8000606:	f003 5380 	and.w	r3, r3, #268435456	; 0x10000000
 800060a:	9301      	str	r3, [sp, #4]
 800060c:	9b01      	ldr	r3, [sp, #4]
 800060e:	6813      	ldr	r3, [r2, #0]
 8000610:	f423 4340 	bic.w	r3, r3, #49152	; 0xc000
 8000614:	f443 4380 	orr.w	r3, r3, #16384	; 0x4000
 8000618:	6013      	str	r3, [r2, #0]
 800061a:	6813      	ldr	r3, [r2, #0]
 800061c:	f403 4340 	and.w	r3, r3, #49152	; 0xc000
 8000620:	9302      	str	r3, [sp, #8]
 8000622:	9b02      	ldr	r3, [sp, #8]
 8000624:	f44f 3380 	mov.w	r3, #65536	; 0x10000
 8000628:	e9cd 1308 	strd	r1, r3, [sp, #32]
 800062c:	2301      	movs	r3, #1
 800062e:	e9cd 340d 	strd	r3, r4, [sp, #52]	; 0x34
 8000632:	f44f 0380 	mov.w	r3, #4194304	; 0x400000
 8000636:	e9cd 350f 	strd	r3, r5, [sp, #60]	; 0x3c
 800063a:	2390      	movs	r3, #144	; 0x90
 800063c:	e9cd 3411 	strd	r3, r4, [sp, #68]	; 0x44
 8000640:	2305      	movs	r3, #5
 8000642:	9313      	str	r3, [sp, #76]	; 0x4c
 8000644:	f001 fafe 	bl	8001c44 <HAL_RCC_OscConfig>
 8000648:	b108      	cbz	r0, 800064e <SystemClock_Config+0x72>
 800064a:	b672      	cpsid	i
 800064c:	e7fe      	b.n	800064c <SystemClock_Config+0x70>
 800064e:	f44f 52a0 	mov.w	r2, #5120	; 0x1400
 8000652:	f44f 5380 	mov.w	r3, #4096	; 0x1000
 8000656:	9005      	str	r0, [sp, #20]
 8000658:	2103      	movs	r1, #3
 800065a:	a803      	add	r0, sp, #12
 800065c:	e9cd 5403 	strd	r5, r4, [sp, #12]
 8000660:	e9cd 2306 	strd	r2, r3, [sp, #24]
 8000664:	f001 fcd6 	bl	8002014 <HAL_RCC_ClockConfig>
 8000668:	b108      	cbz	r0, 800066e <SystemClock_Config+0x92>
 800066a:	b672      	cpsid	i
 800066c:	e7fe      	b.n	800066c <SystemClock_Config+0x90>
 800066e:	b015      	add	sp, #84	; 0x54
 8000670:	bd30      	pop	{r4, r5, pc}
 8000672:	bf00      	nop
 8000674:	40023800 	.word	0x40023800
 8000678:	40007000 	.word	0x40007000

0800067c <main>:
 800067c:	b5f0      	push	{r4, r5, r6, r7, lr}
 800067e:	b099      	sub	sp, #100	; 0x64
 8000680:	f3bf 8f4f 	dsb	sy
 8000684:	f3bf 8f6f 	isb	sy
 8000688:	4aaf      	ldr	r2, [pc, #700]	; (8000948 <main+0x2cc>)
 800068a:	2100      	movs	r1, #0
 800068c:	f8c2 1250 	str.w	r1, [r2, #592]	; 0x250
 8000690:	f3bf 8f4f 	dsb	sy
 8000694:	f3bf 8f6f 	isb	sy
 8000698:	6953      	ldr	r3, [r2, #20]
 800069a:	f443 3300 	orr.w	r3, r3, #131072	; 0x20000
 800069e:	6153      	str	r3, [r2, #20]
 80006a0:	f3bf 8f4f 	dsb	sy
 80006a4:	f3bf 8f6f 	isb	sy
 80006a8:	f8c2 1084 	str.w	r1, [r2, #132]	; 0x84
 80006ac:	f3bf 8f4f 	dsb	sy
 80006b0:	f8d2 3080 	ldr.w	r3, [r2, #128]	; 0x80
 80006b4:	f643 74e0 	movw	r4, #16352	; 0x3fe0
 80006b8:	f3c3 00c9 	ubfx	r0, r3, #3, #10
 80006bc:	f3c3 334e 	ubfx	r3, r3, #13, #15
 80006c0:	015b      	lsls	r3, r3, #5
 80006c2:	ea03 0604 	and.w	r6, r3, r4
 80006c6:	4601      	mov	r1, r0
 80006c8:	ea46 7581 	orr.w	r5, r6, r1, lsl #30
 80006cc:	3901      	subs	r1, #1
 80006ce:	f8c2 5260 	str.w	r5, [r2, #608]	; 0x260
 80006d2:	d2f9      	bcs.n	80006c8 <main+0x4c>
 80006d4:	3b20      	subs	r3, #32
 80006d6:	f113 0f20 	cmn.w	r3, #32
 80006da:	d1f2      	bne.n	80006c2 <main+0x46>
 80006dc:	f3bf 8f4f 	dsb	sy
 80006e0:	6953      	ldr	r3, [r2, #20]
 80006e2:	f443 3380 	orr.w	r3, r3, #65536	; 0x10000
 80006e6:	6153      	str	r3, [r2, #20]
 80006e8:	f3bf 8f4f 	dsb	sy
 80006ec:	f3bf 8f6f 	isb	sy
 80006f0:	f000 fba0 	bl	8000e34 <HAL_Init>
 80006f4:	2400      	movs	r4, #0
 80006f6:	f7ff ff71 	bl	80005dc <SystemClock_Config>
 80006fa:	2214      	movs	r2, #20
 80006fc:	2100      	movs	r1, #0
 80006fe:	a80e      	add	r0, sp, #56	; 0x38
 8000700:	f009 fa47 	bl	8009b92 <memset>
 8000704:	4b91      	ldr	r3, [pc, #580]	; (800094c <main+0x2d0>)
 8000706:	4892      	ldr	r0, [pc, #584]	; (8000950 <main+0x2d4>)
 8000708:	2601      	movs	r6, #1
 800070a:	6b1a      	ldr	r2, [r3, #48]	; 0x30
 800070c:	4d91      	ldr	r5, [pc, #580]	; (8000954 <main+0x2d8>)
 800070e:	f042 0204 	orr.w	r2, r2, #4
 8000712:	631a      	str	r2, [r3, #48]	; 0x30
 8000714:	6b1a      	ldr	r2, [r3, #48]	; 0x30
 8000716:	f002 0204 	and.w	r2, r2, #4
 800071a:	9203      	str	r2, [sp, #12]
 800071c:	9a03      	ldr	r2, [sp, #12]
 800071e:	6b1a      	ldr	r2, [r3, #48]	; 0x30
 8000720:	f042 0280 	orr.w	r2, r2, #128	; 0x80
 8000724:	631a      	str	r2, [r3, #48]	; 0x30
 8000726:	6b1a      	ldr	r2, [r3, #48]	; 0x30
 8000728:	f002 0280 	and.w	r2, r2, #128	; 0x80
 800072c:	9204      	str	r2, [sp, #16]
 800072e:	9a04      	ldr	r2, [sp, #16]
 8000730:	6b1a      	ldr	r2, [r3, #48]	; 0x30
 8000732:	f042 0201 	orr.w	r2, r2, #1
 8000736:	631a      	str	r2, [r3, #48]	; 0x30
 8000738:	6b1a      	ldr	r2, [r3, #48]	; 0x30
 800073a:	f002 0201 	and.w	r2, r2, #1
 800073e:	9205      	str	r2, [sp, #20]
 8000740:	9a05      	ldr	r2, [sp, #20]
 8000742:	6b1a      	ldr	r2, [r3, #48]	; 0x30
 8000744:	f042 0202 	orr.w	r2, r2, #2
 8000748:	631a      	str	r2, [r3, #48]	; 0x30
 800074a:	6b1a      	ldr	r2, [r3, #48]	; 0x30
 800074c:	f002 0202 	and.w	r2, r2, #2
 8000750:	9206      	str	r2, [sp, #24]
 8000752:	9a06      	ldr	r2, [sp, #24]
 8000754:	6b1a      	ldr	r2, [r3, #48]	; 0x30
 8000756:	f042 0208 	orr.w	r2, r2, #8
 800075a:	631a      	str	r2, [r3, #48]	; 0x30
 800075c:	6b1a      	ldr	r2, [r3, #48]	; 0x30
 800075e:	f002 0208 	and.w	r2, r2, #8
 8000762:	9207      	str	r2, [sp, #28]
 8000764:	9a07      	ldr	r2, [sp, #28]
 8000766:	6b1a      	ldr	r2, [r3, #48]	; 0x30
 8000768:	f042 0240 	orr.w	r2, r2, #64	; 0x40
 800076c:	631a      	str	r2, [r3, #48]	; 0x30
 800076e:	2201      	movs	r2, #1
 8000770:	6b1b      	ldr	r3, [r3, #48]	; 0x30
 8000772:	4611      	mov	r1, r2
 8000774:	f003 0340 	and.w	r3, r3, #64	; 0x40
 8000778:	9308      	str	r3, [sp, #32]
 800077a:	9b08      	ldr	r3, [sp, #32]
 800077c:	f001 f9c0 	bl	8001b00 <HAL_GPIO_WritePin>
 8000780:	2200      	movs	r2, #0
 8000782:	f44f 4181 	mov.w	r1, #16512	; 0x4080
 8000786:	4872      	ldr	r0, [pc, #456]	; (8000950 <main+0x2d4>)
 8000788:	f001 f9ba 	bl	8001b00 <HAL_GPIO_WritePin>
 800078c:	2200      	movs	r2, #0
 800078e:	2140      	movs	r1, #64	; 0x40
 8000790:	4871      	ldr	r0, [pc, #452]	; (8000958 <main+0x2dc>)
 8000792:	f001 f9b5 	bl	8001b00 <HAL_GPIO_WritePin>
 8000796:	f44f 1388 	mov.w	r3, #1114112	; 0x110000
 800079a:	f44f 5000 	mov.w	r0, #8192	; 0x2000
 800079e:	a90e      	add	r1, sp, #56	; 0x38
 80007a0:	9410      	str	r4, [sp, #64]	; 0x40
 80007a2:	e9cd 030e 	strd	r0, r3, [sp, #56]	; 0x38
 80007a6:	486d      	ldr	r0, [pc, #436]	; (800095c <main+0x2e0>)
 80007a8:	f001 f8c8 	bl	800193c <HAL_GPIO_Init>
 80007ac:	f244 0381 	movw	r3, #16513	; 0x4081
 80007b0:	a90e      	add	r1, sp, #56	; 0x38
 80007b2:	4867      	ldr	r0, [pc, #412]	; (8000950 <main+0x2d4>)
 80007b4:	e9cd 360e 	strd	r3, r6, [sp, #56]	; 0x38
 80007b8:	e9cd 4410 	strd	r4, r4, [sp, #64]	; 0x40
 80007bc:	f001 f8be 	bl	800193c <HAL_GPIO_Init>
 80007c0:	2340      	movs	r3, #64	; 0x40
 80007c2:	a90e      	add	r1, sp, #56	; 0x38
 80007c4:	4864      	ldr	r0, [pc, #400]	; (8000958 <main+0x2dc>)
 80007c6:	e9cd 360e 	strd	r3, r6, [sp, #56]	; 0x38
 80007ca:	e9cd 4410 	strd	r4, r4, [sp, #64]	; 0x40
 80007ce:	f001 f8b5 	bl	800193c <HAL_GPIO_Init>
 80007d2:	2380      	movs	r3, #128	; 0x80
 80007d4:	4860      	ldr	r0, [pc, #384]	; (8000958 <main+0x2dc>)
 80007d6:	a90e      	add	r1, sp, #56	; 0x38
 80007d8:	9410      	str	r4, [sp, #64]	; 0x40
 80007da:	e9cd 340e 	strd	r3, r4, [sp, #56]	; 0x38
 80007de:	f001 f8ad 	bl	800193c <HAL_GPIO_Init>
 80007e2:	485f      	ldr	r0, [pc, #380]	; (8000960 <main+0x2e4>)
 80007e4:	f44f 33e1 	mov.w	r3, #115200	; 0x1c200
 80007e8:	6104      	str	r4, [r0, #16]
 80007ea:	6244      	str	r4, [r0, #36]	; 0x24
 80007ec:	e9c0 5300 	strd	r5, r3, [r0]
 80007f0:	230c      	movs	r3, #12
 80007f2:	e9c0 4402 	strd	r4, r4, [r0, #8]
 80007f6:	e9c0 3405 	strd	r3, r4, [r0, #20]
 80007fa:	e9c0 4407 	strd	r4, r4, [r0, #28]
 80007fe:	f002 fbd8 	bl	8002fb2 <HAL_UART_Init>
 8000802:	b108      	cbz	r0, 8000808 <main+0x18c>
 8000804:	b672      	cpsid	i
 8000806:	e7fe      	b.n	8000806 <main+0x18a>
 8000808:	4b56      	ldr	r3, [pc, #344]	; (8000964 <main+0x2e8>)
 800080a:	2702      	movs	r7, #2
 800080c:	f04f 41a0 	mov.w	r1, #1342177280	; 0x50000000
 8000810:	2206      	movs	r2, #6
 8000812:	e9c3 7003 	strd	r7, r0, [r3, #12]
 8000816:	e9c3 0008 	strd	r0, r0, [r3, #32]
 800081a:	e9c3 600b 	strd	r6, r0, [r3, #44]	; 0x2c
 800081e:	4618      	mov	r0, r3
 8000820:	e9c3 1200 	strd	r1, r2, [r3]
 8000824:	e9c3 7606 	strd	r7, r6, [r3, #24]
 8000828:	f001 f96f 	bl	8001b0a <HAL_PCD_Init>
 800082c:	4605      	mov	r5, r0
 800082e:	b108      	cbz	r0, 8000834 <main+0x1b8>
 8000830:	b672      	cpsid	i
 8000832:	e7fe      	b.n	8000832 <main+0x1b6>
 8000834:	f002 fd9a 	bl	800336c <MX_LWIP_Init>
 8000838:	2214      	movs	r2, #20
 800083a:	4629      	mov	r1, r5
 800083c:	a809      	add	r0, sp, #36	; 0x24
 800083e:	f009 f9a8 	bl	8009b92 <memset>
 8000842:	2228      	movs	r2, #40	; 0x28
 8000844:	4629      	mov	r1, r5
 8000846:	a80e      	add	r0, sp, #56	; 0x38
 8000848:	4c47      	ldr	r4, [pc, #284]	; (8000968 <main+0x2ec>)
 800084a:	9502      	str	r5, [sp, #8]
 800084c:	f009 f9a1 	bl	8009b92 <memset>
 8000850:	4b46      	ldr	r3, [pc, #280]	; (800096c <main+0x2f0>)
 8000852:	227f      	movs	r2, #127	; 0x7f
 8000854:	4620      	mov	r0, r4
 8000856:	61a5      	str	r5, [r4, #24]
 8000858:	e9c4 3500 	strd	r3, r5, [r4]
 800085c:	23ff      	movs	r3, #255	; 0xff
 800085e:	e9c4 5504 	strd	r5, r5, [r4, #16]
 8000862:	e9c4 2302 	strd	r2, r3, [r4, #8]
 8000866:	f001 ff9a 	bl	800279e <HAL_RTC_Init>
 800086a:	b108      	cbz	r0, 8000870 <main+0x1f4>
 800086c:	b672      	cpsid	i
 800086e:	e7fe      	b.n	800086e <main+0x1f2>
 8000870:	f240 6315 	movw	r3, #1557	; 0x615
 8000874:	4632      	mov	r2, r6
 8000876:	a909      	add	r1, sp, #36	; 0x24
 8000878:	f8ad 3024 	strh.w	r3, [sp, #36]	; 0x24
 800087c:	2350      	movs	r3, #80	; 0x50
 800087e:	e9cd 000c 	strd	r0, r0, [sp, #48]	; 0x30
 8000882:	4620      	mov	r0, r4
 8000884:	f88d 3026 	strb.w	r3, [sp, #38]	; 0x26
 8000888:	f001 ffdc 	bl	8002844 <HAL_RTC_SetTime>
 800088c:	b108      	cbz	r0, 8000892 <main+0x216>
 800088e:	b672      	cpsid	i
 8000890:	e7fe      	b.n	8000890 <main+0x214>
 8000892:	4b37      	ldr	r3, [pc, #220]	; (8000970 <main+0x2f4>)
 8000894:	4632      	mov	r2, r6
 8000896:	a902      	add	r1, sp, #8
 8000898:	4620      	mov	r0, r4
 800089a:	9302      	str	r3, [sp, #8]
 800089c:	f002 f82b 	bl	80028f6 <HAL_RTC_SetDate>
 80008a0:	b108      	cbz	r0, 80008a6 <main+0x22a>
 80008a2:	b672      	cpsid	i
 80008a4:	e7fe      	b.n	80008a4 <main+0x228>
 80008a6:	4b33      	ldr	r3, [pc, #204]	; (8000974 <main+0x2f8>)
 80008a8:	4632      	mov	r2, r6
 80008aa:	f8ad 0038 	strh.w	r0, [sp, #56]	; 0x38
 80008ae:	a90e      	add	r1, sp, #56	; 0x38
 80008b0:	900f      	str	r0, [sp, #60]	; 0x3c
 80008b2:	9015      	str	r0, [sp, #84]	; 0x54
 80008b4:	f88d 703a 	strb.w	r7, [sp, #58]	; 0x3a
 80008b8:	f88d 6058 	strb.w	r6, [sp, #88]	; 0x58
 80008bc:	e9cd 3013 	strd	r3, r0, [sp, #76]	; 0x4c
 80008c0:	f44f 7380 	mov.w	r3, #256	; 0x100
 80008c4:	e9cd 0011 	strd	r0, r0, [sp, #68]	; 0x44
 80008c8:	4620      	mov	r0, r4
 80008ca:	9317      	str	r3, [sp, #92]	; 0x5c
 80008cc:	f002 f85c 	bl	8002988 <HAL_RTC_SetAlarm_IT>
 80008d0:	4605      	mov	r5, r0
 80008d2:	b108      	cbz	r0, 80008d8 <main+0x25c>
 80008d4:	b672      	cpsid	i
 80008d6:	e7fe      	b.n	80008d6 <main+0x25a>
 80008d8:	f003 f8ea 	bl	8003ab0 <sntp_setoperatingmode>
 80008dc:	4b26      	ldr	r3, [pc, #152]	; (8000978 <main+0x2fc>)
 80008de:	a901      	add	r1, sp, #4
 80008e0:	4628      	mov	r0, r5
 80008e2:	9301      	str	r3, [sp, #4]
 80008e4:	f003 f910 	bl	8003b08 <sntp_setserver>
 80008e8:	f003 f88e 	bl	8003a08 <sntp_init>
 80008ec:	f003 f8d8 	bl	8003aa0 <sntp_enabled>
 80008f0:	4628      	mov	r0, r5
 80008f2:	f003 f901 	bl	8003af8 <sntp_getreachability>
 80008f6:	462a      	mov	r2, r5
 80008f8:	a909      	add	r1, sp, #36	; 0x24
 80008fa:	4620      	mov	r0, r4
 80008fc:	f002 f8fd 	bl	8002afa <HAL_RTC_GetTime>
 8000900:	462a      	mov	r2, r5
 8000902:	a902      	add	r1, sp, #8
 8000904:	4620      	mov	r0, r4
 8000906:	f002 f91b 	bl	8002b40 <HAL_RTC_GetDate>
 800090a:	f89d 3024 	ldrb.w	r3, [sp, #36]	; 0x24
 800090e:	4c1b      	ldr	r4, [pc, #108]	; (800097c <main+0x300>)
 8000910:	a80e      	add	r0, sp, #56	; 0x38
 8000912:	9310      	str	r3, [sp, #64]	; 0x40
 8000914:	f89d 3025 	ldrb.w	r3, [sp, #37]	; 0x25
 8000918:	9516      	str	r5, [sp, #88]	; 0x58
 800091a:	930f      	str	r3, [sp, #60]	; 0x3c
 800091c:	f89d 3026 	ldrb.w	r3, [sp, #38]	; 0x26
 8000920:	930e      	str	r3, [sp, #56]	; 0x38
 8000922:	f89d 300a 	ldrb.w	r3, [sp, #10]
 8000926:	9311      	str	r3, [sp, #68]	; 0x44
 8000928:	f89d 3009 	ldrb.w	r3, [sp, #9]
 800092c:	3b01      	subs	r3, #1
 800092e:	9312      	str	r3, [sp, #72]	; 0x48
 8000930:	f89d 300b 	ldrb.w	r3, [sp, #11]
 8000934:	3364      	adds	r3, #100	; 0x64
 8000936:	9313      	str	r3, [sp, #76]	; 0x4c
 8000938:	f009 fa1c 	bl	8009d74 <mktime>
 800093c:	4620      	mov	r0, r4
 800093e:	f002 fdcb 	bl	80034d8 <ethernetif_input>
 8000942:	f007 f9f7 	bl	8007d34 <sys_check_timeouts>
 8000946:	e7f9      	b.n	800093c <main+0x2c0>
 8000948:	e000ed00 	.word	0xe000ed00
 800094c:	40023800 	.word	0x40023800
 8000950:	40020400 	.word	0x40020400
 8000954:	40004800 	.word	0x40004800
 8000958:	40021800 	.word	0x40021800
 800095c:	40020800 	.word	0x40020800
 8000960:	2000076c 	.word	0x2000076c
 8000964:	20000244 	.word	0x20000244
 8000968:	2000074c 	.word	0x2000074c
 800096c:	40002800 	.word	0x40002800
 8000970:	24070605 	.word	0x24070605
 8000974:	80808000 	.word	0x80808000
 8000978:	0189a8c0 	.word	0x0189a8c0
 800097c:	2000080c 	.word	0x2000080c

08000980 <Error_Handler>:
 8000980:	b672      	cpsid	i
 8000982:	e7fe      	b.n	8000982 <Error_Handler+0x2>

08000984 <HAL_MspInit>:
 8000984:	4b0a      	ldr	r3, [pc, #40]	; (80009b0 <HAL_MspInit+0x2c>)
 8000986:	b082      	sub	sp, #8
 8000988:	6c1a      	ldr	r2, [r3, #64]	; 0x40
 800098a:	f042 5280 	orr.w	r2, r2, #268435456	; 0x10000000
 800098e:	641a      	str	r2, [r3, #64]	; 0x40
 8000990:	6c1a      	ldr	r2, [r3, #64]	; 0x40
 8000992:	f002 5280 	and.w	r2, r2, #268435456	; 0x10000000
 8000996:	9200      	str	r2, [sp, #0]
 8000998:	9a00      	ldr	r2, [sp, #0]
 800099a:	6c5a      	ldr	r2, [r3, #68]	; 0x44
 800099c:	f442 4280 	orr.w	r2, r2, #16384	; 0x4000
 80009a0:	645a      	str	r2, [r3, #68]	; 0x44
 80009a2:	6c5b      	ldr	r3, [r3, #68]	; 0x44
 80009a4:	f403 4380 	and.w	r3, r3, #16384	; 0x4000
 80009a8:	9301      	str	r3, [sp, #4]
 80009aa:	9b01      	ldr	r3, [sp, #4]
 80009ac:	b002      	add	sp, #8
 80009ae:	4770      	bx	lr
 80009b0:	40023800 	.word	0x40023800

080009b4 <HAL_RTC_MspInit>:
 80009b4:	b510      	push	{r4, lr}
 80009b6:	b0a2      	sub	sp, #136	; 0x88
 80009b8:	4604      	mov	r4, r0
 80009ba:	2284      	movs	r2, #132	; 0x84
 80009bc:	2100      	movs	r1, #0
 80009be:	a801      	add	r0, sp, #4
 80009c0:	f009 f8e7 	bl	8009b92 <memset>
 80009c4:	6822      	ldr	r2, [r4, #0]
 80009c6:	4b0e      	ldr	r3, [pc, #56]	; (8000a00 <HAL_RTC_MspInit+0x4c>)
 80009c8:	429a      	cmp	r2, r3
 80009ca:	d117      	bne.n	80009fc <HAL_RTC_MspInit+0x48>
 80009cc:	2320      	movs	r3, #32
 80009ce:	a801      	add	r0, sp, #4
 80009d0:	9301      	str	r3, [sp, #4]
 80009d2:	f44f 7300 	mov.w	r3, #512	; 0x200
 80009d6:	930d      	str	r3, [sp, #52]	; 0x34
 80009d8:	f001 fbe0 	bl	800219c <HAL_RCCEx_PeriphCLKConfig>
 80009dc:	b108      	cbz	r0, 80009e2 <HAL_RTC_MspInit+0x2e>
 80009de:	f7ff ffcf 	bl	8000980 <Error_Handler>
 80009e2:	4a08      	ldr	r2, [pc, #32]	; (8000a04 <HAL_RTC_MspInit+0x50>)
 80009e4:	2029      	movs	r0, #41	; 0x29
 80009e6:	6f13      	ldr	r3, [r2, #112]	; 0x70
 80009e8:	f443 4300 	orr.w	r3, r3, #32768	; 0x8000
 80009ec:	6713      	str	r3, [r2, #112]	; 0x70
 80009ee:	2200      	movs	r2, #0
 80009f0:	4611      	mov	r1, r2
 80009f2:	f000 fa67 	bl	8000ec4 <HAL_NVIC_SetPriority>
 80009f6:	2029      	movs	r0, #41	; 0x29
 80009f8:	f000 fa96 	bl	8000f28 <HAL_NVIC_EnableIRQ>
 80009fc:	b022      	add	sp, #136	; 0x88
 80009fe:	bd10      	pop	{r4, pc}
 8000a00:	40002800 	.word	0x40002800
 8000a04:	40023800 	.word	0x40023800

08000a08 <HAL_UART_MspInit>:
 8000a08:	b510      	push	{r4, lr}
 8000a0a:	b0a8      	sub	sp, #160	; 0xa0
 8000a0c:	4604      	mov	r4, r0
 8000a0e:	2214      	movs	r2, #20
 8000a10:	2100      	movs	r1, #0
 8000a12:	a802      	add	r0, sp, #8
 8000a14:	f009 f8bd 	bl	8009b92 <memset>
 8000a18:	2284      	movs	r2, #132	; 0x84
 8000a1a:	2100      	movs	r1, #0
 8000a1c:	a807      	add	r0, sp, #28
 8000a1e:	f009 f8b8 	bl	8009b92 <memset>
 8000a22:	6822      	ldr	r2, [r4, #0]
 8000a24:	4b17      	ldr	r3, [pc, #92]	; (8000a84 <HAL_UART_MspInit+0x7c>)
 8000a26:	429a      	cmp	r2, r3
 8000a28:	d12a      	bne.n	8000a80 <HAL_UART_MspInit+0x78>
 8000a2a:	f44f 7380 	mov.w	r3, #256	; 0x100
 8000a2e:	a807      	add	r0, sp, #28
 8000a30:	9307      	str	r3, [sp, #28]
 8000a32:	f001 fbb3 	bl	800219c <HAL_RCCEx_PeriphCLKConfig>
 8000a36:	b108      	cbz	r0, 8000a3c <HAL_UART_MspInit+0x34>
 8000a38:	f7ff ffa2 	bl	8000980 <Error_Handler>
 8000a3c:	4b12      	ldr	r3, [pc, #72]	; (8000a88 <HAL_UART_MspInit+0x80>)
 8000a3e:	2101      	movs	r1, #1
 8000a40:	4812      	ldr	r0, [pc, #72]	; (8000a8c <HAL_UART_MspInit+0x84>)
 8000a42:	6c1a      	ldr	r2, [r3, #64]	; 0x40
 8000a44:	f442 2280 	orr.w	r2, r2, #262144	; 0x40000
 8000a48:	641a      	str	r2, [r3, #64]	; 0x40
 8000a4a:	6c1a      	ldr	r2, [r3, #64]	; 0x40
 8000a4c:	f402 2280 	and.w	r2, r2, #262144	; 0x40000
 8000a50:	9200      	str	r2, [sp, #0]
 8000a52:	9a00      	ldr	r2, [sp, #0]
 8000a54:	6b1a      	ldr	r2, [r3, #48]	; 0x30
 8000a56:	f042 0208 	orr.w	r2, r2, #8
 8000a5a:	631a      	str	r2, [r3, #48]	; 0x30
 8000a5c:	f44f 7240 	mov.w	r2, #768	; 0x300
 8000a60:	6b1b      	ldr	r3, [r3, #48]	; 0x30
 8000a62:	f003 0308 	and.w	r3, r3, #8
 8000a66:	9301      	str	r3, [sp, #4]
 8000a68:	9b01      	ldr	r3, [sp, #4]
 8000a6a:	2302      	movs	r3, #2
 8000a6c:	e9cd 2302 	strd	r2, r3, [sp, #8]
 8000a70:	2303      	movs	r3, #3
 8000a72:	e9cd 1304 	strd	r1, r3, [sp, #16]
 8000a76:	2307      	movs	r3, #7
 8000a78:	a902      	add	r1, sp, #8
 8000a7a:	9306      	str	r3, [sp, #24]
 8000a7c:	f000 ff5e 	bl	800193c <HAL_GPIO_Init>
 8000a80:	b028      	add	sp, #160	; 0xa0
 8000a82:	bd10      	pop	{r4, pc}
 8000a84:	40004800 	.word	0x40004800
 8000a88:	40023800 	.word	0x40023800
 8000a8c:	40020c00 	.word	0x40020c00

08000a90 <HAL_PCD_MspInit>:
 8000a90:	b530      	push	{r4, r5, lr}
 8000a92:	b0ab      	sub	sp, #172	; 0xac
 8000a94:	4604      	mov	r4, r0
 8000a96:	2214      	movs	r2, #20
 8000a98:	2100      	movs	r1, #0
 8000a9a:	a804      	add	r0, sp, #16
 8000a9c:	f009 f879 	bl	8009b92 <memset>
 8000aa0:	2284      	movs	r2, #132	; 0x84
 8000aa2:	2100      	movs	r1, #0
 8000aa4:	a809      	add	r0, sp, #36	; 0x24
 8000aa6:	f009 f874 	bl	8009b92 <memset>
 8000aaa:	6823      	ldr	r3, [r4, #0]
 8000aac:	f1b3 4fa0 	cmp.w	r3, #1342177280	; 0x50000000
 8000ab0:	d13c      	bne.n	8000b2c <HAL_PCD_MspInit+0x9c>
 8000ab2:	f44f 1300 	mov.w	r3, #2097152	; 0x200000
 8000ab6:	a809      	add	r0, sp, #36	; 0x24
 8000ab8:	9309      	str	r3, [sp, #36]	; 0x24
 8000aba:	f001 fb6f 	bl	800219c <HAL_RCCEx_PeriphCLKConfig>
 8000abe:	b108      	cbz	r0, 8000ac4 <HAL_PCD_MspInit+0x34>
 8000ac0:	f7ff ff5e 	bl	8000980 <Error_Handler>
 8000ac4:	4c1a      	ldr	r4, [pc, #104]	; (8000b30 <HAL_PCD_MspInit+0xa0>)
 8000ac6:	f44f 52e8 	mov.w	r2, #7424	; 0x1d00
 8000aca:	2500      	movs	r5, #0
 8000acc:	a904      	add	r1, sp, #16
 8000ace:	6b23      	ldr	r3, [r4, #48]	; 0x30
 8000ad0:	4818      	ldr	r0, [pc, #96]	; (8000b34 <HAL_PCD_MspInit+0xa4>)
 8000ad2:	f043 0301 	orr.w	r3, r3, #1
 8000ad6:	6323      	str	r3, [r4, #48]	; 0x30
 8000ad8:	6b23      	ldr	r3, [r4, #48]	; 0x30
 8000ada:	f003 0301 	and.w	r3, r3, #1
 8000ade:	9301      	str	r3, [sp, #4]
 8000ae0:	9b01      	ldr	r3, [sp, #4]
 8000ae2:	2302      	movs	r3, #2
 8000ae4:	e9cd 2304 	strd	r2, r3, [sp, #16]
 8000ae8:	2303      	movs	r3, #3
 8000aea:	e9cd 5306 	strd	r5, r3, [sp, #24]
 8000aee:	230a      	movs	r3, #10
 8000af0:	9308      	str	r3, [sp, #32]
 8000af2:	f000 ff23 	bl	800193c <HAL_GPIO_Init>
 8000af6:	f44f 7300 	mov.w	r3, #512	; 0x200
 8000afa:	a904      	add	r1, sp, #16
 8000afc:	480d      	ldr	r0, [pc, #52]	; (8000b34 <HAL_PCD_MspInit+0xa4>)
 8000afe:	9506      	str	r5, [sp, #24]
 8000b00:	e9cd 3504 	strd	r3, r5, [sp, #16]
 8000b04:	f000 ff1a 	bl	800193c <HAL_GPIO_Init>
 8000b08:	6b63      	ldr	r3, [r4, #52]	; 0x34
 8000b0a:	f043 0380 	orr.w	r3, r3, #128	; 0x80
 8000b0e:	6363      	str	r3, [r4, #52]	; 0x34
 8000b10:	6b63      	ldr	r3, [r4, #52]	; 0x34
 8000b12:	f003 0380 	and.w	r3, r3, #128	; 0x80
 8000b16:	9302      	str	r3, [sp, #8]
 8000b18:	9b02      	ldr	r3, [sp, #8]
 8000b1a:	6c63      	ldr	r3, [r4, #68]	; 0x44
 8000b1c:	f443 4380 	orr.w	r3, r3, #16384	; 0x4000
 8000b20:	6463      	str	r3, [r4, #68]	; 0x44
 8000b22:	6c63      	ldr	r3, [r4, #68]	; 0x44
 8000b24:	f403 4380 	and.w	r3, r3, #16384	; 0x4000
 8000b28:	9303      	str	r3, [sp, #12]
 8000b2a:	9b03      	ldr	r3, [sp, #12]
 8000b2c:	b02b      	add	sp, #172	; 0xac
 8000b2e:	bd30      	pop	{r4, r5, pc}
 8000b30:	40023800 	.word	0x40023800
 8000b34:	40020000 	.word	0x40020000

08000b38 <NMI_Handler>:
 8000b38:	e7fe      	b.n	8000b38 <NMI_Handler>

08000b3a <HardFault_Handler>:
 8000b3a:	e7fe      	b.n	8000b3a <HardFault_Handler>

08000b3c <MemManage_Handler>:
 8000b3c:	e7fe      	b.n	8000b3c <MemManage_Handler>

08000b3e <BusFault_Handler>:
 8000b3e:	e7fe      	b.n	8000b3e <BusFault_Handler>

08000b40 <UsageFault_Handler>:
 8000b40:	e7fe      	b.n	8000b40 <UsageFault_Handler>

08000b42 <SVC_Handler>:
 8000b42:	4770      	bx	lr

08000b44 <DebugMon_Handler>:
 8000b44:	4770      	bx	lr

08000b46 <PendSV_Handler>:
 8000b46:	4770      	bx	lr

08000b48 <SysTick_Handler>:
 8000b48:	f000 b986 	b.w	8000e58 <HAL_IncTick>

08000b4c <RTC_Alarm_IRQHandler>:
 8000b4c:	4801      	ldr	r0, [pc, #4]	; (8000b54 <RTC_Alarm_IRQHandler+0x8>)
 8000b4e:	f001 bdb1 	b.w	80026b4 <HAL_RTC_AlarmIRQHandler>
 8000b52:	bf00      	nop
 8000b54:	2000074c 	.word	0x2000074c

08000b58 <_getpid>:
 8000b58:	2001      	movs	r0, #1
 8000b5a:	4770      	bx	lr

08000b5c <_kill>:
 8000b5c:	4b02      	ldr	r3, [pc, #8]	; (8000b68 <_kill+0xc>)
 8000b5e:	2216      	movs	r2, #22
 8000b60:	f04f 30ff 	mov.w	r0, #4294967295
 8000b64:	601a      	str	r2, [r3, #0]
 8000b66:	4770      	bx	lr
 8000b68:	2000ace4 	.word	0x2000ace4

08000b6c <_exit>:
 8000b6c:	4b01      	ldr	r3, [pc, #4]	; (8000b74 <_exit+0x8>)
 8000b6e:	2216      	movs	r2, #22
 8000b70:	601a      	str	r2, [r3, #0]
 8000b72:	e7fe      	b.n	8000b72 <_exit+0x6>
 8000b74:	2000ace4 	.word	0x2000ace4

08000b78 <_read>:
 8000b78:	b570      	push	{r4, r5, r6, lr}
 8000b7a:	460d      	mov	r5, r1
 8000b7c:	4614      	mov	r4, r2
 8000b7e:	460e      	mov	r6, r1
 8000b80:	1b73      	subs	r3, r6, r5
 8000b82:	429c      	cmp	r4, r3
 8000b84:	dc01      	bgt.n	8000b8a <_read+0x12>
 8000b86:	4620      	mov	r0, r4
 8000b88:	bd70      	pop	{r4, r5, r6, pc}
 8000b8a:	f3af 8000 	nop.w
 8000b8e:	f806 0b01 	strb.w	r0, [r6], #1
 8000b92:	e7f5      	b.n	8000b80 <_read+0x8>

08000b94 <_write>:
 8000b94:	b570      	push	{r4, r5, r6, lr}
 8000b96:	460d      	mov	r5, r1
 8000b98:	4614      	mov	r4, r2
 8000b9a:	460e      	mov	r6, r1
 8000b9c:	1b73      	subs	r3, r6, r5
 8000b9e:	429c      	cmp	r4, r3
 8000ba0:	dc01      	bgt.n	8000ba6 <_write+0x12>
 8000ba2:	4620      	mov	r0, r4
 8000ba4:	bd70      	pop	{r4, r5, r6, pc}
 8000ba6:	f816 0b01 	ldrb.w	r0, [r6], #1
 8000baa:	f3af 8000 	nop.w
 8000bae:	e7f5      	b.n	8000b9c <_write+0x8>

08000bb0 <_close>:
 8000bb0:	f04f 30ff 	mov.w	r0, #4294967295
 8000bb4:	4770      	bx	lr

08000bb6 <_fstat>:
 8000bb6:	f44f 5300 	mov.w	r3, #8192	; 0x2000
 8000bba:	2000      	movs	r0, #0
 8000bbc:	604b      	str	r3, [r1, #4]
 8000bbe:	4770      	bx	lr

08000bc0 <_isatty>:
 8000bc0:	2001      	movs	r0, #1
 8000bc2:	4770      	bx	lr

08000bc4 <_lseek>:
 8000bc4:	2000      	movs	r0, #0
 8000bc6:	4770      	bx	lr

08000bc8 <_sbrk>:
 8000bc8:	4a0a      	ldr	r2, [pc, #40]	; (8000bf4 <_sbrk+0x2c>)
 8000bca:	4603      	mov	r3, r0
 8000bcc:	6811      	ldr	r1, [r2, #0]
 8000bce:	b510      	push	{r4, lr}
 8000bd0:	b909      	cbnz	r1, 8000bd6 <_sbrk+0xe>
 8000bd2:	4909      	ldr	r1, [pc, #36]	; (8000bf8 <_sbrk+0x30>)
 8000bd4:	6011      	str	r1, [r2, #0]
 8000bd6:	6810      	ldr	r0, [r2, #0]
 8000bd8:	4c08      	ldr	r4, [pc, #32]	; (8000bfc <_sbrk+0x34>)
 8000bda:	4909      	ldr	r1, [pc, #36]	; (8000c00 <_sbrk+0x38>)
 8000bdc:	4403      	add	r3, r0
 8000bde:	1b09      	subs	r1, r1, r4
 8000be0:	428b      	cmp	r3, r1
 8000be2:	bf83      	ittte	hi
 8000be4:	4b07      	ldrhi	r3, [pc, #28]	; (8000c04 <_sbrk+0x3c>)
 8000be6:	220c      	movhi	r2, #12
 8000be8:	f04f 30ff 	movhi.w	r0, #4294967295
 8000bec:	6013      	strls	r3, [r2, #0]
 8000bee:	bf88      	it	hi
 8000bf0:	601a      	strhi	r2, [r3, #0]
 8000bf2:	bd10      	pop	{r4, pc}
 8000bf4:	200007f8 	.word	0x200007f8
 8000bf8:	2000acf8 	.word	0x2000acf8
 8000bfc:	00000400 	.word	0x00000400
 8000c00:	20050000 	.word	0x20050000
 8000c04:	2000ace4 	.word	0x2000ace4

08000c08 <SystemInit>:
 8000c08:	4a03      	ldr	r2, [pc, #12]	; (8000c18 <SystemInit+0x10>)
 8000c0a:	f8d2 3088 	ldr.w	r3, [r2, #136]	; 0x88
 8000c0e:	f443 0370 	orr.w	r3, r3, #15728640	; 0xf00000
 8000c12:	f8c2 3088 	str.w	r3, [r2, #136]	; 0x88
 8000c16:	4770      	bx	lr
 8000c18:	e000ed00 	.word	0xe000ed00

08000c1c <Reset_Handler>:
 8000c1c:	f8df d034 	ldr.w	sp, [pc, #52]	; 8000c54 <LoopFillZerobss+0x12>
 8000c20:	480d      	ldr	r0, [pc, #52]	; (8000c58 <LoopFillZerobss+0x16>)
 8000c22:	490e      	ldr	r1, [pc, #56]	; (8000c5c <LoopFillZerobss+0x1a>)
 8000c24:	4a0e      	ldr	r2, [pc, #56]	; (8000c60 <LoopFillZerobss+0x1e>)
 8000c26:	2300      	movs	r3, #0
 8000c28:	e002      	b.n	8000c30 <LoopCopyDataInit>

08000c2a <CopyDataInit>:
 8000c2a:	58d4      	ldr	r4, [r2, r3]
 8000c2c:	50c4      	str	r4, [r0, r3]
 8000c2e:	3304      	adds	r3, #4

08000c30 <LoopCopyDataInit>:
 8000c30:	18c4      	adds	r4, r0, r3
 8000c32:	428c      	cmp	r4, r1
 8000c34:	d3f9      	bcc.n	8000c2a <CopyDataInit>
 8000c36:	4a0b      	ldr	r2, [pc, #44]	; (8000c64 <LoopFillZerobss+0x22>)
 8000c38:	4c0b      	ldr	r4, [pc, #44]	; (8000c68 <LoopFillZerobss+0x26>)
 8000c3a:	2300      	movs	r3, #0
 8000c3c:	e001      	b.n	8000c42 <LoopFillZerobss>

08000c3e <FillZerobss>:
 8000c3e:	6013      	str	r3, [r2, #0]
 8000c40:	3204      	adds	r2, #4

08000c42 <LoopFillZerobss>:
 8000c42:	42a2      	cmp	r2, r4
 8000c44:	d3fb      	bcc.n	8000c3e <FillZerobss>
 8000c46:	f7ff ffdf 	bl	8000c08 <SystemInit>
 8000c4a:	f009 fd53 	bl	800a6f4 <__libc_init_array>
 8000c4e:	f7ff fd15 	bl	800067c <main>
 8000c52:	4770      	bx	lr
 8000c54:	20050000 	.word	0x20050000
 8000c58:	20000000 	.word	0x20000000
 8000c5c:	200000e8 	.word	0x200000e8
 8000c60:	0800de5c 	.word	0x0800de5c
 8000c64:	20000228 	.word	0x20000228
 8000c68:	2000acf4 	.word	0x2000acf4

08000c6c <ADC_IRQHandler>:
 8000c6c:	e7fe      	b.n	8000c6c <ADC_IRQHandler>

08000c6e <LAN8742_RegisterBusIO>:
 8000c6e:	b530      	push	{r4, r5, lr}
 8000c70:	b170      	cbz	r0, 8000c90 <LAN8742_RegisterBusIO+0x22>
 8000c72:	68cc      	ldr	r4, [r1, #12]
 8000c74:	b164      	cbz	r4, 8000c90 <LAN8742_RegisterBusIO+0x22>
 8000c76:	688a      	ldr	r2, [r1, #8]
 8000c78:	b152      	cbz	r2, 8000c90 <LAN8742_RegisterBusIO+0x22>
 8000c7a:	690b      	ldr	r3, [r1, #16]
 8000c7c:	b143      	cbz	r3, 8000c90 <LAN8742_RegisterBusIO+0x22>
 8000c7e:	680d      	ldr	r5, [r1, #0]
 8000c80:	6849      	ldr	r1, [r1, #4]
 8000c82:	6085      	str	r5, [r0, #8]
 8000c84:	60c1      	str	r1, [r0, #12]
 8000c86:	6183      	str	r3, [r0, #24]
 8000c88:	e9c0 2404 	strd	r2, r4, [r0, #16]
 8000c8c:	2000      	movs	r0, #0
 8000c8e:	bd30      	pop	{r4, r5, pc}
 8000c90:	f04f 30ff 	mov.w	r0, #4294967295
 8000c94:	e7fb      	b.n	8000c8e <LAN8742_RegisterBusIO+0x20>

08000c96 <LAN8742_Init>:
 8000c96:	b573      	push	{r0, r1, r4, r5, r6, lr}
 8000c98:	2300      	movs	r3, #0
 8000c9a:	6846      	ldr	r6, [r0, #4]
 8000c9c:	4604      	mov	r4, r0
 8000c9e:	9301      	str	r3, [sp, #4]
 8000ca0:	b166      	cbz	r6, 8000cbc <LAN8742_Init+0x26>
 8000ca2:	69a3      	ldr	r3, [r4, #24]
 8000ca4:	4798      	blx	r3
 8000ca6:	4605      	mov	r5, r0
 8000ca8:	69a3      	ldr	r3, [r4, #24]
 8000caa:	4798      	blx	r3
 8000cac:	1b43      	subs	r3, r0, r5
 8000cae:	f5b3 6ffa 	cmp.w	r3, #2000	; 0x7d0
 8000cb2:	d9f9      	bls.n	8000ca8 <LAN8742_Init+0x12>
 8000cb4:	2301      	movs	r3, #1
 8000cb6:	2500      	movs	r5, #0
 8000cb8:	6063      	str	r3, [r4, #4]
 8000cba:	e027      	b.n	8000d0c <LAN8742_Init+0x76>
 8000cbc:	6883      	ldr	r3, [r0, #8]
 8000cbe:	b103      	cbz	r3, 8000cc2 <LAN8742_Init+0x2c>
 8000cc0:	4798      	blx	r3
 8000cc2:	2320      	movs	r3, #32
 8000cc4:	2500      	movs	r5, #0
 8000cc6:	6023      	str	r3, [r4, #0]
 8000cc8:	6963      	ldr	r3, [r4, #20]
 8000cca:	aa01      	add	r2, sp, #4
 8000ccc:	2112      	movs	r1, #18
 8000cce:	4630      	mov	r0, r6
 8000cd0:	4798      	blx	r3
 8000cd2:	2800      	cmp	r0, #0
 8000cd4:	db1d      	blt.n	8000d12 <LAN8742_Init+0x7c>
 8000cd6:	9b01      	ldr	r3, [sp, #4]
 8000cd8:	f003 031f 	and.w	r3, r3, #31
 8000cdc:	42b3      	cmp	r3, r6
 8000cde:	d11a      	bne.n	8000d16 <LAN8742_Init+0x80>
 8000ce0:	2500      	movs	r5, #0
 8000ce2:	6026      	str	r6, [r4, #0]
 8000ce4:	6820      	ldr	r0, [r4, #0]
 8000ce6:	281f      	cmp	r0, #31
 8000ce8:	d82d      	bhi.n	8000d46 <LAN8742_Init+0xb0>
 8000cea:	b97d      	cbnz	r5, 8000d0c <LAN8742_Init+0x76>
 8000cec:	6923      	ldr	r3, [r4, #16]
 8000cee:	f44f 4200 	mov.w	r2, #32768	; 0x8000
 8000cf2:	4629      	mov	r1, r5
 8000cf4:	4798      	blx	r3
 8000cf6:	2800      	cmp	r0, #0
 8000cf8:	db28      	blt.n	8000d4c <LAN8742_Init+0xb6>
 8000cfa:	6963      	ldr	r3, [r4, #20]
 8000cfc:	aa01      	add	r2, sp, #4
 8000cfe:	4629      	mov	r1, r5
 8000d00:	6820      	ldr	r0, [r4, #0]
 8000d02:	4798      	blx	r3
 8000d04:	2800      	cmp	r0, #0
 8000d06:	da0a      	bge.n	8000d1e <LAN8742_Init+0x88>
 8000d08:	f06f 0504 	mvn.w	r5, #4
 8000d0c:	4628      	mov	r0, r5
 8000d0e:	b002      	add	sp, #8
 8000d10:	bd70      	pop	{r4, r5, r6, pc}
 8000d12:	f06f 0504 	mvn.w	r5, #4
 8000d16:	3601      	adds	r6, #1
 8000d18:	2e20      	cmp	r6, #32
 8000d1a:	d1d5      	bne.n	8000cc8 <LAN8742_Init+0x32>
 8000d1c:	e7e2      	b.n	8000ce4 <LAN8742_Init+0x4e>
 8000d1e:	69a3      	ldr	r3, [r4, #24]
 8000d20:	4798      	blx	r3
 8000d22:	4605      	mov	r5, r0
 8000d24:	9b01      	ldr	r3, [sp, #4]
 8000d26:	69a2      	ldr	r2, [r4, #24]
 8000d28:	041b      	lsls	r3, r3, #16
 8000d2a:	d5ba      	bpl.n	8000ca2 <LAN8742_Init+0xc>
 8000d2c:	4790      	blx	r2
 8000d2e:	1b40      	subs	r0, r0, r5
 8000d30:	f5b0 7ffa 	cmp.w	r0, #500	; 0x1f4
 8000d34:	d80d      	bhi.n	8000d52 <LAN8742_Init+0xbc>
 8000d36:	6963      	ldr	r3, [r4, #20]
 8000d38:	aa01      	add	r2, sp, #4
 8000d3a:	2100      	movs	r1, #0
 8000d3c:	6820      	ldr	r0, [r4, #0]
 8000d3e:	4798      	blx	r3
 8000d40:	2800      	cmp	r0, #0
 8000d42:	daef      	bge.n	8000d24 <LAN8742_Init+0x8e>
 8000d44:	e7e0      	b.n	8000d08 <LAN8742_Init+0x72>
 8000d46:	f06f 0502 	mvn.w	r5, #2
 8000d4a:	e7df      	b.n	8000d0c <LAN8742_Init+0x76>
 8000d4c:	f06f 0503 	mvn.w	r5, #3
 8000d50:	e7dc      	b.n	8000d0c <LAN8742_Init+0x76>
 8000d52:	f06f 0501 	mvn.w	r5, #1
 8000d56:	e7d9      	b.n	8000d0c <LAN8742_Init+0x76>

08000d58 <LAN8742_GetLinkState>:
 8000d58:	b537      	push	{r0, r1, r2, r4, r5, lr}
 8000d5a:	2500      	movs	r5, #0
 8000d5c:	6943      	ldr	r3, [r0, #20]
 8000d5e:	4604      	mov	r4, r0
 8000d60:	aa01      	add	r2, sp, #4
 8000d62:	2101      	movs	r1, #1
 8000d64:	6800      	ldr	r0, [r0, #0]
 8000d66:	9501      	str	r5, [sp, #4]
 8000d68:	4798      	blx	r3
 8000d6a:	42a8      	cmp	r0, r5
 8000d6c:	da03      	bge.n	8000d76 <LAN8742_GetLinkState+0x1e>
 8000d6e:	f06f 0004 	mvn.w	r0, #4
 8000d72:	b003      	add	sp, #12
 8000d74:	bd30      	pop	{r4, r5, pc}
 8000d76:	6963      	ldr	r3, [r4, #20]
 8000d78:	aa01      	add	r2, sp, #4
 8000d7a:	2101      	movs	r1, #1
 8000d7c:	6820      	ldr	r0, [r4, #0]
 8000d7e:	4798      	blx	r3
 8000d80:	2800      	cmp	r0, #0
 8000d82:	dbf4      	blt.n	8000d6e <LAN8742_GetLinkState+0x16>
 8000d84:	9b01      	ldr	r3, [sp, #4]
 8000d86:	075b      	lsls	r3, r3, #29
 8000d88:	d52c      	bpl.n	8000de4 <LAN8742_GetLinkState+0x8c>
 8000d8a:	6963      	ldr	r3, [r4, #20]
 8000d8c:	aa01      	add	r2, sp, #4
 8000d8e:	4629      	mov	r1, r5
 8000d90:	6820      	ldr	r0, [r4, #0]
 8000d92:	4798      	blx	r3
 8000d94:	2800      	cmp	r0, #0
 8000d96:	dbea      	blt.n	8000d6e <LAN8742_GetLinkState+0x16>
 8000d98:	9b01      	ldr	r3, [sp, #4]
 8000d9a:	04dd      	lsls	r5, r3, #19
 8000d9c:	d40e      	bmi.n	8000dbc <LAN8742_GetLinkState+0x64>
 8000d9e:	f403 5204 	and.w	r2, r3, #8448	; 0x2100
 8000da2:	f5b2 5f04 	cmp.w	r2, #8448	; 0x2100
 8000da6:	d101      	bne.n	8000dac <LAN8742_GetLinkState+0x54>
 8000da8:	2002      	movs	r0, #2
 8000daa:	e7e2      	b.n	8000d72 <LAN8742_GetLinkState+0x1a>
 8000dac:	0498      	lsls	r0, r3, #18
 8000dae:	d501      	bpl.n	8000db4 <LAN8742_GetLinkState+0x5c>
 8000db0:	2003      	movs	r0, #3
 8000db2:	e7de      	b.n	8000d72 <LAN8742_GetLinkState+0x1a>
 8000db4:	05d9      	lsls	r1, r3, #23
 8000db6:	d513      	bpl.n	8000de0 <LAN8742_GetLinkState+0x88>
 8000db8:	2004      	movs	r0, #4
 8000dba:	e7da      	b.n	8000d72 <LAN8742_GetLinkState+0x1a>
 8000dbc:	6963      	ldr	r3, [r4, #20]
 8000dbe:	aa01      	add	r2, sp, #4
 8000dc0:	211f      	movs	r1, #31
 8000dc2:	6820      	ldr	r0, [r4, #0]
 8000dc4:	4798      	blx	r3
 8000dc6:	2800      	cmp	r0, #0
 8000dc8:	dbd1      	blt.n	8000d6e <LAN8742_GetLinkState+0x16>
 8000dca:	9b01      	ldr	r3, [sp, #4]
 8000dcc:	04da      	lsls	r2, r3, #19
 8000dce:	d50b      	bpl.n	8000de8 <LAN8742_GetLinkState+0x90>
 8000dd0:	f003 031c 	and.w	r3, r3, #28
 8000dd4:	2b18      	cmp	r3, #24
 8000dd6:	d0e7      	beq.n	8000da8 <LAN8742_GetLinkState+0x50>
 8000dd8:	2b08      	cmp	r3, #8
 8000dda:	d0e9      	beq.n	8000db0 <LAN8742_GetLinkState+0x58>
 8000ddc:	2b14      	cmp	r3, #20
 8000dde:	d0eb      	beq.n	8000db8 <LAN8742_GetLinkState+0x60>
 8000de0:	2005      	movs	r0, #5
 8000de2:	e7c6      	b.n	8000d72 <LAN8742_GetLinkState+0x1a>
 8000de4:	2001      	movs	r0, #1
 8000de6:	e7c4      	b.n	8000d72 <LAN8742_GetLinkState+0x1a>
 8000de8:	2006      	movs	r0, #6
 8000dea:	e7c2      	b.n	8000d72 <LAN8742_GetLinkState+0x1a>

08000dec <HAL_InitTick>:
 8000dec:	b538      	push	{r3, r4, r5, lr}
 8000dee:	4b0e      	ldr	r3, [pc, #56]	; (8000e28 <HAL_InitTick+0x3c>)
 8000df0:	4605      	mov	r5, r0
 8000df2:	781a      	ldrb	r2, [r3, #0]
 8000df4:	f44f 737a 	mov.w	r3, #1000	; 0x3e8
 8000df8:	fbb3 f3f2 	udiv	r3, r3, r2
 8000dfc:	4a0b      	ldr	r2, [pc, #44]	; (8000e2c <HAL_InitTick+0x40>)
 8000dfe:	6810      	ldr	r0, [r2, #0]
 8000e00:	fbb0 f0f3 	udiv	r0, r0, r3
 8000e04:	f000 f89e 	bl	8000f44 <HAL_SYSTICK_Config>
 8000e08:	4604      	mov	r4, r0
 8000e0a:	b958      	cbnz	r0, 8000e24 <HAL_InitTick+0x38>
 8000e0c:	2d0f      	cmp	r5, #15
 8000e0e:	d809      	bhi.n	8000e24 <HAL_InitTick+0x38>
 8000e10:	4602      	mov	r2, r0
 8000e12:	4629      	mov	r1, r5
 8000e14:	f04f 30ff 	mov.w	r0, #4294967295
 8000e18:	f000 f854 	bl	8000ec4 <HAL_NVIC_SetPriority>
 8000e1c:	4b04      	ldr	r3, [pc, #16]	; (8000e30 <HAL_InitTick+0x44>)
 8000e1e:	4620      	mov	r0, r4
 8000e20:	601d      	str	r5, [r3, #0]
 8000e22:	bd38      	pop	{r3, r4, r5, pc}
 8000e24:	2001      	movs	r0, #1
 8000e26:	e7fc      	b.n	8000e22 <HAL_InitTick+0x36>
 8000e28:	20000008 	.word	0x20000008
 8000e2c:	20000004 	.word	0x20000004
 8000e30:	2000000c 	.word	0x2000000c

08000e34 <HAL_Init>:
 8000e34:	4a07      	ldr	r2, [pc, #28]	; (8000e54 <HAL_Init+0x20>)
 8000e36:	2003      	movs	r0, #3
 8000e38:	b508      	push	{r3, lr}
 8000e3a:	6813      	ldr	r3, [r2, #0]
 8000e3c:	f443 7380 	orr.w	r3, r3, #256	; 0x100
 8000e40:	6013      	str	r3, [r2, #0]
 8000e42:	f000 f82d 	bl	8000ea0 <HAL_NVIC_SetPriorityGrouping>
 8000e46:	2000      	movs	r0, #0
 8000e48:	f7ff ffd0 	bl	8000dec <HAL_InitTick>
 8000e4c:	f7ff fd9a 	bl	8000984 <HAL_MspInit>
 8000e50:	2000      	movs	r0, #0
 8000e52:	bd08      	pop	{r3, pc}
 8000e54:	40023c00 	.word	0x40023c00

08000e58 <HAL_IncTick>:
 8000e58:	4a03      	ldr	r2, [pc, #12]	; (8000e68 <HAL_IncTick+0x10>)
 8000e5a:	4b04      	ldr	r3, [pc, #16]	; (8000e6c <HAL_IncTick+0x14>)
 8000e5c:	6811      	ldr	r1, [r2, #0]
 8000e5e:	781b      	ldrb	r3, [r3, #0]
 8000e60:	440b      	add	r3, r1
 8000e62:	6013      	str	r3, [r2, #0]
 8000e64:	4770      	bx	lr
 8000e66:	bf00      	nop
 8000e68:	200007fc 	.word	0x200007fc
 8000e6c:	20000008 	.word	0x20000008

08000e70 <HAL_GetTick>:
 8000e70:	4b01      	ldr	r3, [pc, #4]	; (8000e78 <HAL_GetTick+0x8>)
 8000e72:	6818      	ldr	r0, [r3, #0]
 8000e74:	4770      	bx	lr
 8000e76:	bf00      	nop
 8000e78:	200007fc 	.word	0x200007fc

08000e7c <HAL_Delay>:
 8000e7c:	b538      	push	{r3, r4, r5, lr}
 8000e7e:	4604      	mov	r4, r0
 8000e80:	f7ff fff6 	bl	8000e70 <HAL_GetTick>
 8000e84:	4605      	mov	r5, r0
 8000e86:	1c63      	adds	r3, r4, #1
 8000e88:	bf1e      	ittt	ne
 8000e8a:	4b04      	ldrne	r3, [pc, #16]	; (8000e9c <HAL_Delay+0x20>)
 8000e8c:	781b      	ldrbne	r3, [r3, #0]
 8000e8e:	18e4      	addne	r4, r4, r3
 8000e90:	f7ff ffee 	bl	8000e70 <HAL_GetTick>
 8000e94:	1b43      	subs	r3, r0, r5
 8000e96:	42a3      	cmp	r3, r4
 8000e98:	d3fa      	bcc.n	8000e90 <HAL_Delay+0x14>
 8000e9a:	bd38      	pop	{r3, r4, r5, pc}
 8000e9c:	20000008 	.word	0x20000008

08000ea0 <HAL_NVIC_SetPriorityGrouping>:
 8000ea0:	4907      	ldr	r1, [pc, #28]	; (8000ec0 <HAL_NVIC_SetPriorityGrouping+0x20>)
 8000ea2:	0203      	lsls	r3, r0, #8
 8000ea4:	68ca      	ldr	r2, [r1, #12]
 8000ea6:	f403 63e0 	and.w	r3, r3, #1792	; 0x700
 8000eaa:	f422 62e0 	bic.w	r2, r2, #1792	; 0x700
 8000eae:	0412      	lsls	r2, r2, #16
 8000eb0:	0c12      	lsrs	r2, r2, #16
 8000eb2:	4313      	orrs	r3, r2
 8000eb4:	f043 63bf 	orr.w	r3, r3, #100139008	; 0x5f80000
 8000eb8:	f443 3300 	orr.w	r3, r3, #131072	; 0x20000
 8000ebc:	60cb      	str	r3, [r1, #12]
 8000ebe:	4770      	bx	lr
 8000ec0:	e000ed00 	.word	0xe000ed00

08000ec4 <HAL_NVIC_SetPriority>:
 8000ec4:	4b16      	ldr	r3, [pc, #88]	; (8000f20 <HAL_NVIC_SetPriority+0x5c>)
 8000ec6:	b530      	push	{r4, r5, lr}
 8000ec8:	68dc      	ldr	r4, [r3, #12]
 8000eca:	f3c4 2402 	ubfx	r4, r4, #8, #3
 8000ece:	f1c4 0307 	rsb	r3, r4, #7
 8000ed2:	1d25      	adds	r5, r4, #4
 8000ed4:	2b04      	cmp	r3, #4
 8000ed6:	bf28      	it	cs
 8000ed8:	2304      	movcs	r3, #4
 8000eda:	2d06      	cmp	r5, #6
 8000edc:	f04f 35ff 	mov.w	r5, #4294967295
 8000ee0:	bf8c      	ite	hi
 8000ee2:	3c03      	subhi	r4, #3
 8000ee4:	2400      	movls	r4, #0
 8000ee6:	fa05 f303 	lsl.w	r3, r5, r3
 8000eea:	2800      	cmp	r0, #0
 8000eec:	fa05 f504 	lsl.w	r5, r5, r4
 8000ef0:	ea21 0303 	bic.w	r3, r1, r3
 8000ef4:	ea22 0205 	bic.w	r2, r2, r5
 8000ef8:	fa03 f304 	lsl.w	r3, r3, r4
 8000efc:	ea43 0302 	orr.w	r3, r3, r2
 8000f00:	ea4f 1303 	mov.w	r3, r3, lsl #4
 8000f04:	b2db      	uxtb	r3, r3
 8000f06:	db06      	blt.n	8000f16 <HAL_NVIC_SetPriority+0x52>
 8000f08:	f100 4060 	add.w	r0, r0, #3758096384	; 0xe0000000
 8000f0c:	f500 4061 	add.w	r0, r0, #57600	; 0xe100
 8000f10:	f880 3300 	strb.w	r3, [r0, #768]	; 0x300
 8000f14:	bd30      	pop	{r4, r5, pc}
 8000f16:	f000 000f 	and.w	r0, r0, #15
 8000f1a:	4a02      	ldr	r2, [pc, #8]	; (8000f24 <HAL_NVIC_SetPriority+0x60>)
 8000f1c:	5413      	strb	r3, [r2, r0]
 8000f1e:	e7f9      	b.n	8000f14 <HAL_NVIC_SetPriority+0x50>
 8000f20:	e000ed00 	.word	0xe000ed00
 8000f24:	e000ed14 	.word	0xe000ed14

08000f28 <HAL_NVIC_EnableIRQ>:
 8000f28:	2800      	cmp	r0, #0
 8000f2a:	db07      	blt.n	8000f3c <HAL_NVIC_EnableIRQ+0x14>
 8000f2c:	0941      	lsrs	r1, r0, #5
 8000f2e:	2301      	movs	r3, #1
 8000f30:	f000 001f 	and.w	r0, r0, #31
 8000f34:	4a02      	ldr	r2, [pc, #8]	; (8000f40 <HAL_NVIC_EnableIRQ+0x18>)
 8000f36:	4083      	lsls	r3, r0
 8000f38:	f842 3021 	str.w	r3, [r2, r1, lsl #2]
 8000f3c:	4770      	bx	lr
 8000f3e:	bf00      	nop
 8000f40:	e000e100 	.word	0xe000e100

08000f44 <HAL_SYSTICK_Config>:
 8000f44:	3801      	subs	r0, #1
 8000f46:	f1b0 7f80 	cmp.w	r0, #16777216	; 0x1000000
 8000f4a:	d20b      	bcs.n	8000f64 <HAL_SYSTICK_Config+0x20>
 8000f4c:	f04f 23e0 	mov.w	r3, #3758153728	; 0xe000e000
 8000f50:	4a05      	ldr	r2, [pc, #20]	; (8000f68 <HAL_SYSTICK_Config+0x24>)
 8000f52:	21f0      	movs	r1, #240	; 0xf0
 8000f54:	6158      	str	r0, [r3, #20]
 8000f56:	2000      	movs	r0, #0
 8000f58:	f882 1023 	strb.w	r1, [r2, #35]	; 0x23
 8000f5c:	2207      	movs	r2, #7
 8000f5e:	6198      	str	r0, [r3, #24]
 8000f60:	611a      	str	r2, [r3, #16]
 8000f62:	4770      	bx	lr
 8000f64:	2001      	movs	r0, #1
 8000f66:	4770      	bx	lr
 8000f68:	e000ed00 	.word	0xe000ed00

08000f6c <ETH_Prepare_Tx_Descriptors>:
 8000f6c:	e92d 43f0 	stmdb	sp!, {r4, r5, r6, r7, r8, r9, lr}
 8000f70:	6a86      	ldr	r6, [r0, #40]	; 0x28
 8000f72:	4691      	mov	r9, r2
 8000f74:	688c      	ldr	r4, [r1, #8]
 8000f76:	eb00 0c86 	add.w	ip, r0, r6, lsl #2
 8000f7a:	f8dc 3018 	ldr.w	r3, [ip, #24]
 8000f7e:	681d      	ldr	r5, [r3, #0]
 8000f80:	2d00      	cmp	r5, #0
 8000f82:	da02      	bge.n	8000f8a <ETH_Prepare_Tx_Descriptors+0x1e>
 8000f84:	2002      	movs	r0, #2
 8000f86:	e8bd 83f0 	ldmia.w	sp!, {r4, r5, r6, r7, r8, r9, pc}
 8000f8a:	f8dc 502c 	ldr.w	r5, [ip, #44]	; 0x2c
 8000f8e:	2d00      	cmp	r5, #0
 8000f90:	d1f8      	bne.n	8000f84 <ETH_Prepare_Tx_Descriptors+0x18>
 8000f92:	6825      	ldr	r5, [r4, #0]
 8000f94:	6867      	ldr	r7, [r4, #4]
 8000f96:	609d      	str	r5, [r3, #8]
 8000f98:	685d      	ldr	r5, [r3, #4]
 8000f9a:	f425 55ff 	bic.w	r5, r5, #8160	; 0x1fe0
 8000f9e:	f025 051f 	bic.w	r5, r5, #31
 8000fa2:	433d      	orrs	r5, r7
 8000fa4:	680f      	ldr	r7, [r1, #0]
 8000fa6:	07fa      	lsls	r2, r7, #31
 8000fa8:	605d      	str	r5, [r3, #4]
 8000faa:	d505      	bpl.n	8000fb8 <ETH_Prepare_Tx_Descriptors+0x4c>
 8000fac:	681d      	ldr	r5, [r3, #0]
 8000fae:	694a      	ldr	r2, [r1, #20]
 8000fb0:	f425 0540 	bic.w	r5, r5, #12582912	; 0xc00000
 8000fb4:	4315      	orrs	r5, r2
 8000fb6:	601d      	str	r5, [r3, #0]
 8000fb8:	06bd      	lsls	r5, r7, #26
 8000fba:	d505      	bpl.n	8000fc8 <ETH_Prepare_Tx_Descriptors+0x5c>
 8000fbc:	681d      	ldr	r5, [r3, #0]
 8000fbe:	6909      	ldr	r1, [r1, #16]
 8000fc0:	f025 6540 	bic.w	r5, r5, #201326592	; 0xc000000
 8000fc4:	4329      	orrs	r1, r5
 8000fc6:	6019      	str	r1, [r3, #0]
 8000fc8:	077a      	lsls	r2, r7, #29
 8000fca:	d503      	bpl.n	8000fd4 <ETH_Prepare_Tx_Descriptors+0x68>
 8000fcc:	6819      	ldr	r1, [r3, #0]
 8000fce:	f041 0180 	orr.w	r1, r1, #128	; 0x80
 8000fd2:	6019      	str	r1, [r3, #0]
 8000fd4:	6819      	ldr	r1, [r3, #0]
 8000fd6:	f041 5180 	orr.w	r1, r1, #268435456	; 0x10000000
 8000fda:	6019      	str	r1, [r3, #0]
 8000fdc:	f3bf 8f5f 	dmb	sy
 8000fe0:	6819      	ldr	r1, [r3, #0]
 8000fe2:	2500      	movs	r5, #0
 8000fe4:	f8df 80d0 	ldr.w	r8, [pc, #208]	; 80010b8 <ETH_Prepare_Tx_Descriptors+0x14c>
 8000fe8:	f041 4100 	orr.w	r1, r1, #2147483648	; 0x80000000
 8000fec:	6019      	str	r1, [r3, #0]
 8000fee:	4631      	mov	r1, r6
 8000ff0:	68a4      	ldr	r4, [r4, #8]
 8000ff2:	f105 0e01 	add.w	lr, r5, #1
 8000ff6:	b9bc      	cbnz	r4, 8001028 <ETH_Prepare_Tx_Descriptors+0xbc>
 8000ff8:	681a      	ldr	r2, [r3, #0]
 8000ffa:	f1b9 0f00 	cmp.w	r9, #0
 8000ffe:	d058      	beq.n	80010b2 <ETH_Prepare_Tx_Descriptors+0x146>
 8001000:	f042 4280 	orr.w	r2, r2, #1073741824	; 0x40000000
 8001004:	601a      	str	r2, [r3, #0]
 8001006:	681a      	ldr	r2, [r3, #0]
 8001008:	f042 5200 	orr.w	r2, r2, #536870912	; 0x20000000
 800100c:	601a      	str	r2, [r3, #0]
 800100e:	eb00 0381 	add.w	r3, r0, r1, lsl #2
 8001012:	6bc2      	ldr	r2, [r0, #60]	; 0x3c
 8001014:	62da      	str	r2, [r3, #44]	; 0x2c
 8001016:	6281      	str	r1, [r0, #40]	; 0x28
 8001018:	b672      	cpsid	i
 800101a:	6c03      	ldr	r3, [r0, #64]	; 0x40
 800101c:	3301      	adds	r3, #1
 800101e:	442b      	add	r3, r5
 8001020:	6403      	str	r3, [r0, #64]	; 0x40
 8001022:	b662      	cpsie	i
 8001024:	2000      	movs	r0, #0
 8001026:	e7ae      	b.n	8000f86 <ETH_Prepare_Tx_Descriptors+0x1a>
 8001028:	681d      	ldr	r5, [r3, #0]
 800102a:	f025 5500 	bic.w	r5, r5, #536870912	; 0x20000000
 800102e:	601d      	str	r5, [r3, #0]
 8001030:	681d      	ldr	r5, [r3, #0]
 8001032:	f1b9 0f00 	cmp.w	r9, #0
 8001036:	d025      	beq.n	8001084 <ETH_Prepare_Tx_Descriptors+0x118>
 8001038:	f045 4580 	orr.w	r5, r5, #1073741824	; 0x40000000
 800103c:	1c4f      	adds	r7, r1, #1
 800103e:	601d      	str	r5, [r3, #0]
 8001040:	2f03      	cmp	r7, #3
 8001042:	bf88      	it	hi
 8001044:	1ecf      	subhi	r7, r1, #3
 8001046:	eb00 0587 	add.w	r5, r0, r7, lsl #2
 800104a:	69ab      	ldr	r3, [r5, #24]
 800104c:	6819      	ldr	r1, [r3, #0]
 800104e:	f021 5180 	bic.w	r1, r1, #268435456	; 0x10000000
 8001052:	6019      	str	r1, [r3, #0]
 8001054:	6819      	ldr	r1, [r3, #0]
 8001056:	2900      	cmp	r1, #0
 8001058:	da17      	bge.n	800108a <ETH_Prepare_Tx_Descriptors+0x11e>
 800105a:	f8dc 1018 	ldr.w	r1, [ip, #24]
 800105e:	2200      	movs	r2, #0
 8001060:	4572      	cmp	r2, lr
 8001062:	d08f      	beq.n	8000f84 <ETH_Prepare_Tx_Descriptors+0x18>
 8001064:	f3bf 8f5f 	dmb	sy
 8001068:	680b      	ldr	r3, [r1, #0]
 800106a:	3201      	adds	r2, #1
 800106c:	f023 4300 	bic.w	r3, r3, #2147483648	; 0x80000000
 8001070:	600b      	str	r3, [r1, #0]
 8001072:	1c73      	adds	r3, r6, #1
 8001074:	2b03      	cmp	r3, #3
 8001076:	bf88      	it	hi
 8001078:	1ef3      	subhi	r3, r6, #3
 800107a:	eb00 0183 	add.w	r1, r0, r3, lsl #2
 800107e:	461e      	mov	r6, r3
 8001080:	6989      	ldr	r1, [r1, #24]
 8001082:	e7ed      	b.n	8001060 <ETH_Prepare_Tx_Descriptors+0xf4>
 8001084:	f025 4580 	bic.w	r5, r5, #1073741824	; 0x40000000
 8001088:	e7d8      	b.n	800103c <ETH_Prepare_Tx_Descriptors+0xd0>
 800108a:	6ae9      	ldr	r1, [r5, #44]	; 0x2c
 800108c:	2900      	cmp	r1, #0
 800108e:	d1e4      	bne.n	800105a <ETH_Prepare_Tx_Descriptors+0xee>
 8001090:	6821      	ldr	r1, [r4, #0]
 8001092:	6865      	ldr	r5, [r4, #4]
 8001094:	6099      	str	r1, [r3, #8]
 8001096:	6859      	ldr	r1, [r3, #4]
 8001098:	ea01 0108 	and.w	r1, r1, r8
 800109c:	4329      	orrs	r1, r5
 800109e:	6059      	str	r1, [r3, #4]
 80010a0:	f3bf 8f5f 	dmb	sy
 80010a4:	6819      	ldr	r1, [r3, #0]
 80010a6:	4675      	mov	r5, lr
 80010a8:	f041 4100 	orr.w	r1, r1, #2147483648	; 0x80000000
 80010ac:	6019      	str	r1, [r3, #0]
 80010ae:	4639      	mov	r1, r7
 80010b0:	e79e      	b.n	8000ff0 <ETH_Prepare_Tx_Descriptors+0x84>
 80010b2:	f022 4280 	bic.w	r2, r2, #1073741824	; 0x40000000
 80010b6:	e7a5      	b.n	8001004 <ETH_Prepare_Tx_Descriptors+0x98>
 80010b8:	ffffe000 	.word	0xffffe000

080010bc <ETH_SetMACConfig>:
 80010bc:	b570      	push	{r4, r5, r6, lr}
 80010be:	688b      	ldr	r3, [r1, #8]
 80010c0:	460d      	mov	r5, r1
 80010c2:	6949      	ldr	r1, [r1, #20]
 80010c4:	4604      	mov	r4, r0
 80010c6:	6802      	ldr	r2, [r0, #0]
 80010c8:	430b      	orrs	r3, r1
 80010ca:	69a9      	ldr	r1, [r5, #24]
 80010cc:	6810      	ldr	r0, [r2, #0]
 80010ce:	430b      	orrs	r3, r1
 80010d0:	6a69      	ldr	r1, [r5, #36]	; 0x24
 80010d2:	430b      	orrs	r3, r1
 80010d4:	7fe9      	ldrb	r1, [r5, #31]
 80010d6:	ea43 4301 	orr.w	r3, r3, r1, lsl #16
 80010da:	7f29      	ldrb	r1, [r5, #28]
 80010dc:	ea43 3301 	orr.w	r3, r3, r1, lsl #12
 80010e0:	7929      	ldrb	r1, [r5, #4]
 80010e2:	ea43 2381 	orr.w	r3, r3, r1, lsl #10
 80010e6:	7be9      	ldrb	r1, [r5, #15]
 80010e8:	ea43 13c1 	orr.w	r3, r3, r1, lsl #7
 80010ec:	f895 1028 	ldrb.w	r1, [r5, #40]	; 0x28
 80010f0:	ea43 1301 	orr.w	r3, r3, r1, lsl #4
 80010f4:	4929      	ldr	r1, [pc, #164]	; (800119c <ETH_SetMACConfig+0xe0>)
 80010f6:	4001      	ands	r1, r0
 80010f8:	2001      	movs	r0, #1
 80010fa:	430b      	orrs	r3, r1
 80010fc:	7c29      	ldrb	r1, [r5, #16]
 80010fe:	fab1 f181 	clz	r1, r1
 8001102:	0949      	lsrs	r1, r1, #5
 8001104:	ea43 53c1 	orr.w	r3, r3, r1, lsl #23
 8001108:	7c69      	ldrb	r1, [r5, #17]
 800110a:	fab1 f181 	clz	r1, r1
 800110e:	0949      	lsrs	r1, r1, #5
 8001110:	ea43 5381 	orr.w	r3, r3, r1, lsl #22
 8001114:	7fa9      	ldrb	r1, [r5, #30]
 8001116:	fab1 f181 	clz	r1, r1
 800111a:	0949      	lsrs	r1, r1, #5
 800111c:	ea43 3341 	orr.w	r3, r3, r1, lsl #13
 8001120:	f895 1020 	ldrb.w	r1, [r5, #32]
 8001124:	fab1 f181 	clz	r1, r1
 8001128:	0949      	lsrs	r1, r1, #5
 800112a:	ea43 2341 	orr.w	r3, r3, r1, lsl #9
 800112e:	6013      	str	r3, [r2, #0]
 8001130:	6816      	ldr	r6, [r2, #0]
 8001132:	f7ff fea3 	bl	8000e7c <HAL_Delay>
 8001136:	6821      	ldr	r1, [r4, #0]
 8001138:	6ca8      	ldr	r0, [r5, #72]	; 0x48
 800113a:	600e      	str	r6, [r1, #0]
 800113c:	698a      	ldr	r2, [r1, #24]
 800113e:	6d2b      	ldr	r3, [r5, #80]	; 0x50
 8001140:	f022 02be 	bic.w	r2, r2, #190	; 0xbe
 8001144:	ea43 4300 	orr.w	r3, r3, r0, lsl #16
 8001148:	0412      	lsls	r2, r2, #16
 800114a:	0c12      	lsrs	r2, r2, #16
 800114c:	4313      	orrs	r3, r2
 800114e:	f895 204c 	ldrb.w	r2, [r5, #76]	; 0x4c
 8001152:	fab2 f282 	clz	r2, r2
 8001156:	0952      	lsrs	r2, r2, #5
 8001158:	ea43 13c2 	orr.w	r3, r3, r2, lsl #7
 800115c:	f895 2055 	ldrb.w	r2, [r5, #85]	; 0x55
 8001160:	1e50      	subs	r0, r2, #1
 8001162:	4242      	negs	r2, r0
 8001164:	4142      	adcs	r2, r0
 8001166:	2001      	movs	r0, #1
 8001168:	ea43 03c2 	orr.w	r3, r3, r2, lsl #3
 800116c:	f895 2056 	ldrb.w	r2, [r5, #86]	; 0x56
 8001170:	1e56      	subs	r6, r2, #1
 8001172:	4272      	negs	r2, r6
 8001174:	4172      	adcs	r2, r6
 8001176:	ea43 0382 	orr.w	r3, r3, r2, lsl #2
 800117a:	f895 2054 	ldrb.w	r2, [r5, #84]	; 0x54
 800117e:	f102 3cff 	add.w	ip, r2, #4294967295
 8001182:	f1dc 0200 	rsbs	r2, ip, #0
 8001186:	eb42 020c 	adc.w	r2, r2, ip
 800118a:	ea43 0342 	orr.w	r3, r3, r2, lsl #1
 800118e:	618b      	str	r3, [r1, #24]
 8001190:	698d      	ldr	r5, [r1, #24]
 8001192:	f7ff fe73 	bl	8000e7c <HAL_Delay>
 8001196:	6823      	ldr	r3, [r4, #0]
 8001198:	619d      	str	r5, [r3, #24]
 800119a:	bd70      	pop	{r4, r5, r6, pc}
 800119c:	ff20810f 	.word	0xff20810f

080011a0 <ETH_SetDMAConfig>:
 80011a0:	b570      	push	{r4, r5, r6, lr}
 80011a2:	694b      	ldr	r3, [r1, #20]
 80011a4:	460d      	mov	r5, r1
 80011a6:	6a09      	ldr	r1, [r1, #32]
 80011a8:	4604      	mov	r4, r0
 80011aa:	6802      	ldr	r2, [r0, #0]
 80011ac:	430b      	orrs	r3, r1
 80011ae:	7b69      	ldrb	r1, [r5, #13]
 80011b0:	f502 5280 	add.w	r2, r2, #4096	; 0x1000
 80011b4:	ea43 6341 	orr.w	r3, r3, r1, lsl #25
 80011b8:	7ba9      	ldrb	r1, [r5, #14]
 80011ba:	6990      	ldr	r0, [r2, #24]
 80011bc:	ea43 5341 	orr.w	r3, r3, r1, lsl #21
 80011c0:	7f29      	ldrb	r1, [r5, #28]
 80011c2:	ea43 13c1 	orr.w	r3, r3, r1, lsl #7
 80011c6:	7fa9      	ldrb	r1, [r5, #30]
 80011c8:	ea43 1381 	orr.w	r3, r3, r1, lsl #6
 80011cc:	f895 1024 	ldrb.w	r1, [r5, #36]	; 0x24
 80011d0:	ea43 0381 	orr.w	r3, r3, r1, lsl #2
 80011d4:	491a      	ldr	r1, [pc, #104]	; (8001240 <ETH_SetDMAConfig+0xa0>)
 80011d6:	4001      	ands	r1, r0
 80011d8:	2001      	movs	r0, #1
 80011da:	430b      	orrs	r3, r1
 80011dc:	7b29      	ldrb	r1, [r5, #12]
 80011de:	fab1 f181 	clz	r1, r1
 80011e2:	0949      	lsrs	r1, r1, #5
 80011e4:	ea43 6381 	orr.w	r3, r3, r1, lsl #26
 80011e8:	7f69      	ldrb	r1, [r5, #29]
 80011ea:	fab1 f181 	clz	r1, r1
 80011ee:	0949      	lsrs	r1, r1, #5
 80011f0:	ea43 5301 	orr.w	r3, r3, r1, lsl #20
 80011f4:	6193      	str	r3, [r2, #24]
 80011f6:	6996      	ldr	r6, [r2, #24]
 80011f8:	f7ff fe40 	bl	8000e7c <HAL_Delay>
 80011fc:	6822      	ldr	r2, [r4, #0]
 80011fe:	2001      	movs	r0, #1
 8001200:	69a9      	ldr	r1, [r5, #24]
 8001202:	f502 5280 	add.w	r2, r2, #4096	; 0x1000
 8001206:	68ab      	ldr	r3, [r5, #8]
 8001208:	6196      	str	r6, [r2, #24]
 800120a:	430b      	orrs	r3, r1
 800120c:	f895 1025 	ldrb.w	r1, [r5, #37]	; 0x25
 8001210:	ea43 13c1 	orr.w	r3, r3, r1, lsl #7
 8001214:	6929      	ldr	r1, [r5, #16]
 8001216:	430b      	orrs	r3, r1
 8001218:	6829      	ldr	r1, [r5, #0]
 800121a:	430b      	orrs	r3, r1
 800121c:	6aa9      	ldr	r1, [r5, #40]	; 0x28
 800121e:	ea43 0381 	orr.w	r3, r3, r1, lsl #2
 8001222:	7929      	ldrb	r1, [r5, #4]
 8001224:	ea43 6341 	orr.w	r3, r3, r1, lsl #25
 8001228:	f443 0300 	orr.w	r3, r3, #8388608	; 0x800000
 800122c:	6013      	str	r3, [r2, #0]
 800122e:	6815      	ldr	r5, [r2, #0]
 8001230:	f7ff fe24 	bl	8000e7c <HAL_Delay>
 8001234:	6823      	ldr	r3, [r4, #0]
 8001236:	f503 5380 	add.w	r3, r3, #4096	; 0x1000
 800123a:	601d      	str	r5, [r3, #0]
 800123c:	bd70      	pop	{r4, r5, r6, pc}
 800123e:	bf00      	nop
 8001240:	f8de3f23 	.word	0xf8de3f23

08001244 <ETH_FlushTransmitFIFO>:
 8001244:	2300      	movs	r3, #0
 8001246:	b513      	push	{r0, r1, r4, lr}
 8001248:	9301      	str	r3, [sp, #4]
 800124a:	4604      	mov	r4, r0
 800124c:	6803      	ldr	r3, [r0, #0]
 800124e:	2001      	movs	r0, #1
 8001250:	f503 5380 	add.w	r3, r3, #4096	; 0x1000
 8001254:	699a      	ldr	r2, [r3, #24]
 8001256:	f442 1280 	orr.w	r2, r2, #1048576	; 0x100000
 800125a:	619a      	str	r2, [r3, #24]
 800125c:	699b      	ldr	r3, [r3, #24]
 800125e:	9301      	str	r3, [sp, #4]
 8001260:	f7ff fe0c 	bl	8000e7c <HAL_Delay>
 8001264:	6823      	ldr	r3, [r4, #0]
 8001266:	9a01      	ldr	r2, [sp, #4]
 8001268:	f503 5380 	add.w	r3, r3, #4096	; 0x1000
 800126c:	619a      	str	r2, [r3, #24]
 800126e:	b002      	add	sp, #8
 8001270:	bd10      	pop	{r4, pc}
	...

08001274 <ETH_UpdateDescriptor>:
 8001274:	e92d 47f3 	stmdb	sp!, {r0, r1, r4, r5, r6, r7, r8, r9, sl, lr}
 8001278:	2300      	movs	r3, #0
 800127a:	6e87      	ldr	r7, [r0, #104]	; 0x68
 800127c:	4604      	mov	r4, r0
 800127e:	6ec6      	ldr	r6, [r0, #108]	; 0x6c
 8001280:	9301      	str	r3, [sp, #4]
 8001282:	f107 0312 	add.w	r3, r7, #18
 8001286:	f04f 0801 	mov.w	r8, #1
 800128a:	f44f 498c 	mov.w	r9, #17920	; 0x4600
 800128e:	f850 5023 	ldr.w	r5, [r0, r3, lsl #2]
 8001292:	f8df a06c 	ldr.w	sl, [pc, #108]	; 8001300 <ETH_UpdateDescriptor+0x8c>
 8001296:	b116      	cbz	r6, 800129e <ETH_UpdateDescriptor+0x2a>
 8001298:	f1b8 0f00 	cmp.w	r8, #0
 800129c:	d10c      	bne.n	80012b8 <ETH_UpdateDescriptor+0x44>
 800129e:	6ee3      	ldr	r3, [r4, #108]	; 0x6c
 80012a0:	42b3      	cmp	r3, r6
 80012a2:	d006      	beq.n	80012b2 <ETH_UpdateDescriptor+0x3e>
 80012a4:	6823      	ldr	r3, [r4, #0]
 80012a6:	2200      	movs	r2, #0
 80012a8:	f503 5380 	add.w	r3, r3, #4096	; 0x1000
 80012ac:	609a      	str	r2, [r3, #8]
 80012ae:	e9c4 761a 	strd	r7, r6, [r4, #104]	; 0x68
 80012b2:	b002      	add	sp, #8
 80012b4:	e8bd 87f0 	ldmia.w	sp!, {r4, r5, r6, r7, r8, r9, sl, pc}
 80012b8:	6a2b      	ldr	r3, [r5, #32]
 80012ba:	b933      	cbnz	r3, 80012ca <ETH_UpdateDescriptor+0x56>
 80012bc:	a801      	add	r0, sp, #4
 80012be:	f002 fa81 	bl	80037c4 <HAL_ETH_RxAllocateCallback>
 80012c2:	9b01      	ldr	r3, [sp, #4]
 80012c4:	b1cb      	cbz	r3, 80012fa <ETH_UpdateDescriptor+0x86>
 80012c6:	622b      	str	r3, [r5, #32]
 80012c8:	60ab      	str	r3, [r5, #8]
 80012ca:	6da3      	ldr	r3, [r4, #88]	; 0x58
 80012cc:	b993      	cbnz	r3, 80012f4 <ETH_UpdateDescriptor+0x80>
 80012ce:	f8c5 a004 	str.w	sl, [r5, #4]
 80012d2:	f3bf 8f5f 	dmb	sy
 80012d6:	682b      	ldr	r3, [r5, #0]
 80012d8:	3e01      	subs	r6, #1
 80012da:	f043 4300 	orr.w	r3, r3, #2147483648	; 0x80000000
 80012de:	602b      	str	r3, [r5, #0]
 80012e0:	1c7b      	adds	r3, r7, #1
 80012e2:	2b03      	cmp	r3, #3
 80012e4:	bf88      	it	hi
 80012e6:	1efb      	subhi	r3, r7, #3
 80012e8:	f103 0212 	add.w	r2, r3, #18
 80012ec:	461f      	mov	r7, r3
 80012ee:	f854 5022 	ldr.w	r5, [r4, r2, lsl #2]
 80012f2:	e7d0      	b.n	8001296 <ETH_UpdateDescriptor+0x22>
 80012f4:	f8c5 9004 	str.w	r9, [r5, #4]
 80012f8:	e7eb      	b.n	80012d2 <ETH_UpdateDescriptor+0x5e>
 80012fa:	4698      	mov	r8, r3
 80012fc:	e7cb      	b.n	8001296 <ETH_UpdateDescriptor+0x22>
 80012fe:	bf00      	nop
 8001300:	80004600 	.word	0x80004600

08001304 <HAL_ETH_Init>:
 8001304:	b5f0      	push	{r4, r5, r6, r7, lr}
 8001306:	4604      	mov	r4, r0
 8001308:	b0a7      	sub	sp, #156	; 0x9c
 800130a:	2800      	cmp	r0, #0
 800130c:	f000 80d7 	beq.w	80014be <HAL_ETH_Init+0x1ba>
 8001310:	f8d0 3084 	ldr.w	r3, [r0, #132]	; 0x84
 8001314:	b923      	cbnz	r3, 8001320 <HAL_ETH_Init+0x1c>
 8001316:	2323      	movs	r3, #35	; 0x23
 8001318:	f8c0 3084 	str.w	r3, [r0, #132]	; 0x84
 800131c:	f002 f900 	bl	8003520 <HAL_ETH_MspInit>
 8001320:	4b6a      	ldr	r3, [pc, #424]	; (80014cc <HAL_ETH_Init+0x1c8>)
 8001322:	68a1      	ldr	r1, [r4, #8]
 8001324:	6c5a      	ldr	r2, [r3, #68]	; 0x44
 8001326:	f442 4280 	orr.w	r2, r2, #16384	; 0x4000
 800132a:	645a      	str	r2, [r3, #68]	; 0x44
 800132c:	6c5b      	ldr	r3, [r3, #68]	; 0x44
 800132e:	f403 4380 	and.w	r3, r3, #16384	; 0x4000
 8001332:	9301      	str	r3, [sp, #4]
 8001334:	9b01      	ldr	r3, [sp, #4]
 8001336:	4b66      	ldr	r3, [pc, #408]	; (80014d0 <HAL_ETH_Init+0x1cc>)
 8001338:	685a      	ldr	r2, [r3, #4]
 800133a:	f422 0200 	bic.w	r2, r2, #8388608	; 0x800000
 800133e:	605a      	str	r2, [r3, #4]
 8001340:	685a      	ldr	r2, [r3, #4]
 8001342:	430a      	orrs	r2, r1
 8001344:	605a      	str	r2, [r3, #4]
 8001346:	685b      	ldr	r3, [r3, #4]
 8001348:	6823      	ldr	r3, [r4, #0]
 800134a:	f503 5380 	add.w	r3, r3, #4096	; 0x1000
 800134e:	681a      	ldr	r2, [r3, #0]
 8001350:	f042 0201 	orr.w	r2, r2, #1
 8001354:	601a      	str	r2, [r3, #0]
 8001356:	f7ff fd8b 	bl	8000e70 <HAL_GetTick>
 800135a:	4606      	mov	r6, r0
 800135c:	6823      	ldr	r3, [r4, #0]
 800135e:	f503 5380 	add.w	r3, r3, #4096	; 0x1000
 8001362:	681d      	ldr	r5, [r3, #0]
 8001364:	f015 0501 	ands.w	r5, r5, #1
 8001368:	f040 809c 	bne.w	80014a4 <HAL_ETH_Init+0x1a0>
 800136c:	2601      	movs	r6, #1
 800136e:	f44f 4280 	mov.w	r2, #16384	; 0x4000
 8001372:	f240 1701 	movw	r7, #257	; 0x101
 8001376:	f44f 6300 	mov.w	r3, #2048	; 0x800
 800137a:	a90d      	add	r1, sp, #52	; 0x34
 800137c:	4620      	mov	r0, r4
 800137e:	f88d 6038 	strb.w	r6, [sp, #56]	; 0x38
 8001382:	f8ad 6052 	strh.w	r6, [sp, #82]	; 0x52
 8001386:	950f      	str	r5, [sp, #60]	; 0x3c
 8001388:	f88d 5050 	strb.w	r5, [sp, #80]	; 0x50
 800138c:	f88d 5054 	strb.w	r5, [sp, #84]	; 0x54
 8001390:	f88d 5043 	strb.w	r5, [sp, #67]	; 0x43
 8001394:	f8ad 7044 	strh.w	r7, [sp, #68]	; 0x44
 8001398:	9516      	str	r5, [sp, #88]	; 0x58
 800139a:	f88d 505c 	strb.w	r5, [sp, #92]	; 0x5c
 800139e:	951f      	str	r5, [sp, #124]	; 0x7c
 80013a0:	f88d 5080 	strb.w	r5, [sp, #128]	; 0x80
 80013a4:	9521      	str	r5, [sp, #132]	; 0x84
 80013a6:	f8ad 5088 	strh.w	r5, [sp, #136]	; 0x88
 80013aa:	f88d 508a 	strb.w	r5, [sp, #138]	; 0x8a
 80013ae:	e9cd 2312 	strd	r2, r3, [sp, #72]	; 0x48
 80013b2:	f7ff fe83 	bl	80010bc <ETH_SetMACConfig>
 80013b6:	f44f 3380 	mov.w	r3, #65536	; 0x10000
 80013ba:	4620      	mov	r0, r4
 80013bc:	a902      	add	r1, sp, #8
 80013be:	9304      	str	r3, [sp, #16]
 80013c0:	f44f 5300 	mov.w	r3, #8192	; 0x2000
 80013c4:	f88d 600c 	strb.w	r6, [sp, #12]
 80013c8:	f88d 6016 	strb.w	r6, [sp, #22]
 80013cc:	f8ad 7014 	strh.w	r7, [sp, #20]
 80013d0:	f88d 5026 	strb.w	r5, [sp, #38]	; 0x26
 80013d4:	950a      	str	r5, [sp, #40]	; 0x28
 80013d6:	f8ad 702c 	strh.w	r7, [sp, #44]	; 0x2c
 80013da:	950c      	str	r5, [sp, #48]	; 0x30
 80013dc:	9502      	str	r5, [sp, #8]
 80013de:	e9cd 3506 	strd	r3, r5, [sp, #24]
 80013e2:	f44f 0380 	mov.w	r3, #4194304	; 0x400000
 80013e6:	9308      	str	r3, [sp, #32]
 80013e8:	f44f 7380 	mov.w	r3, #256	; 0x100
 80013ec:	f8ad 3024 	strh.w	r3, [sp, #36]	; 0x24
 80013f0:	f7ff fed6 	bl	80011a0 <ETH_SetDMAConfig>
 80013f4:	68e6      	ldr	r6, [r4, #12]
 80013f6:	f104 0c14 	add.w	ip, r4, #20
 80013fa:	462a      	mov	r2, r5
 80013fc:	4628      	mov	r0, r5
 80013fe:	4633      	mov	r3, r6
 8001400:	6018      	str	r0, [r3, #0]
 8001402:	4619      	mov	r1, r3
 8001404:	6058      	str	r0, [r3, #4]
 8001406:	2a03      	cmp	r2, #3
 8001408:	6098      	str	r0, [r3, #8]
 800140a:	60d8      	str	r0, [r3, #12]
 800140c:	f84c 3f04 	str.w	r3, [ip, #4]!
 8001410:	681f      	ldr	r7, [r3, #0]
 8001412:	f447 1780 	orr.w	r7, r7, #1048576	; 0x100000
 8001416:	f841 7b28 	str.w	r7, [r1], #40
 800141a:	d052      	beq.n	80014c2 <HAL_ETH_Init+0x1be>
 800141c:	60d9      	str	r1, [r3, #12]
 800141e:	681f      	ldr	r7, [r3, #0]
 8001420:	3201      	adds	r2, #1
 8001422:	f447 0740 	orr.w	r7, r7, #12582912	; 0xc00000
 8001426:	2a04      	cmp	r2, #4
 8001428:	601f      	str	r7, [r3, #0]
 800142a:	460b      	mov	r3, r1
 800142c:	d1e8      	bne.n	8001400 <HAL_ETH_Init+0xfc>
 800142e:	6821      	ldr	r1, [r4, #0]
 8001430:	2200      	movs	r2, #0
 8001432:	f104 0744 	add.w	r7, r4, #68	; 0x44
 8001436:	f04f 4c00 	mov.w	ip, #2147483648	; 0x80000000
 800143a:	f501 5180 	add.w	r1, r1, #4096	; 0x1000
 800143e:	62a2      	str	r2, [r4, #40]	; 0x28
 8001440:	f44f 4e8c 	mov.w	lr, #17920	; 0x4600
 8001444:	610e      	str	r6, [r1, #16]
 8001446:	6926      	ldr	r6, [r4, #16]
 8001448:	4633      	mov	r3, r6
 800144a:	601a      	str	r2, [r3, #0]
 800144c:	2d03      	cmp	r5, #3
 800144e:	605a      	str	r2, [r3, #4]
 8001450:	609a      	str	r2, [r3, #8]
 8001452:	60da      	str	r2, [r3, #12]
 8001454:	f8c3 c000 	str.w	ip, [r3]
 8001458:	f8c3 e004 	str.w	lr, [r3, #4]
 800145c:	6858      	ldr	r0, [r3, #4]
 800145e:	f020 4000 	bic.w	r0, r0, #2147483648	; 0x80000000
 8001462:	e9c3 2208 	strd	r2, r2, [r3, #32]
 8001466:	6058      	str	r0, [r3, #4]
 8001468:	f103 0028 	add.w	r0, r3, #40	; 0x28
 800146c:	f847 3f04 	str.w	r3, [r7, #4]!
 8001470:	d029      	beq.n	80014c6 <HAL_ETH_Init+0x1c2>
 8001472:	60d8      	str	r0, [r3, #12]
 8001474:	3501      	adds	r5, #1
 8001476:	4603      	mov	r3, r0
 8001478:	2d04      	cmp	r5, #4
 800147a:	d1e6      	bne.n	800144a <HAL_ETH_Init+0x146>
 800147c:	2000      	movs	r0, #0
 800147e:	6862      	ldr	r2, [r4, #4]
 8001480:	4b14      	ldr	r3, [pc, #80]	; (80014d4 <HAL_ETH_Init+0x1d0>)
 8001482:	65a0      	str	r0, [r4, #88]	; 0x58
 8001484:	e9c4 0017 	strd	r0, r0, [r4, #92]	; 0x5c
 8001488:	e9c4 001a 	strd	r0, r0, [r4, #104]	; 0x68
 800148c:	60ce      	str	r6, [r1, #12]
 800148e:	8891      	ldrh	r1, [r2, #4]
 8001490:	6419      	str	r1, [r3, #64]	; 0x40
 8001492:	6812      	ldr	r2, [r2, #0]
 8001494:	645a      	str	r2, [r3, #68]	; 0x44
 8001496:	2310      	movs	r3, #16
 8001498:	f8c4 0088 	str.w	r0, [r4, #136]	; 0x88
 800149c:	f8c4 3084 	str.w	r3, [r4, #132]	; 0x84
 80014a0:	b027      	add	sp, #156	; 0x9c
 80014a2:	bdf0      	pop	{r4, r5, r6, r7, pc}
 80014a4:	f7ff fce4 	bl	8000e70 <HAL_GetTick>
 80014a8:	1b80      	subs	r0, r0, r6
 80014aa:	f5b0 7ffa 	cmp.w	r0, #500	; 0x1f4
 80014ae:	f67f af55 	bls.w	800135c <HAL_ETH_Init+0x58>
 80014b2:	2304      	movs	r3, #4
 80014b4:	f8c4 3088 	str.w	r3, [r4, #136]	; 0x88
 80014b8:	23e0      	movs	r3, #224	; 0xe0
 80014ba:	f8c4 3084 	str.w	r3, [r4, #132]	; 0x84
 80014be:	2001      	movs	r0, #1
 80014c0:	e7ee      	b.n	80014a0 <HAL_ETH_Init+0x19c>
 80014c2:	60de      	str	r6, [r3, #12]
 80014c4:	e7ab      	b.n	800141e <HAL_ETH_Init+0x11a>
 80014c6:	60de      	str	r6, [r3, #12]
 80014c8:	e7d4      	b.n	8001474 <HAL_ETH_Init+0x170>
 80014ca:	bf00      	nop
 80014cc:	40023800 	.word	0x40023800
 80014d0:	40013800 	.word	0x40013800
 80014d4:	40028000 	.word	0x40028000

080014d8 <HAL_ETH_Start>:
 80014d8:	f8d0 3084 	ldr.w	r3, [r0, #132]	; 0x84
 80014dc:	2b10      	cmp	r3, #16
 80014de:	b570      	push	{r4, r5, r6, lr}
 80014e0:	4604      	mov	r4, r0
 80014e2:	d12d      	bne.n	8001540 <HAL_ETH_Start+0x68>
 80014e4:	2304      	movs	r3, #4
 80014e6:	2523      	movs	r5, #35	; 0x23
 80014e8:	66c3      	str	r3, [r0, #108]	; 0x6c
 80014ea:	f8c0 5084 	str.w	r5, [r0, #132]	; 0x84
 80014ee:	f7ff fec1 	bl	8001274 <ETH_UpdateDescriptor>
 80014f2:	6823      	ldr	r3, [r4, #0]
 80014f4:	2001      	movs	r0, #1
 80014f6:	681a      	ldr	r2, [r3, #0]
 80014f8:	f042 0208 	orr.w	r2, r2, #8
 80014fc:	601a      	str	r2, [r3, #0]
 80014fe:	681e      	ldr	r6, [r3, #0]
 8001500:	f7ff fcbc 	bl	8000e7c <HAL_Delay>
 8001504:	6823      	ldr	r3, [r4, #0]
 8001506:	2001      	movs	r0, #1
 8001508:	601e      	str	r6, [r3, #0]
 800150a:	681a      	ldr	r2, [r3, #0]
 800150c:	f042 0204 	orr.w	r2, r2, #4
 8001510:	601a      	str	r2, [r3, #0]
 8001512:	681e      	ldr	r6, [r3, #0]
 8001514:	f7ff fcb2 	bl	8000e7c <HAL_Delay>
 8001518:	6823      	ldr	r3, [r4, #0]
 800151a:	4620      	mov	r0, r4
 800151c:	601e      	str	r6, [r3, #0]
 800151e:	f7ff fe91 	bl	8001244 <ETH_FlushTransmitFIFO>
 8001522:	6823      	ldr	r3, [r4, #0]
 8001524:	2000      	movs	r0, #0
 8001526:	f503 5380 	add.w	r3, r3, #4096	; 0x1000
 800152a:	699a      	ldr	r2, [r3, #24]
 800152c:	f442 5200 	orr.w	r2, r2, #8192	; 0x2000
 8001530:	619a      	str	r2, [r3, #24]
 8001532:	699a      	ldr	r2, [r3, #24]
 8001534:	f042 0202 	orr.w	r2, r2, #2
 8001538:	619a      	str	r2, [r3, #24]
 800153a:	f8c4 5084 	str.w	r5, [r4, #132]	; 0x84
 800153e:	bd70      	pop	{r4, r5, r6, pc}
 8001540:	2001      	movs	r0, #1
 8001542:	e7fc      	b.n	800153e <HAL_ETH_Start+0x66>

08001544 <HAL_ETH_Stop>:
 8001544:	b538      	push	{r3, r4, r5, lr}
 8001546:	f8d0 3084 	ldr.w	r3, [r0, #132]	; 0x84
 800154a:	4604      	mov	r4, r0
 800154c:	2b23      	cmp	r3, #35	; 0x23
 800154e:	d129      	bne.n	80015a4 <HAL_ETH_Stop+0x60>
 8001550:	f8c0 3084 	str.w	r3, [r0, #132]	; 0x84
 8001554:	6803      	ldr	r3, [r0, #0]
 8001556:	2001      	movs	r0, #1
 8001558:	f503 5280 	add.w	r2, r3, #4096	; 0x1000
 800155c:	6991      	ldr	r1, [r2, #24]
 800155e:	f421 5100 	bic.w	r1, r1, #8192	; 0x2000
 8001562:	6191      	str	r1, [r2, #24]
 8001564:	6991      	ldr	r1, [r2, #24]
 8001566:	f021 0102 	bic.w	r1, r1, #2
 800156a:	6191      	str	r1, [r2, #24]
 800156c:	681a      	ldr	r2, [r3, #0]
 800156e:	f022 0204 	bic.w	r2, r2, #4
 8001572:	601a      	str	r2, [r3, #0]
 8001574:	681d      	ldr	r5, [r3, #0]
 8001576:	f7ff fc81 	bl	8000e7c <HAL_Delay>
 800157a:	6823      	ldr	r3, [r4, #0]
 800157c:	4620      	mov	r0, r4
 800157e:	601d      	str	r5, [r3, #0]
 8001580:	f7ff fe60 	bl	8001244 <ETH_FlushTransmitFIFO>
 8001584:	6823      	ldr	r3, [r4, #0]
 8001586:	2001      	movs	r0, #1
 8001588:	681a      	ldr	r2, [r3, #0]
 800158a:	f022 0208 	bic.w	r2, r2, #8
 800158e:	601a      	str	r2, [r3, #0]
 8001590:	681d      	ldr	r5, [r3, #0]
 8001592:	f7ff fc73 	bl	8000e7c <HAL_Delay>
 8001596:	6823      	ldr	r3, [r4, #0]
 8001598:	2000      	movs	r0, #0
 800159a:	601d      	str	r5, [r3, #0]
 800159c:	2310      	movs	r3, #16
 800159e:	f8c4 3084 	str.w	r3, [r4, #132]	; 0x84
 80015a2:	bd38      	pop	{r3, r4, r5, pc}
 80015a4:	2001      	movs	r0, #1
 80015a6:	e7fc      	b.n	80015a2 <HAL_ETH_Stop+0x5e>

080015a8 <HAL_ETH_Transmit>:
 80015a8:	b5f8      	push	{r3, r4, r5, r6, r7, lr}
 80015aa:	4604      	mov	r4, r0
 80015ac:	4615      	mov	r5, r2
 80015ae:	b939      	cbnz	r1, 80015c0 <HAL_ETH_Transmit+0x18>
 80015b0:	f8d0 3088 	ldr.w	r3, [r0, #136]	; 0x88
 80015b4:	f043 0301 	orr.w	r3, r3, #1
 80015b8:	f8c4 3088 	str.w	r3, [r4, #136]	; 0x88
 80015bc:	2001      	movs	r0, #1
 80015be:	e027      	b.n	8001610 <HAL_ETH_Transmit+0x68>
 80015c0:	f8d0 3084 	ldr.w	r3, [r0, #132]	; 0x84
 80015c4:	2b23      	cmp	r3, #35	; 0x23
 80015c6:	d1f9      	bne.n	80015bc <HAL_ETH_Transmit+0x14>
 80015c8:	2200      	movs	r2, #0
 80015ca:	f7ff fccf 	bl	8000f6c <ETH_Prepare_Tx_Descriptors>
 80015ce:	b120      	cbz	r0, 80015da <HAL_ETH_Transmit+0x32>
 80015d0:	f8d4 3088 	ldr.w	r3, [r4, #136]	; 0x88
 80015d4:	f043 0302 	orr.w	r3, r3, #2
 80015d8:	e7ee      	b.n	80015b8 <HAL_ETH_Transmit+0x10>
 80015da:	f3bf 8f4f 	dsb	sy
 80015de:	6aa3      	ldr	r3, [r4, #40]	; 0x28
 80015e0:	1d9a      	adds	r2, r3, #6
 80015e2:	f854 7022 	ldr.w	r7, [r4, r2, lsl #2]
 80015e6:	1c5a      	adds	r2, r3, #1
 80015e8:	2a03      	cmp	r2, #3
 80015ea:	bf8a      	itet	hi
 80015ec:	3b03      	subhi	r3, #3
 80015ee:	62a2      	strls	r2, [r4, #40]	; 0x28
 80015f0:	62a3      	strhi	r3, [r4, #40]	; 0x28
 80015f2:	6aa2      	ldr	r2, [r4, #40]	; 0x28
 80015f4:	6823      	ldr	r3, [r4, #0]
 80015f6:	3206      	adds	r2, #6
 80015f8:	f503 5380 	add.w	r3, r3, #4096	; 0x1000
 80015fc:	f854 2022 	ldr.w	r2, [r4, r2, lsl #2]
 8001600:	605a      	str	r2, [r3, #4]
 8001602:	f7ff fc35 	bl	8000e70 <HAL_GetTick>
 8001606:	4606      	mov	r6, r0
 8001608:	683b      	ldr	r3, [r7, #0]
 800160a:	2b00      	cmp	r3, #0
 800160c:	db01      	blt.n	8001612 <HAL_ETH_Transmit+0x6a>
 800160e:	2000      	movs	r0, #0
 8001610:	bdf8      	pop	{r3, r4, r5, r6, r7, pc}
 8001612:	6823      	ldr	r3, [r4, #0]
 8001614:	f503 5380 	add.w	r3, r3, #4096	; 0x1000
 8001618:	695a      	ldr	r2, [r3, #20]
 800161a:	0492      	lsls	r2, r2, #18
 800161c:	d509      	bpl.n	8001632 <HAL_ETH_Transmit+0x8a>
 800161e:	f8d4 2088 	ldr.w	r2, [r4, #136]	; 0x88
 8001622:	f042 0208 	orr.w	r2, r2, #8
 8001626:	f8c4 2088 	str.w	r2, [r4, #136]	; 0x88
 800162a:	695b      	ldr	r3, [r3, #20]
 800162c:	f8c4 308c 	str.w	r3, [r4, #140]	; 0x8c
 8001630:	e7c4      	b.n	80015bc <HAL_ETH_Transmit+0x14>
 8001632:	1c6b      	adds	r3, r5, #1
 8001634:	d0e8      	beq.n	8001608 <HAL_ETH_Transmit+0x60>
 8001636:	f7ff fc1b 	bl	8000e70 <HAL_GetTick>
 800163a:	1b80      	subs	r0, r0, r6
 800163c:	42a8      	cmp	r0, r5
 800163e:	d801      	bhi.n	8001644 <HAL_ETH_Transmit+0x9c>
 8001640:	2d00      	cmp	r5, #0
 8001642:	d1e1      	bne.n	8001608 <HAL_ETH_Transmit+0x60>
 8001644:	f8d4 3088 	ldr.w	r3, [r4, #136]	; 0x88
 8001648:	f043 0304 	orr.w	r3, r3, #4
 800164c:	f8c4 3088 	str.w	r3, [r4, #136]	; 0x88
 8001650:	f04f 5340 	mov.w	r3, #805306368	; 0x30000000
 8001654:	603b      	str	r3, [r7, #0]
 8001656:	e7b1      	b.n	80015bc <HAL_ETH_Transmit+0x14>

08001658 <HAL_ETH_ReadData>:
 8001658:	e92d 4ff0 	stmdb	sp!, {r4, r5, r6, r7, r8, r9, sl, fp, lr}
 800165c:	4604      	mov	r4, r0
 800165e:	b085      	sub	sp, #20
 8001660:	468a      	mov	sl, r1
 8001662:	b949      	cbnz	r1, 8001678 <HAL_ETH_ReadData+0x20>
 8001664:	f8d0 3088 	ldr.w	r3, [r0, #136]	; 0x88
 8001668:	f043 0301 	orr.w	r3, r3, #1
 800166c:	f8c0 3088 	str.w	r3, [r0, #136]	; 0x88
 8001670:	2001      	movs	r0, #1
 8001672:	b005      	add	sp, #20
 8001674:	e8bd 8ff0 	ldmia.w	sp!, {r4, r5, r6, r7, r8, r9, sl, fp, pc}
 8001678:	f8d0 3084 	ldr.w	r3, [r0, #132]	; 0x84
 800167c:	2b23      	cmp	r3, #35	; 0x23
 800167e:	d1f7      	bne.n	8001670 <HAL_ETH_ReadData+0x18>
 8001680:	f8d0 905c 	ldr.w	r9, [r0, #92]	; 0x5c
 8001684:	f04f 0800 	mov.w	r8, #0
 8001688:	f100 0180 	add.w	r1, r0, #128	; 0x80
 800168c:	f109 0312 	add.w	r3, r9, #18
 8001690:	4646      	mov	r6, r8
 8001692:	46c3      	mov	fp, r8
 8001694:	f850 5023 	ldr.w	r5, [r0, r3, lsl #2]
 8001698:	307c      	adds	r0, #124	; 0x7c
 800169a:	f850 3c10 	ldr.w	r3, [r0, #-16]
 800169e:	f1c3 0304 	rsb	r3, r3, #4
 80016a2:	9301      	str	r3, [sp, #4]
 80016a4:	682b      	ldr	r3, [r5, #0]
 80016a6:	2b00      	cmp	r3, #0
 80016a8:	db05      	blt.n	80016b6 <HAL_ETH_ReadData+0x5e>
 80016aa:	9b01      	ldr	r3, [sp, #4]
 80016ac:	429e      	cmp	r6, r3
 80016ae:	d002      	beq.n	80016b6 <HAL_ETH_ReadData+0x5e>
 80016b0:	f1b8 0f00 	cmp.w	r8, #0
 80016b4:	d011      	beq.n	80016da <HAL_ETH_ReadData+0x82>
 80016b6:	6ee3      	ldr	r3, [r4, #108]	; 0x6c
 80016b8:	441e      	add	r6, r3
 80016ba:	66e6      	str	r6, [r4, #108]	; 0x6c
 80016bc:	b116      	cbz	r6, 80016c4 <HAL_ETH_ReadData+0x6c>
 80016be:	4620      	mov	r0, r4
 80016c0:	f7ff fdd8 	bl	8001274 <ETH_UpdateDescriptor>
 80016c4:	f8c4 905c 	str.w	r9, [r4, #92]	; 0x5c
 80016c8:	f1b8 0f00 	cmp.w	r8, #0
 80016cc:	d0d0      	beq.n	8001670 <HAL_ETH_ReadData+0x18>
 80016ce:	6fe3      	ldr	r3, [r4, #124]	; 0x7c
 80016d0:	2000      	movs	r0, #0
 80016d2:	f8ca 3000 	str.w	r3, [sl]
 80016d6:	67e0      	str	r0, [r4, #124]	; 0x7c
 80016d8:	e7cb      	b.n	8001672 <HAL_ETH_ReadData+0x1a>
 80016da:	682b      	ldr	r3, [r5, #0]
 80016dc:	05db      	lsls	r3, r3, #23
 80016de:	d503      	bpl.n	80016e8 <HAL_ETH_ReadData+0x90>
 80016e0:	69ab      	ldr	r3, [r5, #24]
 80016e2:	67a3      	str	r3, [r4, #120]	; 0x78
 80016e4:	69eb      	ldr	r3, [r5, #28]
 80016e6:	6763      	str	r3, [r4, #116]	; 0x74
 80016e8:	682b      	ldr	r3, [r5, #0]
 80016ea:	059f      	lsls	r7, r3, #22
 80016ec:	d401      	bmi.n	80016f2 <HAL_ETH_ReadData+0x9a>
 80016ee:	6fe3      	ldr	r3, [r4, #124]	; 0x7c
 80016f0:	b30b      	cbz	r3, 8001736 <HAL_ETH_ReadData+0xde>
 80016f2:	682b      	ldr	r3, [r5, #0]
 80016f4:	6967      	ldr	r7, [r4, #20]
 80016f6:	059a      	lsls	r2, r3, #22
 80016f8:	682b      	ldr	r3, [r5, #0]
 80016fa:	bf48      	it	mi
 80016fc:	e9c4 bb18 	strdmi	fp, fp, [r4, #96]	; 0x60
 8001700:	05db      	lsls	r3, r3, #23
 8001702:	d507      	bpl.n	8001714 <HAL_ETH_ReadData+0xbc>
 8001704:	682f      	ldr	r7, [r5, #0]
 8001706:	f04f 0801 	mov.w	r8, #1
 800170a:	682b      	ldr	r3, [r5, #0]
 800170c:	f3c7 470d 	ubfx	r7, r7, #16, #14
 8001710:	6723      	str	r3, [r4, #112]	; 0x70
 8001712:	3f04      	subs	r7, #4
 8001714:	68aa      	ldr	r2, [r5, #8]
 8001716:	b2bb      	uxth	r3, r7
 8001718:	622a      	str	r2, [r5, #32]
 800171a:	e9cd 0102 	strd	r0, r1, [sp, #8]
 800171e:	f002 f873 	bl	8003808 <HAL_ETH_RxLinkCallback>
 8001722:	6e23      	ldr	r3, [r4, #96]	; 0x60
 8001724:	3301      	adds	r3, #1
 8001726:	6623      	str	r3, [r4, #96]	; 0x60
 8001728:	6e63      	ldr	r3, [r4, #100]	; 0x64
 800172a:	e9dd 0102 	ldrd	r0, r1, [sp, #8]
 800172e:	443b      	add	r3, r7
 8001730:	6663      	str	r3, [r4, #100]	; 0x64
 8001732:	f8c5 b020 	str.w	fp, [r5, #32]
 8001736:	f109 0301 	add.w	r3, r9, #1
 800173a:	3601      	adds	r6, #1
 800173c:	2b03      	cmp	r3, #3
 800173e:	bf88      	it	hi
 8001740:	f1a9 0303 	subhi.w	r3, r9, #3
 8001744:	f103 0212 	add.w	r2, r3, #18
 8001748:	4699      	mov	r9, r3
 800174a:	f854 5022 	ldr.w	r5, [r4, r2, lsl #2]
 800174e:	e7a9      	b.n	80016a4 <HAL_ETH_ReadData+0x4c>

08001750 <HAL_ETH_ReadPHYRegister>:
 8001750:	b5f8      	push	{r3, r4, r5, r6, r7, lr}
 8001752:	4605      	mov	r5, r0
 8001754:	6800      	ldr	r0, [r0, #0]
 8001756:	461e      	mov	r6, r3
 8001758:	0192      	lsls	r2, r2, #6
 800175a:	6903      	ldr	r3, [r0, #16]
 800175c:	02cc      	lsls	r4, r1, #11
 800175e:	f402 62f8 	and.w	r2, r2, #1984	; 0x7c0
 8001762:	f003 031c 	and.w	r3, r3, #28
 8001766:	b2a4      	uxth	r4, r4
 8001768:	431a      	orrs	r2, r3
 800176a:	4314      	orrs	r4, r2
 800176c:	f044 0401 	orr.w	r4, r4, #1
 8001770:	6104      	str	r4, [r0, #16]
 8001772:	f7ff fb7d 	bl	8000e70 <HAL_GetTick>
 8001776:	4607      	mov	r7, r0
 8001778:	f014 0401 	ands.w	r4, r4, #1
 800177c:	d105      	bne.n	800178a <HAL_ETH_ReadPHYRegister+0x3a>
 800177e:	682b      	ldr	r3, [r5, #0]
 8001780:	4620      	mov	r0, r4
 8001782:	695b      	ldr	r3, [r3, #20]
 8001784:	b29b      	uxth	r3, r3
 8001786:	6033      	str	r3, [r6, #0]
 8001788:	bdf8      	pop	{r3, r4, r5, r6, r7, pc}
 800178a:	f7ff fb71 	bl	8000e70 <HAL_GetTick>
 800178e:	1bc0      	subs	r0, r0, r7
 8001790:	f5b0 3f80 	cmp.w	r0, #65536	; 0x10000
 8001794:	d202      	bcs.n	800179c <HAL_ETH_ReadPHYRegister+0x4c>
 8001796:	682b      	ldr	r3, [r5, #0]
 8001798:	691c      	ldr	r4, [r3, #16]
 800179a:	e7ed      	b.n	8001778 <HAL_ETH_ReadPHYRegister+0x28>
 800179c:	2001      	movs	r0, #1
 800179e:	e7f3      	b.n	8001788 <HAL_ETH_ReadPHYRegister+0x38>

080017a0 <HAL_ETH_WritePHYRegister>:
 80017a0:	b570      	push	{r4, r5, r6, lr}
 80017a2:	4605      	mov	r5, r0
 80017a4:	6800      	ldr	r0, [r0, #0]
 80017a6:	0192      	lsls	r2, r2, #6
 80017a8:	6904      	ldr	r4, [r0, #16]
 80017aa:	b29b      	uxth	r3, r3
 80017ac:	f402 62f8 	and.w	r2, r2, #1984	; 0x7c0
 80017b0:	f004 041c 	and.w	r4, r4, #28
 80017b4:	6143      	str	r3, [r0, #20]
 80017b6:	4322      	orrs	r2, r4
 80017b8:	02cc      	lsls	r4, r1, #11
 80017ba:	b2a4      	uxth	r4, r4
 80017bc:	4314      	orrs	r4, r2
 80017be:	f044 0403 	orr.w	r4, r4, #3
 80017c2:	6104      	str	r4, [r0, #16]
 80017c4:	f7ff fb54 	bl	8000e70 <HAL_GetTick>
 80017c8:	4606      	mov	r6, r0
 80017ca:	f014 0401 	ands.w	r4, r4, #1
 80017ce:	d101      	bne.n	80017d4 <HAL_ETH_WritePHYRegister+0x34>
 80017d0:	4620      	mov	r0, r4
 80017d2:	bd70      	pop	{r4, r5, r6, pc}
 80017d4:	f7ff fb4c 	bl	8000e70 <HAL_GetTick>
 80017d8:	1b80      	subs	r0, r0, r6
 80017da:	f5b0 3f80 	cmp.w	r0, #65536	; 0x10000
 80017de:	d202      	bcs.n	80017e6 <HAL_ETH_WritePHYRegister+0x46>
 80017e0:	682b      	ldr	r3, [r5, #0]
 80017e2:	691c      	ldr	r4, [r3, #16]
 80017e4:	e7f1      	b.n	80017ca <HAL_ETH_WritePHYRegister+0x2a>
 80017e6:	2001      	movs	r0, #1
 80017e8:	e7f3      	b.n	80017d2 <HAL_ETH_WritePHYRegister+0x32>

080017ea <HAL_ETH_GetMACConfig>:
 80017ea:	2900      	cmp	r1, #0
 80017ec:	d05d      	beq.n	80018aa <HAL_ETH_GetMACConfig+0xc0>
 80017ee:	6803      	ldr	r3, [r0, #0]
 80017f0:	2000      	movs	r0, #0
 80017f2:	681a      	ldr	r2, [r3, #0]
 80017f4:	f3c2 1200 	ubfx	r2, r2, #4, #1
 80017f8:	f881 2028 	strb.w	r2, [r1, #40]	; 0x28
 80017fc:	681a      	ldr	r2, [r3, #0]
 80017fe:	f002 0260 	and.w	r2, r2, #96	; 0x60
 8001802:	624a      	str	r2, [r1, #36]	; 0x24
 8001804:	681a      	ldr	r2, [r3, #0]
 8001806:	f482 7200 	eor.w	r2, r2, #512	; 0x200
 800180a:	f3c2 2240 	ubfx	r2, r2, #9, #1
 800180e:	f881 2020 	strb.w	r2, [r1, #32]
 8001812:	681a      	ldr	r2, [r3, #0]
 8001814:	f3c2 4200 	ubfx	r2, r2, #16, #1
 8001818:	77ca      	strb	r2, [r1, #31]
 800181a:	681a      	ldr	r2, [r3, #0]
 800181c:	f482 5200 	eor.w	r2, r2, #8192	; 0x2000
 8001820:	f3c2 3240 	ubfx	r2, r2, #13, #1
 8001824:	778a      	strb	r2, [r1, #30]
 8001826:	681a      	ldr	r2, [r3, #0]
 8001828:	f3c2 3200 	ubfx	r2, r2, #12, #1
 800182c:	770a      	strb	r2, [r1, #28]
 800182e:	681a      	ldr	r2, [r3, #0]
 8001830:	f402 6200 	and.w	r2, r2, #2048	; 0x800
 8001834:	618a      	str	r2, [r1, #24]
 8001836:	681a      	ldr	r2, [r3, #0]
 8001838:	f402 4280 	and.w	r2, r2, #16384	; 0x4000
 800183c:	614a      	str	r2, [r1, #20]
 800183e:	681a      	ldr	r2, [r3, #0]
 8001840:	f482 0280 	eor.w	r2, r2, #4194304	; 0x400000
 8001844:	f3c2 5280 	ubfx	r2, r2, #22, #1
 8001848:	744a      	strb	r2, [r1, #17]
 800184a:	681a      	ldr	r2, [r3, #0]
 800184c:	f482 0200 	eor.w	r2, r2, #8388608	; 0x800000
 8001850:	f3c2 52c0 	ubfx	r2, r2, #23, #1
 8001854:	740a      	strb	r2, [r1, #16]
 8001856:	681a      	ldr	r2, [r3, #0]
 8001858:	f3c2 12c0 	ubfx	r2, r2, #7, #1
 800185c:	73ca      	strb	r2, [r1, #15]
 800185e:	681a      	ldr	r2, [r3, #0]
 8001860:	f402 2260 	and.w	r2, r2, #917504	; 0xe0000
 8001864:	608a      	str	r2, [r1, #8]
 8001866:	681a      	ldr	r2, [r3, #0]
 8001868:	f3c2 2280 	ubfx	r2, r2, #10, #1
 800186c:	710a      	strb	r2, [r1, #4]
 800186e:	699a      	ldr	r2, [r3, #24]
 8001870:	f3c2 0240 	ubfx	r2, r2, #1, #1
 8001874:	f881 2054 	strb.w	r2, [r1, #84]	; 0x54
 8001878:	699a      	ldr	r2, [r3, #24]
 800187a:	f082 0280 	eor.w	r2, r2, #128	; 0x80
 800187e:	f3c2 12c0 	ubfx	r2, r2, #7, #1
 8001882:	f881 204c 	strb.w	r2, [r1, #76]	; 0x4c
 8001886:	699a      	ldr	r2, [r3, #24]
 8001888:	f002 0230 	and.w	r2, r2, #48	; 0x30
 800188c:	650a      	str	r2, [r1, #80]	; 0x50
 800188e:	699a      	ldr	r2, [r3, #24]
 8001890:	0c12      	lsrs	r2, r2, #16
 8001892:	648a      	str	r2, [r1, #72]	; 0x48
 8001894:	699a      	ldr	r2, [r3, #24]
 8001896:	f3c2 0280 	ubfx	r2, r2, #2, #1
 800189a:	f881 2056 	strb.w	r2, [r1, #86]	; 0x56
 800189e:	699b      	ldr	r3, [r3, #24]
 80018a0:	f3c3 03c0 	ubfx	r3, r3, #3, #1
 80018a4:	f881 3055 	strb.w	r3, [r1, #85]	; 0x55
 80018a8:	4770      	bx	lr
 80018aa:	2001      	movs	r0, #1
 80018ac:	4770      	bx	lr

080018ae <HAL_ETH_SetMACConfig>:
 80018ae:	b508      	push	{r3, lr}
 80018b0:	b139      	cbz	r1, 80018c2 <HAL_ETH_SetMACConfig+0x14>
 80018b2:	f8d0 3084 	ldr.w	r3, [r0, #132]	; 0x84
 80018b6:	2b10      	cmp	r3, #16
 80018b8:	d103      	bne.n	80018c2 <HAL_ETH_SetMACConfig+0x14>
 80018ba:	f7ff fbff 	bl	80010bc <ETH_SetMACConfig>
 80018be:	2000      	movs	r0, #0
 80018c0:	bd08      	pop	{r3, pc}
 80018c2:	2001      	movs	r0, #1
 80018c4:	e7fc      	b.n	80018c0 <HAL_ETH_SetMACConfig+0x12>
	...

080018c8 <HAL_ETH_SetMDIOClockRange>:
 80018c8:	b538      	push	{r3, r4, r5, lr}
 80018ca:	6803      	ldr	r3, [r0, #0]
 80018cc:	4605      	mov	r5, r0
 80018ce:	691c      	ldr	r4, [r3, #16]
 80018d0:	f000 fc3e 	bl	8002150 <HAL_RCC_GetHCLKFreq>
 80018d4:	4b11      	ldr	r3, [pc, #68]	; (800191c <HAL_ETH_SetMDIOClockRange+0x54>)
 80018d6:	4a12      	ldr	r2, [pc, #72]	; (8001920 <HAL_ETH_SetMDIOClockRange+0x58>)
 80018d8:	f024 041c 	bic.w	r4, r4, #28
 80018dc:	4403      	add	r3, r0
 80018de:	4293      	cmp	r3, r2
 80018e0:	d204      	bcs.n	80018ec <HAL_ETH_SetMDIOClockRange+0x24>
 80018e2:	f044 0408 	orr.w	r4, r4, #8
 80018e6:	682b      	ldr	r3, [r5, #0]
 80018e8:	611c      	str	r4, [r3, #16]
 80018ea:	bd38      	pop	{r3, r4, r5, pc}
 80018ec:	4b0d      	ldr	r3, [pc, #52]	; (8001924 <HAL_ETH_SetMDIOClockRange+0x5c>)
 80018ee:	4a0e      	ldr	r2, [pc, #56]	; (8001928 <HAL_ETH_SetMDIOClockRange+0x60>)
 80018f0:	4403      	add	r3, r0
 80018f2:	4293      	cmp	r3, r2
 80018f4:	d802      	bhi.n	80018fc <HAL_ETH_SetMDIOClockRange+0x34>
 80018f6:	f044 040c 	orr.w	r4, r4, #12
 80018fa:	e7f4      	b.n	80018e6 <HAL_ETH_SetMDIOClockRange+0x1e>
 80018fc:	4b0b      	ldr	r3, [pc, #44]	; (800192c <HAL_ETH_SetMDIOClockRange+0x64>)
 80018fe:	4a0c      	ldr	r2, [pc, #48]	; (8001930 <HAL_ETH_SetMDIOClockRange+0x68>)
 8001900:	4403      	add	r3, r0
 8001902:	4293      	cmp	r3, r2
 8001904:	d3ef      	bcc.n	80018e6 <HAL_ETH_SetMDIOClockRange+0x1e>
 8001906:	4b0b      	ldr	r3, [pc, #44]	; (8001934 <HAL_ETH_SetMDIOClockRange+0x6c>)
 8001908:	4a0b      	ldr	r2, [pc, #44]	; (8001938 <HAL_ETH_SetMDIOClockRange+0x70>)
 800190a:	4403      	add	r3, r0
 800190c:	4293      	cmp	r3, r2
 800190e:	bf94      	ite	ls
 8001910:	f044 0404 	orrls.w	r4, r4, #4
 8001914:	f044 0410 	orrhi.w	r4, r4, #16
 8001918:	e7e5      	b.n	80018e6 <HAL_ETH_SetMDIOClockRange+0x1e>
 800191a:	bf00      	nop
 800191c:	feced300 	.word	0xfeced300
 8001920:	00e4e1c0 	.word	0x00e4e1c0
 8001924:	fde9f140 	.word	0xfde9f140
 8001928:	017d783f 	.word	0x017d783f
 800192c:	fc6c7900 	.word	0xfc6c7900
 8001930:	02625a00 	.word	0x02625a00
 8001934:	fa0a1f00 	.word	0xfa0a1f00
 8001938:	02faf07f 	.word	0x02faf07f

0800193c <HAL_GPIO_Init>:
 800193c:	e92d 4ff7 	stmdb	sp!, {r0, r1, r2, r4, r5, r6, r7, r8, r9, sl, fp, lr}
 8001940:	2300      	movs	r3, #0
 8001942:	f8df 91b8 	ldr.w	r9, [pc, #440]	; 8001afc <HAL_GPIO_Init+0x1c0>
 8001946:	4a6b      	ldr	r2, [pc, #428]	; (8001af4 <HAL_GPIO_Init+0x1b8>)
 8001948:	2401      	movs	r4, #1
 800194a:	680d      	ldr	r5, [r1, #0]
 800194c:	409c      	lsls	r4, r3
 800194e:	ea04 0c05 	and.w	ip, r4, r5
 8001952:	43ac      	bics	r4, r5
 8001954:	f040 80b4 	bne.w	8001ac0 <HAL_GPIO_Init+0x184>
 8001958:	684d      	ldr	r5, [r1, #4]
 800195a:	ea4f 0843 	mov.w	r8, r3, lsl #1
 800195e:	2603      	movs	r6, #3
 8001960:	f005 0403 	and.w	r4, r5, #3
 8001964:	fa06 f608 	lsl.w	r6, r6, r8
 8001968:	1e67      	subs	r7, r4, #1
 800196a:	43f6      	mvns	r6, r6
 800196c:	2f01      	cmp	r7, #1
 800196e:	d834      	bhi.n	80019da <HAL_GPIO_Init+0x9e>
 8001970:	6887      	ldr	r7, [r0, #8]
 8001972:	ea07 0e06 	and.w	lr, r7, r6
 8001976:	68cf      	ldr	r7, [r1, #12]
 8001978:	fa07 f708 	lsl.w	r7, r7, r8
 800197c:	ea47 070e 	orr.w	r7, r7, lr
 8001980:	6087      	str	r7, [r0, #8]
 8001982:	6847      	ldr	r7, [r0, #4]
 8001984:	ea27 0e0c 	bic.w	lr, r7, ip
 8001988:	f3c5 1700 	ubfx	r7, r5, #4, #1
 800198c:	409f      	lsls	r7, r3
 800198e:	ea47 070e 	orr.w	r7, r7, lr
 8001992:	6047      	str	r7, [r0, #4]
 8001994:	68c7      	ldr	r7, [r0, #12]
 8001996:	2c02      	cmp	r4, #2
 8001998:	ea07 0e06 	and.w	lr, r7, r6
 800199c:	688f      	ldr	r7, [r1, #8]
 800199e:	fa07 f708 	lsl.w	r7, r7, r8
 80019a2:	ea47 070e 	orr.w	r7, r7, lr
 80019a6:	60c7      	str	r7, [r0, #12]
 80019a8:	d119      	bne.n	80019de <HAL_GPIO_Init+0xa2>
 80019aa:	ea4f 0ad3 	mov.w	sl, r3, lsr #3
 80019ae:	f003 0b07 	and.w	fp, r3, #7
 80019b2:	f04f 0e0f 	mov.w	lr, #15
 80019b6:	eb00 0a8a 	add.w	sl, r0, sl, lsl #2
 80019ba:	ea4f 0b8b 	mov.w	fp, fp, lsl #2
 80019be:	f8da 7020 	ldr.w	r7, [sl, #32]
 80019c2:	fa0e fe0b 	lsl.w	lr, lr, fp
 80019c6:	ea27 0e0e 	bic.w	lr, r7, lr
 80019ca:	690f      	ldr	r7, [r1, #16]
 80019cc:	fa07 f70b 	lsl.w	r7, r7, fp
 80019d0:	ea47 070e 	orr.w	r7, r7, lr
 80019d4:	f8ca 7020 	str.w	r7, [sl, #32]
 80019d8:	e001      	b.n	80019de <HAL_GPIO_Init+0xa2>
 80019da:	2c03      	cmp	r4, #3
 80019dc:	d1da      	bne.n	8001994 <HAL_GPIO_Init+0x58>
 80019de:	6807      	ldr	r7, [r0, #0]
 80019e0:	fa04 f408 	lsl.w	r4, r4, r8
 80019e4:	f415 3f40 	tst.w	r5, #196608	; 0x30000
 80019e8:	ea07 0706 	and.w	r7, r7, r6
 80019ec:	ea44 0407 	orr.w	r4, r4, r7
 80019f0:	6004      	str	r4, [r0, #0]
 80019f2:	d065      	beq.n	8001ac0 <HAL_GPIO_Init+0x184>
 80019f4:	f8d9 4044 	ldr.w	r4, [r9, #68]	; 0x44
 80019f8:	f023 0603 	bic.w	r6, r3, #3
 80019fc:	f003 0703 	and.w	r7, r3, #3
 8001a00:	f444 4480 	orr.w	r4, r4, #16384	; 0x4000
 8001a04:	f106 4680 	add.w	r6, r6, #1073741824	; 0x40000000
 8001a08:	00bf      	lsls	r7, r7, #2
 8001a0a:	f8c9 4044 	str.w	r4, [r9, #68]	; 0x44
 8001a0e:	f506 369c 	add.w	r6, r6, #79872	; 0x13800
 8001a12:	f8d9 4044 	ldr.w	r4, [r9, #68]	; 0x44
 8001a16:	f404 4480 	and.w	r4, r4, #16384	; 0x4000
 8001a1a:	9401      	str	r4, [sp, #4]
 8001a1c:	9c01      	ldr	r4, [sp, #4]
 8001a1e:	240f      	movs	r4, #15
 8001a20:	f8d6 e008 	ldr.w	lr, [r6, #8]
 8001a24:	40bc      	lsls	r4, r7
 8001a26:	ea2e 0e04 	bic.w	lr, lr, r4
 8001a2a:	4c33      	ldr	r4, [pc, #204]	; (8001af8 <HAL_GPIO_Init+0x1bc>)
 8001a2c:	42a0      	cmp	r0, r4
 8001a2e:	d04e      	beq.n	8001ace <HAL_GPIO_Init+0x192>
 8001a30:	f504 6480 	add.w	r4, r4, #1024	; 0x400
 8001a34:	42a0      	cmp	r0, r4
 8001a36:	d04c      	beq.n	8001ad2 <HAL_GPIO_Init+0x196>
 8001a38:	f504 6480 	add.w	r4, r4, #1024	; 0x400
 8001a3c:	42a0      	cmp	r0, r4
 8001a3e:	d04a      	beq.n	8001ad6 <HAL_GPIO_Init+0x19a>
 8001a40:	f504 6480 	add.w	r4, r4, #1024	; 0x400
 8001a44:	42a0      	cmp	r0, r4
 8001a46:	d048      	beq.n	8001ada <HAL_GPIO_Init+0x19e>
 8001a48:	f504 6480 	add.w	r4, r4, #1024	; 0x400
 8001a4c:	42a0      	cmp	r0, r4
 8001a4e:	d046      	beq.n	8001ade <HAL_GPIO_Init+0x1a2>
 8001a50:	f504 6480 	add.w	r4, r4, #1024	; 0x400
 8001a54:	42a0      	cmp	r0, r4
 8001a56:	d044      	beq.n	8001ae2 <HAL_GPIO_Init+0x1a6>
 8001a58:	f504 6480 	add.w	r4, r4, #1024	; 0x400
 8001a5c:	42a0      	cmp	r0, r4
 8001a5e:	d042      	beq.n	8001ae6 <HAL_GPIO_Init+0x1aa>
 8001a60:	f504 6480 	add.w	r4, r4, #1024	; 0x400
 8001a64:	42a0      	cmp	r0, r4
 8001a66:	d040      	beq.n	8001aea <HAL_GPIO_Init+0x1ae>
 8001a68:	f504 6480 	add.w	r4, r4, #1024	; 0x400
 8001a6c:	42a0      	cmp	r0, r4
 8001a6e:	d03e      	beq.n	8001aee <HAL_GPIO_Init+0x1b2>
 8001a70:	f504 6480 	add.w	r4, r4, #1024	; 0x400
 8001a74:	42a0      	cmp	r0, r4
 8001a76:	bf0c      	ite	eq
 8001a78:	2409      	moveq	r4, #9
 8001a7a:	240a      	movne	r4, #10
 8001a7c:	40bc      	lsls	r4, r7
 8001a7e:	02ef      	lsls	r7, r5, #11
 8001a80:	ea44 040e 	orr.w	r4, r4, lr
 8001a84:	60b4      	str	r4, [r6, #8]
 8001a86:	ea6f 060c 	mvn.w	r6, ip
 8001a8a:	6894      	ldr	r4, [r2, #8]
 8001a8c:	bf54      	ite	pl
 8001a8e:	4034      	andpl	r4, r6
 8001a90:	ea4c 0404 	orrmi.w	r4, ip, r4
 8001a94:	02af      	lsls	r7, r5, #10
 8001a96:	6094      	str	r4, [r2, #8]
 8001a98:	68d4      	ldr	r4, [r2, #12]
 8001a9a:	bf54      	ite	pl
 8001a9c:	4034      	andpl	r4, r6
 8001a9e:	ea4c 0404 	orrmi.w	r4, ip, r4
 8001aa2:	03af      	lsls	r7, r5, #14
 8001aa4:	60d4      	str	r4, [r2, #12]
 8001aa6:	6854      	ldr	r4, [r2, #4]
 8001aa8:	bf54      	ite	pl
 8001aaa:	4034      	andpl	r4, r6
 8001aac:	ea4c 0404 	orrmi.w	r4, ip, r4
 8001ab0:	03ed      	lsls	r5, r5, #15
 8001ab2:	6054      	str	r4, [r2, #4]
 8001ab4:	6814      	ldr	r4, [r2, #0]
 8001ab6:	bf54      	ite	pl
 8001ab8:	4034      	andpl	r4, r6
 8001aba:	ea4c 0404 	orrmi.w	r4, ip, r4
 8001abe:	6014      	str	r4, [r2, #0]
 8001ac0:	3301      	adds	r3, #1
 8001ac2:	2b10      	cmp	r3, #16
 8001ac4:	f47f af40 	bne.w	8001948 <HAL_GPIO_Init+0xc>
 8001ac8:	b003      	add	sp, #12
 8001aca:	e8bd 8ff0 	ldmia.w	sp!, {r4, r5, r6, r7, r8, r9, sl, fp, pc}
 8001ace:	2400      	movs	r4, #0
 8001ad0:	e7d4      	b.n	8001a7c <HAL_GPIO_Init+0x140>
 8001ad2:	2401      	movs	r4, #1
 8001ad4:	e7d2      	b.n	8001a7c <HAL_GPIO_Init+0x140>
 8001ad6:	2402      	movs	r4, #2
 8001ad8:	e7d0      	b.n	8001a7c <HAL_GPIO_Init+0x140>
 8001ada:	2403      	movs	r4, #3
 8001adc:	e7ce      	b.n	8001a7c <HAL_GPIO_Init+0x140>
 8001ade:	2404      	movs	r4, #4
 8001ae0:	e7cc      	b.n	8001a7c <HAL_GPIO_Init+0x140>
 8001ae2:	2405      	movs	r4, #5
 8001ae4:	e7ca      	b.n	8001a7c <HAL_GPIO_Init+0x140>
 8001ae6:	2406      	movs	r4, #6
 8001ae8:	e7c8      	b.n	8001a7c <HAL_GPIO_Init+0x140>
 8001aea:	2407      	movs	r4, #7
 8001aec:	e7c6      	b.n	8001a7c <HAL_GPIO_Init+0x140>
 8001aee:	2408      	movs	r4, #8
 8001af0:	e7c4      	b.n	8001a7c <HAL_GPIO_Init+0x140>
 8001af2:	bf00      	nop
 8001af4:	40013c00 	.word	0x40013c00
 8001af8:	40020000 	.word	0x40020000
 8001afc:	40023800 	.word	0x40023800

08001b00 <HAL_GPIO_WritePin>:
 8001b00:	b10a      	cbz	r2, 8001b06 <HAL_GPIO_WritePin+0x6>
 8001b02:	6181      	str	r1, [r0, #24]
 8001b04:	4770      	bx	lr
 8001b06:	0409      	lsls	r1, r1, #16
 8001b08:	e7fb      	b.n	8001b02 <HAL_GPIO_WritePin+0x2>

08001b0a <HAL_PCD_Init>:
 8001b0a:	b5f0      	push	{r4, r5, r6, r7, lr}
 8001b0c:	4604      	mov	r4, r0
 8001b0e:	b08b      	sub	sp, #44	; 0x2c
 8001b10:	b360      	cbz	r0, 8001b6c <HAL_PCD_Init+0x62>
 8001b12:	f890 34bd 	ldrb.w	r3, [r0, #1213]	; 0x4bd
 8001b16:	6805      	ldr	r5, [r0, #0]
 8001b18:	f003 02ff 	and.w	r2, r3, #255	; 0xff
 8001b1c:	b91b      	cbnz	r3, 8001b26 <HAL_PCD_Init+0x1c>
 8001b1e:	f880 24bc 	strb.w	r2, [r0, #1212]	; 0x4bc
 8001b22:	f7fe ffb5 	bl	8000a90 <HAL_PCD_MspInit>
 8001b26:	2303      	movs	r3, #3
 8001b28:	466e      	mov	r6, sp
 8001b2a:	1d27      	adds	r7, r4, #4
 8001b2c:	f884 34bd 	strb.w	r3, [r4, #1213]	; 0x4bd
 8001b30:	6beb      	ldr	r3, [r5, #60]	; 0x3c
 8001b32:	4625      	mov	r5, r4
 8001b34:	f413 7380 	ands.w	r3, r3, #256	; 0x100
 8001b38:	f855 0b10 	ldr.w	r0, [r5], #16
 8001b3c:	bf08      	it	eq
 8001b3e:	6123      	streq	r3, [r4, #16]
 8001b40:	f001 fac7 	bl	80030d2 <USB_DisableGlobalInt>
 8001b44:	cd0f      	ldmia	r5!, {r0, r1, r2, r3}
 8001b46:	c60f      	stmia	r6!, {r0, r1, r2, r3}
 8001b48:	cd0f      	ldmia	r5!, {r0, r1, r2, r3}
 8001b4a:	c60f      	stmia	r6!, {r0, r1, r2, r3}
 8001b4c:	e895 0003 	ldmia.w	r5, {r0, r1}
 8001b50:	4625      	mov	r5, r4
 8001b52:	e886 0003 	stmia.w	r6, {r0, r1}
 8001b56:	e897 000e 	ldmia.w	r7, {r1, r2, r3}
 8001b5a:	f855 0b10 	ldr.w	r0, [r5], #16
 8001b5e:	f001 fa7d 	bl	800305c <USB_CoreInit>
 8001b62:	4606      	mov	r6, r0
 8001b64:	b120      	cbz	r0, 8001b70 <HAL_PCD_Init+0x66>
 8001b66:	2302      	movs	r3, #2
 8001b68:	f884 34bd 	strb.w	r3, [r4, #1213]	; 0x4bd
 8001b6c:	2501      	movs	r5, #1
 8001b6e:	e052      	b.n	8001c16 <HAL_PCD_Init+0x10c>
 8001b70:	4601      	mov	r1, r0
 8001b72:	6820      	ldr	r0, [r4, #0]
 8001b74:	f001 fab3 	bl	80030de <USB_SetCurrentMode>
 8001b78:	4630      	mov	r0, r6
 8001b7a:	f8d4 c004 	ldr.w	ip, [r4, #4]
 8001b7e:	2624      	movs	r6, #36	; 0x24
 8001b80:	f04f 0e01 	mov.w	lr, #1
 8001b84:	4601      	mov	r1, r0
 8001b86:	b2c2      	uxtb	r2, r0
 8001b88:	3001      	adds	r0, #1
 8001b8a:	4594      	cmp	ip, r2
 8001b8c:	d81b      	bhi.n	8001bc6 <HAL_PCD_Init+0xbc>
 8001b8e:	2300      	movs	r3, #0
 8001b90:	2624      	movs	r6, #36	; 0x24
 8001b92:	4619      	mov	r1, r3
 8001b94:	b2d8      	uxtb	r0, r3
 8001b96:	3301      	adds	r3, #1
 8001b98:	4584      	cmp	ip, r0
 8001b9a:	d822      	bhi.n	8001be2 <HAL_PCD_Init+0xd8>
 8001b9c:	466e      	mov	r6, sp
 8001b9e:	cd0f      	ldmia	r5!, {r0, r1, r2, r3}
 8001ba0:	c60f      	stmia	r6!, {r0, r1, r2, r3}
 8001ba2:	cd0f      	ldmia	r5!, {r0, r1, r2, r3}
 8001ba4:	c60f      	stmia	r6!, {r0, r1, r2, r3}
 8001ba6:	e895 0003 	ldmia.w	r5, {r0, r1}
 8001baa:	e886 0003 	stmia.w	r6, {r0, r1}
 8001bae:	e897 000e 	ldmia.w	r7, {r1, r2, r3}
 8001bb2:	6820      	ldr	r0, [r4, #0]
 8001bb4:	f001 fb14 	bl	80031e0 <USB_DevInit>
 8001bb8:	2301      	movs	r3, #1
 8001bba:	4605      	mov	r5, r0
 8001bbc:	b1f0      	cbz	r0, 8001bfc <HAL_PCD_Init+0xf2>
 8001bbe:	2202      	movs	r2, #2
 8001bc0:	f884 24bd 	strb.w	r2, [r4, #1213]	; 0x4bd
 8001bc4:	e7d2      	b.n	8001b6c <HAL_PCD_Init+0x62>
 8001bc6:	fb06 4302 	mla	r3, r6, r2, r4
 8001bca:	f883 e03d 	strb.w	lr, [r3, #61]	; 0x3d
 8001bce:	f883 203c 	strb.w	r2, [r3, #60]	; 0x3c
 8001bd2:	f8a3 2044 	strh.w	r2, [r3, #68]	; 0x44
 8001bd6:	f883 1040 	strb.w	r1, [r3, #64]	; 0x40
 8001bda:	6559      	str	r1, [r3, #84]	; 0x54
 8001bdc:	e9c3 1112 	strd	r1, r1, [r3, #72]	; 0x48
 8001be0:	e7d1      	b.n	8001b86 <HAL_PCD_Init+0x7c>
 8001be2:	fb06 4200 	mla	r2, r6, r0, r4
 8001be6:	f882 127d 	strb.w	r1, [r2, #637]	; 0x27d
 8001bea:	f882 027c 	strb.w	r0, [r2, #636]	; 0x27c
 8001bee:	f882 1280 	strb.w	r1, [r2, #640]	; 0x280
 8001bf2:	f8c2 1294 	str.w	r1, [r2, #660]	; 0x294
 8001bf6:	e9c2 11a2 	strd	r1, r1, [r2, #648]	; 0x288
 8001bfa:	e7cb      	b.n	8001b94 <HAL_PCD_Init+0x8a>
 8001bfc:	f884 0038 	strb.w	r0, [r4, #56]	; 0x38
 8001c00:	f884 34bd 	strb.w	r3, [r4, #1213]	; 0x4bd
 8001c04:	6a63      	ldr	r3, [r4, #36]	; 0x24
 8001c06:	2b01      	cmp	r3, #1
 8001c08:	d102      	bne.n	8001c10 <HAL_PCD_Init+0x106>
 8001c0a:	4620      	mov	r0, r4
 8001c0c:	f000 f806 	bl	8001c1c <HAL_PCDEx_ActivateLPM>
 8001c10:	6820      	ldr	r0, [r4, #0]
 8001c12:	f001 fb9b 	bl	800334c <USB_DevDisconnect>
 8001c16:	4628      	mov	r0, r5
 8001c18:	b00b      	add	sp, #44	; 0x2c
 8001c1a:	bdf0      	pop	{r4, r5, r6, r7, pc}

08001c1c <HAL_PCDEx_ActivateLPM>:
 8001c1c:	6802      	ldr	r2, [r0, #0]
 8001c1e:	2100      	movs	r1, #0
 8001c20:	2301      	movs	r3, #1
 8001c22:	f880 14f4 	strb.w	r1, [r0, #1268]	; 0x4f4
 8001c26:	f8c0 3500 	str.w	r3, [r0, #1280]	; 0x500
 8001c2a:	4608      	mov	r0, r1
 8001c2c:	6993      	ldr	r3, [r2, #24]
 8001c2e:	f043 6300 	orr.w	r3, r3, #134217728	; 0x8000000
 8001c32:	6193      	str	r3, [r2, #24]
 8001c34:	6d53      	ldr	r3, [r2, #84]	; 0x54
 8001c36:	f043 5380 	orr.w	r3, r3, #268435456	; 0x10000000
 8001c3a:	f043 0303 	orr.w	r3, r3, #3
 8001c3e:	6553      	str	r3, [r2, #84]	; 0x54
 8001c40:	4770      	bx	lr
	...

08001c44 <HAL_RCC_OscConfig>:
 8001c44:	e92d 41f3 	stmdb	sp!, {r0, r1, r4, r5, r6, r7, r8, lr}
 8001c48:	4604      	mov	r4, r0
 8001c4a:	b340      	cbz	r0, 8001c9e <HAL_RCC_OscConfig+0x5a>
 8001c4c:	6803      	ldr	r3, [r0, #0]
 8001c4e:	07db      	lsls	r3, r3, #31
 8001c50:	d410      	bmi.n	8001c74 <HAL_RCC_OscConfig+0x30>
 8001c52:	6823      	ldr	r3, [r4, #0]
 8001c54:	079f      	lsls	r7, r3, #30
 8001c56:	d461      	bmi.n	8001d1c <HAL_RCC_OscConfig+0xd8>
 8001c58:	6823      	ldr	r3, [r4, #0]
 8001c5a:	0719      	lsls	r1, r3, #28
 8001c5c:	f100 80a6 	bmi.w	8001dac <HAL_RCC_OscConfig+0x168>
 8001c60:	6823      	ldr	r3, [r4, #0]
 8001c62:	075a      	lsls	r2, r3, #29
 8001c64:	f100 80c7 	bmi.w	8001df6 <HAL_RCC_OscConfig+0x1b2>
 8001c68:	69a2      	ldr	r2, [r4, #24]
 8001c6a:	2a00      	cmp	r2, #0
 8001c6c:	f040 8130 	bne.w	8001ed0 <HAL_RCC_OscConfig+0x28c>
 8001c70:	2000      	movs	r0, #0
 8001c72:	e02c      	b.n	8001cce <HAL_RCC_OscConfig+0x8a>
 8001c74:	4b94      	ldr	r3, [pc, #592]	; (8001ec8 <HAL_RCC_OscConfig+0x284>)
 8001c76:	689a      	ldr	r2, [r3, #8]
 8001c78:	f002 020c 	and.w	r2, r2, #12
 8001c7c:	2a04      	cmp	r2, #4
 8001c7e:	d007      	beq.n	8001c90 <HAL_RCC_OscConfig+0x4c>
 8001c80:	689a      	ldr	r2, [r3, #8]
 8001c82:	f002 020c 	and.w	r2, r2, #12
 8001c86:	2a08      	cmp	r2, #8
 8001c88:	d10b      	bne.n	8001ca2 <HAL_RCC_OscConfig+0x5e>
 8001c8a:	685b      	ldr	r3, [r3, #4]
 8001c8c:	025e      	lsls	r6, r3, #9
 8001c8e:	d508      	bpl.n	8001ca2 <HAL_RCC_OscConfig+0x5e>
 8001c90:	4b8d      	ldr	r3, [pc, #564]	; (8001ec8 <HAL_RCC_OscConfig+0x284>)
 8001c92:	681b      	ldr	r3, [r3, #0]
 8001c94:	039d      	lsls	r5, r3, #14
 8001c96:	d5dc      	bpl.n	8001c52 <HAL_RCC_OscConfig+0xe>
 8001c98:	6863      	ldr	r3, [r4, #4]
 8001c9a:	2b00      	cmp	r3, #0
 8001c9c:	d1d9      	bne.n	8001c52 <HAL_RCC_OscConfig+0xe>
 8001c9e:	2001      	movs	r0, #1
 8001ca0:	e015      	b.n	8001cce <HAL_RCC_OscConfig+0x8a>
 8001ca2:	6863      	ldr	r3, [r4, #4]
 8001ca4:	4d88      	ldr	r5, [pc, #544]	; (8001ec8 <HAL_RCC_OscConfig+0x284>)
 8001ca6:	f5b3 3f80 	cmp.w	r3, #65536	; 0x10000
 8001caa:	d113      	bne.n	8001cd4 <HAL_RCC_OscConfig+0x90>
 8001cac:	682b      	ldr	r3, [r5, #0]
 8001cae:	f443 3380 	orr.w	r3, r3, #65536	; 0x10000
 8001cb2:	602b      	str	r3, [r5, #0]
 8001cb4:	f7ff f8dc 	bl	8000e70 <HAL_GetTick>
 8001cb8:	4e83      	ldr	r6, [pc, #524]	; (8001ec8 <HAL_RCC_OscConfig+0x284>)
 8001cba:	4605      	mov	r5, r0
 8001cbc:	6833      	ldr	r3, [r6, #0]
 8001cbe:	0398      	lsls	r0, r3, #14
 8001cc0:	d4c7      	bmi.n	8001c52 <HAL_RCC_OscConfig+0xe>
 8001cc2:	f7ff f8d5 	bl	8000e70 <HAL_GetTick>
 8001cc6:	1b40      	subs	r0, r0, r5
 8001cc8:	2864      	cmp	r0, #100	; 0x64
 8001cca:	d9f7      	bls.n	8001cbc <HAL_RCC_OscConfig+0x78>
 8001ccc:	2003      	movs	r0, #3
 8001cce:	b002      	add	sp, #8
 8001cd0:	e8bd 81f0 	ldmia.w	sp!, {r4, r5, r6, r7, r8, pc}
 8001cd4:	b99b      	cbnz	r3, 8001cfe <HAL_RCC_OscConfig+0xba>
 8001cd6:	682b      	ldr	r3, [r5, #0]
 8001cd8:	f423 3380 	bic.w	r3, r3, #65536	; 0x10000
 8001cdc:	602b      	str	r3, [r5, #0]
 8001cde:	682b      	ldr	r3, [r5, #0]
 8001ce0:	f423 2380 	bic.w	r3, r3, #262144	; 0x40000
 8001ce4:	602b      	str	r3, [r5, #0]
 8001ce6:	f7ff f8c3 	bl	8000e70 <HAL_GetTick>
 8001cea:	4606      	mov	r6, r0
 8001cec:	682b      	ldr	r3, [r5, #0]
 8001cee:	0399      	lsls	r1, r3, #14
 8001cf0:	d5af      	bpl.n	8001c52 <HAL_RCC_OscConfig+0xe>
 8001cf2:	f7ff f8bd 	bl	8000e70 <HAL_GetTick>
 8001cf6:	1b80      	subs	r0, r0, r6
 8001cf8:	2864      	cmp	r0, #100	; 0x64
 8001cfa:	d9f7      	bls.n	8001cec <HAL_RCC_OscConfig+0xa8>
 8001cfc:	e7e6      	b.n	8001ccc <HAL_RCC_OscConfig+0x88>
 8001cfe:	f5b3 2fa0 	cmp.w	r3, #327680	; 0x50000
 8001d02:	682b      	ldr	r3, [r5, #0]
 8001d04:	d103      	bne.n	8001d0e <HAL_RCC_OscConfig+0xca>
 8001d06:	f443 2380 	orr.w	r3, r3, #262144	; 0x40000
 8001d0a:	602b      	str	r3, [r5, #0]
 8001d0c:	e7ce      	b.n	8001cac <HAL_RCC_OscConfig+0x68>
 8001d0e:	f423 3380 	bic.w	r3, r3, #65536	; 0x10000
 8001d12:	602b      	str	r3, [r5, #0]
 8001d14:	682b      	ldr	r3, [r5, #0]
 8001d16:	f423 2380 	bic.w	r3, r3, #262144	; 0x40000
 8001d1a:	e7ca      	b.n	8001cb2 <HAL_RCC_OscConfig+0x6e>
 8001d1c:	4b6a      	ldr	r3, [pc, #424]	; (8001ec8 <HAL_RCC_OscConfig+0x284>)
 8001d1e:	689a      	ldr	r2, [r3, #8]
 8001d20:	f012 0f0c 	tst.w	r2, #12
 8001d24:	d007      	beq.n	8001d36 <HAL_RCC_OscConfig+0xf2>
 8001d26:	689a      	ldr	r2, [r3, #8]
 8001d28:	f002 020c 	and.w	r2, r2, #12
 8001d2c:	2a08      	cmp	r2, #8
 8001d2e:	d111      	bne.n	8001d54 <HAL_RCC_OscConfig+0x110>
 8001d30:	685b      	ldr	r3, [r3, #4]
 8001d32:	025a      	lsls	r2, r3, #9
 8001d34:	d40e      	bmi.n	8001d54 <HAL_RCC_OscConfig+0x110>
 8001d36:	4a64      	ldr	r2, [pc, #400]	; (8001ec8 <HAL_RCC_OscConfig+0x284>)
 8001d38:	6813      	ldr	r3, [r2, #0]
 8001d3a:	079b      	lsls	r3, r3, #30
 8001d3c:	d502      	bpl.n	8001d44 <HAL_RCC_OscConfig+0x100>
 8001d3e:	68e3      	ldr	r3, [r4, #12]
 8001d40:	2b01      	cmp	r3, #1
 8001d42:	d1ac      	bne.n	8001c9e <HAL_RCC_OscConfig+0x5a>
 8001d44:	6813      	ldr	r3, [r2, #0]
 8001d46:	6921      	ldr	r1, [r4, #16]
 8001d48:	f023 03f8 	bic.w	r3, r3, #248	; 0xf8
 8001d4c:	ea43 03c1 	orr.w	r3, r3, r1, lsl #3
 8001d50:	6013      	str	r3, [r2, #0]
 8001d52:	e781      	b.n	8001c58 <HAL_RCC_OscConfig+0x14>
 8001d54:	68e3      	ldr	r3, [r4, #12]
 8001d56:	4d5c      	ldr	r5, [pc, #368]	; (8001ec8 <HAL_RCC_OscConfig+0x284>)
 8001d58:	b1bb      	cbz	r3, 8001d8a <HAL_RCC_OscConfig+0x146>
 8001d5a:	682b      	ldr	r3, [r5, #0]
 8001d5c:	f043 0301 	orr.w	r3, r3, #1
 8001d60:	602b      	str	r3, [r5, #0]
 8001d62:	f7ff f885 	bl	8000e70 <HAL_GetTick>
 8001d66:	4606      	mov	r6, r0
 8001d68:	682b      	ldr	r3, [r5, #0]
 8001d6a:	079f      	lsls	r7, r3, #30
 8001d6c:	d507      	bpl.n	8001d7e <HAL_RCC_OscConfig+0x13a>
 8001d6e:	682b      	ldr	r3, [r5, #0]
 8001d70:	6922      	ldr	r2, [r4, #16]
 8001d72:	f023 03f8 	bic.w	r3, r3, #248	; 0xf8
 8001d76:	ea43 03c2 	orr.w	r3, r3, r2, lsl #3
 8001d7a:	602b      	str	r3, [r5, #0]
 8001d7c:	e76c      	b.n	8001c58 <HAL_RCC_OscConfig+0x14>
 8001d7e:	f7ff f877 	bl	8000e70 <HAL_GetTick>
 8001d82:	1b80      	subs	r0, r0, r6
 8001d84:	2802      	cmp	r0, #2
 8001d86:	d9ef      	bls.n	8001d68 <HAL_RCC_OscConfig+0x124>
 8001d88:	e7a0      	b.n	8001ccc <HAL_RCC_OscConfig+0x88>
 8001d8a:	682b      	ldr	r3, [r5, #0]
 8001d8c:	f023 0301 	bic.w	r3, r3, #1
 8001d90:	602b      	str	r3, [r5, #0]
 8001d92:	f7ff f86d 	bl	8000e70 <HAL_GetTick>
 8001d96:	4606      	mov	r6, r0
 8001d98:	682b      	ldr	r3, [r5, #0]
 8001d9a:	0798      	lsls	r0, r3, #30
 8001d9c:	f57f af5c 	bpl.w	8001c58 <HAL_RCC_OscConfig+0x14>
 8001da0:	f7ff f866 	bl	8000e70 <HAL_GetTick>
 8001da4:	1b80      	subs	r0, r0, r6
 8001da6:	2802      	cmp	r0, #2
 8001da8:	d9f6      	bls.n	8001d98 <HAL_RCC_OscConfig+0x154>
 8001daa:	e78f      	b.n	8001ccc <HAL_RCC_OscConfig+0x88>
 8001dac:	6963      	ldr	r3, [r4, #20]
 8001dae:	4d46      	ldr	r5, [pc, #280]	; (8001ec8 <HAL_RCC_OscConfig+0x284>)
 8001db0:	b183      	cbz	r3, 8001dd4 <HAL_RCC_OscConfig+0x190>
 8001db2:	6f6b      	ldr	r3, [r5, #116]	; 0x74
 8001db4:	f043 0301 	orr.w	r3, r3, #1
 8001db8:	676b      	str	r3, [r5, #116]	; 0x74
 8001dba:	f7ff f859 	bl	8000e70 <HAL_GetTick>
 8001dbe:	4606      	mov	r6, r0
 8001dc0:	6f6b      	ldr	r3, [r5, #116]	; 0x74
 8001dc2:	079b      	lsls	r3, r3, #30
 8001dc4:	f53f af4c 	bmi.w	8001c60 <HAL_RCC_OscConfig+0x1c>
 8001dc8:	f7ff f852 	bl	8000e70 <HAL_GetTick>
 8001dcc:	1b80      	subs	r0, r0, r6
 8001dce:	2802      	cmp	r0, #2
 8001dd0:	d9f6      	bls.n	8001dc0 <HAL_RCC_OscConfig+0x17c>
 8001dd2:	e77b      	b.n	8001ccc <HAL_RCC_OscConfig+0x88>
 8001dd4:	6f6b      	ldr	r3, [r5, #116]	; 0x74
 8001dd6:	f023 0301 	bic.w	r3, r3, #1
 8001dda:	676b      	str	r3, [r5, #116]	; 0x74
 8001ddc:	f7ff f848 	bl	8000e70 <HAL_GetTick>
 8001de0:	4606      	mov	r6, r0
 8001de2:	6f6b      	ldr	r3, [r5, #116]	; 0x74
 8001de4:	079f      	lsls	r7, r3, #30
 8001de6:	f57f af3b 	bpl.w	8001c60 <HAL_RCC_OscConfig+0x1c>
 8001dea:	f7ff f841 	bl	8000e70 <HAL_GetTick>
 8001dee:	1b80      	subs	r0, r0, r6
 8001df0:	2802      	cmp	r0, #2
 8001df2:	d9f6      	bls.n	8001de2 <HAL_RCC_OscConfig+0x19e>
 8001df4:	e76a      	b.n	8001ccc <HAL_RCC_OscConfig+0x88>
 8001df6:	4b34      	ldr	r3, [pc, #208]	; (8001ec8 <HAL_RCC_OscConfig+0x284>)
 8001df8:	6c1a      	ldr	r2, [r3, #64]	; 0x40
 8001dfa:	00d0      	lsls	r0, r2, #3
 8001dfc:	d427      	bmi.n	8001e4e <HAL_RCC_OscConfig+0x20a>
 8001dfe:	6c1a      	ldr	r2, [r3, #64]	; 0x40
 8001e00:	2701      	movs	r7, #1
 8001e02:	f042 5280 	orr.w	r2, r2, #268435456	; 0x10000000
 8001e06:	641a      	str	r2, [r3, #64]	; 0x40
 8001e08:	6c1b      	ldr	r3, [r3, #64]	; 0x40
 8001e0a:	f003 5380 	and.w	r3, r3, #268435456	; 0x10000000
 8001e0e:	9301      	str	r3, [sp, #4]
 8001e10:	9b01      	ldr	r3, [sp, #4]
 8001e12:	4d2e      	ldr	r5, [pc, #184]	; (8001ecc <HAL_RCC_OscConfig+0x288>)
 8001e14:	682b      	ldr	r3, [r5, #0]
 8001e16:	05d9      	lsls	r1, r3, #23
 8001e18:	d51b      	bpl.n	8001e52 <HAL_RCC_OscConfig+0x20e>
 8001e1a:	68a3      	ldr	r3, [r4, #8]
 8001e1c:	4d2a      	ldr	r5, [pc, #168]	; (8001ec8 <HAL_RCC_OscConfig+0x284>)
 8001e1e:	2b01      	cmp	r3, #1
 8001e20:	d127      	bne.n	8001e72 <HAL_RCC_OscConfig+0x22e>
 8001e22:	6f2b      	ldr	r3, [r5, #112]	; 0x70
 8001e24:	f043 0301 	orr.w	r3, r3, #1
 8001e28:	672b      	str	r3, [r5, #112]	; 0x70
 8001e2a:	f241 3888 	movw	r8, #5000	; 0x1388
 8001e2e:	f7ff f81f 	bl	8000e70 <HAL_GetTick>
 8001e32:	4e25      	ldr	r6, [pc, #148]	; (8001ec8 <HAL_RCC_OscConfig+0x284>)
 8001e34:	4605      	mov	r5, r0
 8001e36:	6f33      	ldr	r3, [r6, #112]	; 0x70
 8001e38:	079b      	lsls	r3, r3, #30
 8001e3a:	d53f      	bpl.n	8001ebc <HAL_RCC_OscConfig+0x278>
 8001e3c:	2f00      	cmp	r7, #0
 8001e3e:	f43f af13 	beq.w	8001c68 <HAL_RCC_OscConfig+0x24>
 8001e42:	4a21      	ldr	r2, [pc, #132]	; (8001ec8 <HAL_RCC_OscConfig+0x284>)
 8001e44:	6c13      	ldr	r3, [r2, #64]	; 0x40
 8001e46:	f023 5380 	bic.w	r3, r3, #268435456	; 0x10000000
 8001e4a:	6413      	str	r3, [r2, #64]	; 0x40
 8001e4c:	e70c      	b.n	8001c68 <HAL_RCC_OscConfig+0x24>
 8001e4e:	2700      	movs	r7, #0
 8001e50:	e7df      	b.n	8001e12 <HAL_RCC_OscConfig+0x1ce>
 8001e52:	682b      	ldr	r3, [r5, #0]
 8001e54:	f443 7380 	orr.w	r3, r3, #256	; 0x100
 8001e58:	602b      	str	r3, [r5, #0]
 8001e5a:	f7ff f809 	bl	8000e70 <HAL_GetTick>
 8001e5e:	4606      	mov	r6, r0
 8001e60:	682b      	ldr	r3, [r5, #0]
 8001e62:	05da      	lsls	r2, r3, #23
 8001e64:	d4d9      	bmi.n	8001e1a <HAL_RCC_OscConfig+0x1d6>
 8001e66:	f7ff f803 	bl	8000e70 <HAL_GetTick>
 8001e6a:	1b80      	subs	r0, r0, r6
 8001e6c:	2864      	cmp	r0, #100	; 0x64
 8001e6e:	d9f7      	bls.n	8001e60 <HAL_RCC_OscConfig+0x21c>
 8001e70:	e72c      	b.n	8001ccc <HAL_RCC_OscConfig+0x88>
 8001e72:	b9ab      	cbnz	r3, 8001ea0 <HAL_RCC_OscConfig+0x25c>
 8001e74:	6f2b      	ldr	r3, [r5, #112]	; 0x70
 8001e76:	f241 3888 	movw	r8, #5000	; 0x1388
 8001e7a:	f023 0301 	bic.w	r3, r3, #1
 8001e7e:	672b      	str	r3, [r5, #112]	; 0x70
 8001e80:	6f2b      	ldr	r3, [r5, #112]	; 0x70
 8001e82:	f023 0304 	bic.w	r3, r3, #4
 8001e86:	672b      	str	r3, [r5, #112]	; 0x70
 8001e88:	f7fe fff2 	bl	8000e70 <HAL_GetTick>
 8001e8c:	4606      	mov	r6, r0
 8001e8e:	6f2b      	ldr	r3, [r5, #112]	; 0x70
 8001e90:	0798      	lsls	r0, r3, #30
 8001e92:	d5d3      	bpl.n	8001e3c <HAL_RCC_OscConfig+0x1f8>
 8001e94:	f7fe ffec 	bl	8000e70 <HAL_GetTick>
 8001e98:	1b80      	subs	r0, r0, r6
 8001e9a:	4540      	cmp	r0, r8
 8001e9c:	d9f7      	bls.n	8001e8e <HAL_RCC_OscConfig+0x24a>
 8001e9e:	e715      	b.n	8001ccc <HAL_RCC_OscConfig+0x88>
 8001ea0:	2b05      	cmp	r3, #5
 8001ea2:	6f2b      	ldr	r3, [r5, #112]	; 0x70
 8001ea4:	d103      	bne.n	8001eae <HAL_RCC_OscConfig+0x26a>
 8001ea6:	f043 0304 	orr.w	r3, r3, #4
 8001eaa:	672b      	str	r3, [r5, #112]	; 0x70
 8001eac:	e7b9      	b.n	8001e22 <HAL_RCC_OscConfig+0x1de>
 8001eae:	f023 0301 	bic.w	r3, r3, #1
 8001eb2:	672b      	str	r3, [r5, #112]	; 0x70
 8001eb4:	6f2b      	ldr	r3, [r5, #112]	; 0x70
 8001eb6:	f023 0304 	bic.w	r3, r3, #4
 8001eba:	e7b5      	b.n	8001e28 <HAL_RCC_OscConfig+0x1e4>
 8001ebc:	f7fe ffd8 	bl	8000e70 <HAL_GetTick>
 8001ec0:	1b40      	subs	r0, r0, r5
 8001ec2:	4540      	cmp	r0, r8
 8001ec4:	d9b7      	bls.n	8001e36 <HAL_RCC_OscConfig+0x1f2>
 8001ec6:	e701      	b.n	8001ccc <HAL_RCC_OscConfig+0x88>
 8001ec8:	40023800 	.word	0x40023800
 8001ecc:	40007000 	.word	0x40007000
 8001ed0:	4d38      	ldr	r5, [pc, #224]	; (8001fb4 <HAL_RCC_OscConfig+0x370>)
 8001ed2:	68ab      	ldr	r3, [r5, #8]
 8001ed4:	f003 030c 	and.w	r3, r3, #12
 8001ed8:	2b08      	cmp	r3, #8
 8001eda:	d041      	beq.n	8001f60 <HAL_RCC_OscConfig+0x31c>
 8001edc:	682b      	ldr	r3, [r5, #0]
 8001ede:	2a02      	cmp	r2, #2
 8001ee0:	f023 7380 	bic.w	r3, r3, #16777216	; 0x1000000
 8001ee4:	602b      	str	r3, [r5, #0]
 8001ee6:	d12e      	bne.n	8001f46 <HAL_RCC_OscConfig+0x302>
 8001ee8:	f7fe ffc2 	bl	8000e70 <HAL_GetTick>
 8001eec:	4606      	mov	r6, r0
 8001eee:	682b      	ldr	r3, [r5, #0]
 8001ef0:	0199      	lsls	r1, r3, #6
 8001ef2:	d422      	bmi.n	8001f3a <HAL_RCC_OscConfig+0x2f6>
 8001ef4:	6aa3      	ldr	r3, [r4, #40]	; 0x28
 8001ef6:	085b      	lsrs	r3, r3, #1
 8001ef8:	1e5a      	subs	r2, r3, #1
 8001efa:	e9d4 3107 	ldrd	r3, r1, [r4, #28]
 8001efe:	430b      	orrs	r3, r1
 8001f00:	ea43 4302 	orr.w	r3, r3, r2, lsl #16
 8001f04:	6a62      	ldr	r2, [r4, #36]	; 0x24
 8001f06:	ea43 1382 	orr.w	r3, r3, r2, lsl #6
 8001f0a:	6ae2      	ldr	r2, [r4, #44]	; 0x2c
 8001f0c:	ea43 6302 	orr.w	r3, r3, r2, lsl #24
 8001f10:	f043 5300 	orr.w	r3, r3, #536870912	; 0x20000000
 8001f14:	606b      	str	r3, [r5, #4]
 8001f16:	682b      	ldr	r3, [r5, #0]
 8001f18:	f043 7380 	orr.w	r3, r3, #16777216	; 0x1000000
 8001f1c:	602b      	str	r3, [r5, #0]
 8001f1e:	f7fe ffa7 	bl	8000e70 <HAL_GetTick>
 8001f22:	4d24      	ldr	r5, [pc, #144]	; (8001fb4 <HAL_RCC_OscConfig+0x370>)
 8001f24:	4604      	mov	r4, r0
 8001f26:	682b      	ldr	r3, [r5, #0]
 8001f28:	019a      	lsls	r2, r3, #6
 8001f2a:	f53f aea1 	bmi.w	8001c70 <HAL_RCC_OscConfig+0x2c>
 8001f2e:	f7fe ff9f 	bl	8000e70 <HAL_GetTick>
 8001f32:	1b00      	subs	r0, r0, r4
 8001f34:	2802      	cmp	r0, #2
 8001f36:	d9f6      	bls.n	8001f26 <HAL_RCC_OscConfig+0x2e2>
 8001f38:	e6c8      	b.n	8001ccc <HAL_RCC_OscConfig+0x88>
 8001f3a:	f7fe ff99 	bl	8000e70 <HAL_GetTick>
 8001f3e:	1b80      	subs	r0, r0, r6
 8001f40:	2802      	cmp	r0, #2
 8001f42:	d9d4      	bls.n	8001eee <HAL_RCC_OscConfig+0x2aa>
 8001f44:	e6c2      	b.n	8001ccc <HAL_RCC_OscConfig+0x88>
 8001f46:	f7fe ff93 	bl	8000e70 <HAL_GetTick>
 8001f4a:	4604      	mov	r4, r0
 8001f4c:	682b      	ldr	r3, [r5, #0]
 8001f4e:	019b      	lsls	r3, r3, #6
 8001f50:	f57f ae8e 	bpl.w	8001c70 <HAL_RCC_OscConfig+0x2c>
 8001f54:	f7fe ff8c 	bl	8000e70 <HAL_GetTick>
 8001f58:	1b00      	subs	r0, r0, r4
 8001f5a:	2802      	cmp	r0, #2
 8001f5c:	d9f6      	bls.n	8001f4c <HAL_RCC_OscConfig+0x308>
 8001f5e:	e6b5      	b.n	8001ccc <HAL_RCC_OscConfig+0x88>
 8001f60:	2a01      	cmp	r2, #1
 8001f62:	686b      	ldr	r3, [r5, #4]
 8001f64:	f43f ae9b 	beq.w	8001c9e <HAL_RCC_OscConfig+0x5a>
 8001f68:	f403 0280 	and.w	r2, r3, #4194304	; 0x400000
 8001f6c:	69e1      	ldr	r1, [r4, #28]
 8001f6e:	428a      	cmp	r2, r1
 8001f70:	f47f ae95 	bne.w	8001c9e <HAL_RCC_OscConfig+0x5a>
 8001f74:	f003 023f 	and.w	r2, r3, #63	; 0x3f
 8001f78:	6a21      	ldr	r1, [r4, #32]
 8001f7a:	428a      	cmp	r2, r1
 8001f7c:	f47f ae8f 	bne.w	8001c9e <HAL_RCC_OscConfig+0x5a>
 8001f80:	f647 72c0 	movw	r2, #32704	; 0x7fc0
 8001f84:	6a61      	ldr	r1, [r4, #36]	; 0x24
 8001f86:	401a      	ands	r2, r3
 8001f88:	ebb2 1f81 	cmp.w	r2, r1, lsl #6
 8001f8c:	f47f ae87 	bne.w	8001c9e <HAL_RCC_OscConfig+0x5a>
 8001f90:	6aa2      	ldr	r2, [r4, #40]	; 0x28
 8001f92:	f403 3140 	and.w	r1, r3, #196608	; 0x30000
 8001f96:	0852      	lsrs	r2, r2, #1
 8001f98:	3a01      	subs	r2, #1
 8001f9a:	ebb1 4f02 	cmp.w	r1, r2, lsl #16
 8001f9e:	f47f ae7e 	bne.w	8001c9e <HAL_RCC_OscConfig+0x5a>
 8001fa2:	f003 6370 	and.w	r3, r3, #251658240	; 0xf000000
 8001fa6:	6ae2      	ldr	r2, [r4, #44]	; 0x2c
 8001fa8:	ebb3 6f02 	cmp.w	r3, r2, lsl #24
 8001fac:	f43f ae60 	beq.w	8001c70 <HAL_RCC_OscConfig+0x2c>
 8001fb0:	e675      	b.n	8001c9e <HAL_RCC_OscConfig+0x5a>
 8001fb2:	bf00      	nop
 8001fb4:	40023800 	.word	0x40023800

08001fb8 <HAL_RCC_GetSysClockFreq>:
 8001fb8:	4913      	ldr	r1, [pc, #76]	; (8002008 <HAL_RCC_GetSysClockFreq+0x50>)
 8001fba:	b508      	push	{r3, lr}
 8001fbc:	688b      	ldr	r3, [r1, #8]
 8001fbe:	f003 030c 	and.w	r3, r3, #12
 8001fc2:	2b04      	cmp	r3, #4
 8001fc4:	d01b      	beq.n	8001ffe <HAL_RCC_GetSysClockFreq+0x46>
 8001fc6:	2b08      	cmp	r3, #8
 8001fc8:	d11b      	bne.n	8002002 <HAL_RCC_GetSysClockFreq+0x4a>
 8001fca:	684a      	ldr	r2, [r1, #4]
 8001fcc:	684b      	ldr	r3, [r1, #4]
 8001fce:	6849      	ldr	r1, [r1, #4]
 8001fd0:	f002 023f 	and.w	r2, r2, #63	; 0x3f
 8001fd4:	f413 0380 	ands.w	r3, r3, #4194304	; 0x400000
 8001fd8:	f3c1 1188 	ubfx	r1, r1, #6, #9
 8001fdc:	bf1a      	itte	ne
 8001fde:	480b      	ldrne	r0, [pc, #44]	; (800200c <HAL_RCC_GetSysClockFreq+0x54>)
 8001fe0:	2300      	movne	r3, #0
 8001fe2:	480b      	ldreq	r0, [pc, #44]	; (8002010 <HAL_RCC_GetSysClockFreq+0x58>)
 8001fe4:	fba1 0100 	umull	r0, r1, r1, r0
 8001fe8:	f7fe f97a 	bl	80002e0 <__aeabi_uldivmod>
 8001fec:	4b06      	ldr	r3, [pc, #24]	; (8002008 <HAL_RCC_GetSysClockFreq+0x50>)
 8001fee:	685b      	ldr	r3, [r3, #4]
 8001ff0:	f3c3 4301 	ubfx	r3, r3, #16, #2
 8001ff4:	3301      	adds	r3, #1
 8001ff6:	005b      	lsls	r3, r3, #1
 8001ff8:	fbb0 f0f3 	udiv	r0, r0, r3
 8001ffc:	bd08      	pop	{r3, pc}
 8001ffe:	4803      	ldr	r0, [pc, #12]	; (800200c <HAL_RCC_GetSysClockFreq+0x54>)
 8002000:	e7fc      	b.n	8001ffc <HAL_RCC_GetSysClockFreq+0x44>
 8002002:	4803      	ldr	r0, [pc, #12]	; (8002010 <HAL_RCC_GetSysClockFreq+0x58>)
 8002004:	e7fa      	b.n	8001ffc <HAL_RCC_GetSysClockFreq+0x44>
 8002006:	bf00      	nop
 8002008:	40023800 	.word	0x40023800
 800200c:	017d7840 	.word	0x017d7840
 8002010:	00f42400 	.word	0x00f42400

08002014 <HAL_RCC_ClockConfig>:
 8002014:	e92d 41f0 	stmdb	sp!, {r4, r5, r6, r7, r8, lr}
 8002018:	460d      	mov	r5, r1
 800201a:	4604      	mov	r4, r0
 800201c:	b910      	cbnz	r0, 8002024 <HAL_RCC_ClockConfig+0x10>
 800201e:	2001      	movs	r0, #1
 8002020:	e8bd 81f0 	ldmia.w	sp!, {r4, r5, r6, r7, r8, pc}
 8002024:	4a45      	ldr	r2, [pc, #276]	; (800213c <HAL_RCC_ClockConfig+0x128>)
 8002026:	6813      	ldr	r3, [r2, #0]
 8002028:	f003 030f 	and.w	r3, r3, #15
 800202c:	428b      	cmp	r3, r1
 800202e:	d328      	bcc.n	8002082 <HAL_RCC_ClockConfig+0x6e>
 8002030:	6821      	ldr	r1, [r4, #0]
 8002032:	078f      	lsls	r7, r1, #30
 8002034:	d430      	bmi.n	8002098 <HAL_RCC_ClockConfig+0x84>
 8002036:	07c8      	lsls	r0, r1, #31
 8002038:	d443      	bmi.n	80020c2 <HAL_RCC_ClockConfig+0xae>
 800203a:	4a40      	ldr	r2, [pc, #256]	; (800213c <HAL_RCC_ClockConfig+0x128>)
 800203c:	6813      	ldr	r3, [r2, #0]
 800203e:	f003 030f 	and.w	r3, r3, #15
 8002042:	42ab      	cmp	r3, r5
 8002044:	d866      	bhi.n	8002114 <HAL_RCC_ClockConfig+0x100>
 8002046:	6822      	ldr	r2, [r4, #0]
 8002048:	0751      	lsls	r1, r2, #29
 800204a:	d46f      	bmi.n	800212c <HAL_RCC_ClockConfig+0x118>
 800204c:	0713      	lsls	r3, r2, #28
 800204e:	d507      	bpl.n	8002060 <HAL_RCC_ClockConfig+0x4c>
 8002050:	4a3b      	ldr	r2, [pc, #236]	; (8002140 <HAL_RCC_ClockConfig+0x12c>)
 8002052:	6921      	ldr	r1, [r4, #16]
 8002054:	6893      	ldr	r3, [r2, #8]
 8002056:	f423 4360 	bic.w	r3, r3, #57344	; 0xe000
 800205a:	ea43 03c1 	orr.w	r3, r3, r1, lsl #3
 800205e:	6093      	str	r3, [r2, #8]
 8002060:	f7ff ffaa 	bl	8001fb8 <HAL_RCC_GetSysClockFreq>
 8002064:	4b36      	ldr	r3, [pc, #216]	; (8002140 <HAL_RCC_ClockConfig+0x12c>)
 8002066:	4a37      	ldr	r2, [pc, #220]	; (8002144 <HAL_RCC_ClockConfig+0x130>)
 8002068:	689b      	ldr	r3, [r3, #8]
 800206a:	f3c3 1303 	ubfx	r3, r3, #4, #4
 800206e:	5cd3      	ldrb	r3, [r2, r3]
 8002070:	40d8      	lsrs	r0, r3
 8002072:	4b35      	ldr	r3, [pc, #212]	; (8002148 <HAL_RCC_ClockConfig+0x134>)
 8002074:	6018      	str	r0, [r3, #0]
 8002076:	4b35      	ldr	r3, [pc, #212]	; (800214c <HAL_RCC_ClockConfig+0x138>)
 8002078:	6818      	ldr	r0, [r3, #0]
 800207a:	f7fe feb7 	bl	8000dec <HAL_InitTick>
 800207e:	2000      	movs	r0, #0
 8002080:	e7ce      	b.n	8002020 <HAL_RCC_ClockConfig+0xc>
 8002082:	6813      	ldr	r3, [r2, #0]
 8002084:	f023 030f 	bic.w	r3, r3, #15
 8002088:	430b      	orrs	r3, r1
 800208a:	6013      	str	r3, [r2, #0]
 800208c:	6813      	ldr	r3, [r2, #0]
 800208e:	f003 030f 	and.w	r3, r3, #15
 8002092:	428b      	cmp	r3, r1
 8002094:	d1c3      	bne.n	800201e <HAL_RCC_ClockConfig+0xa>
 8002096:	e7cb      	b.n	8002030 <HAL_RCC_ClockConfig+0x1c>
 8002098:	f011 0f04 	tst.w	r1, #4
 800209c:	4b28      	ldr	r3, [pc, #160]	; (8002140 <HAL_RCC_ClockConfig+0x12c>)
 800209e:	d003      	beq.n	80020a8 <HAL_RCC_ClockConfig+0x94>
 80020a0:	689a      	ldr	r2, [r3, #8]
 80020a2:	f442 52e0 	orr.w	r2, r2, #7168	; 0x1c00
 80020a6:	609a      	str	r2, [r3, #8]
 80020a8:	070e      	lsls	r6, r1, #28
 80020aa:	d503      	bpl.n	80020b4 <HAL_RCC_ClockConfig+0xa0>
 80020ac:	689a      	ldr	r2, [r3, #8]
 80020ae:	f442 4260 	orr.w	r2, r2, #57344	; 0xe000
 80020b2:	609a      	str	r2, [r3, #8]
 80020b4:	689a      	ldr	r2, [r3, #8]
 80020b6:	68a0      	ldr	r0, [r4, #8]
 80020b8:	f022 02f0 	bic.w	r2, r2, #240	; 0xf0
 80020bc:	4302      	orrs	r2, r0
 80020be:	609a      	str	r2, [r3, #8]
 80020c0:	e7b9      	b.n	8002036 <HAL_RCC_ClockConfig+0x22>
 80020c2:	6861      	ldr	r1, [r4, #4]
 80020c4:	4b1e      	ldr	r3, [pc, #120]	; (8002140 <HAL_RCC_ClockConfig+0x12c>)
 80020c6:	2901      	cmp	r1, #1
 80020c8:	681a      	ldr	r2, [r3, #0]
 80020ca:	d11b      	bne.n	8002104 <HAL_RCC_ClockConfig+0xf0>
 80020cc:	f412 3f00 	tst.w	r2, #131072	; 0x20000
 80020d0:	d0a5      	beq.n	800201e <HAL_RCC_ClockConfig+0xa>
 80020d2:	689a      	ldr	r2, [r3, #8]
 80020d4:	f241 3888 	movw	r8, #5000	; 0x1388
 80020d8:	4f19      	ldr	r7, [pc, #100]	; (8002140 <HAL_RCC_ClockConfig+0x12c>)
 80020da:	f022 0203 	bic.w	r2, r2, #3
 80020de:	430a      	orrs	r2, r1
 80020e0:	609a      	str	r2, [r3, #8]
 80020e2:	f7fe fec5 	bl	8000e70 <HAL_GetTick>
 80020e6:	4606      	mov	r6, r0
 80020e8:	68bb      	ldr	r3, [r7, #8]
 80020ea:	6862      	ldr	r2, [r4, #4]
 80020ec:	f003 030c 	and.w	r3, r3, #12
 80020f0:	ebb3 0f82 	cmp.w	r3, r2, lsl #2
 80020f4:	d0a1      	beq.n	800203a <HAL_RCC_ClockConfig+0x26>
 80020f6:	f7fe febb 	bl	8000e70 <HAL_GetTick>
 80020fa:	1b80      	subs	r0, r0, r6
 80020fc:	4540      	cmp	r0, r8
 80020fe:	d9f3      	bls.n	80020e8 <HAL_RCC_ClockConfig+0xd4>
 8002100:	2003      	movs	r0, #3
 8002102:	e78d      	b.n	8002020 <HAL_RCC_ClockConfig+0xc>
 8002104:	2902      	cmp	r1, #2
 8002106:	d102      	bne.n	800210e <HAL_RCC_ClockConfig+0xfa>
 8002108:	f012 7f00 	tst.w	r2, #33554432	; 0x2000000
 800210c:	e7e0      	b.n	80020d0 <HAL_RCC_ClockConfig+0xbc>
 800210e:	f012 0f02 	tst.w	r2, #2
 8002112:	e7dd      	b.n	80020d0 <HAL_RCC_ClockConfig+0xbc>
 8002114:	6813      	ldr	r3, [r2, #0]
 8002116:	f023 030f 	bic.w	r3, r3, #15
 800211a:	432b      	orrs	r3, r5
 800211c:	6013      	str	r3, [r2, #0]
 800211e:	6813      	ldr	r3, [r2, #0]
 8002120:	f003 030f 	and.w	r3, r3, #15
 8002124:	42ab      	cmp	r3, r5
 8002126:	f47f af7a 	bne.w	800201e <HAL_RCC_ClockConfig+0xa>
 800212a:	e78c      	b.n	8002046 <HAL_RCC_ClockConfig+0x32>
 800212c:	4904      	ldr	r1, [pc, #16]	; (8002140 <HAL_RCC_ClockConfig+0x12c>)
 800212e:	68e0      	ldr	r0, [r4, #12]
 8002130:	688b      	ldr	r3, [r1, #8]
 8002132:	f423 53e0 	bic.w	r3, r3, #7168	; 0x1c00
 8002136:	4303      	orrs	r3, r0
 8002138:	608b      	str	r3, [r1, #8]
 800213a:	e787      	b.n	800204c <HAL_RCC_ClockConfig+0x38>
 800213c:	40023c00 	.word	0x40023c00
 8002140:	40023800 	.word	0x40023800
 8002144:	0800bdb4 	.word	0x0800bdb4
 8002148:	20000004 	.word	0x20000004
 800214c:	2000000c 	.word	0x2000000c

08002150 <HAL_RCC_GetHCLKFreq>:
 8002150:	4b01      	ldr	r3, [pc, #4]	; (8002158 <HAL_RCC_GetHCLKFreq+0x8>)
 8002152:	6818      	ldr	r0, [r3, #0]
 8002154:	4770      	bx	lr
 8002156:	bf00      	nop
 8002158:	20000004 	.word	0x20000004

0800215c <HAL_RCC_GetPCLK1Freq>:
 800215c:	4b04      	ldr	r3, [pc, #16]	; (8002170 <HAL_RCC_GetPCLK1Freq+0x14>)
 800215e:	4a05      	ldr	r2, [pc, #20]	; (8002174 <HAL_RCC_GetPCLK1Freq+0x18>)
 8002160:	689b      	ldr	r3, [r3, #8]
 8002162:	f3c3 2382 	ubfx	r3, r3, #10, #3
 8002166:	5cd3      	ldrb	r3, [r2, r3]
 8002168:	4a03      	ldr	r2, [pc, #12]	; (8002178 <HAL_RCC_GetPCLK1Freq+0x1c>)
 800216a:	6810      	ldr	r0, [r2, #0]
 800216c:	40d8      	lsrs	r0, r3
 800216e:	4770      	bx	lr
 8002170:	40023800 	.word	0x40023800
 8002174:	0800bdc4 	.word	0x0800bdc4
 8002178:	20000004 	.word	0x20000004

0800217c <HAL_RCC_GetPCLK2Freq>:
 800217c:	4b04      	ldr	r3, [pc, #16]	; (8002190 <HAL_RCC_GetPCLK2Freq+0x14>)
 800217e:	4a05      	ldr	r2, [pc, #20]	; (8002194 <HAL_RCC_GetPCLK2Freq+0x18>)
 8002180:	689b      	ldr	r3, [r3, #8]
 8002182:	f3c3 3342 	ubfx	r3, r3, #13, #3
 8002186:	5cd3      	ldrb	r3, [r2, r3]
 8002188:	4a03      	ldr	r2, [pc, #12]	; (8002198 <HAL_RCC_GetPCLK2Freq+0x1c>)
 800218a:	6810      	ldr	r0, [r2, #0]
 800218c:	40d8      	lsrs	r0, r3
 800218e:	4770      	bx	lr
 8002190:	40023800 	.word	0x40023800
 8002194:	0800bdc4 	.word	0x0800bdc4
 8002198:	20000004 	.word	0x20000004

0800219c <HAL_RCCEx_PeriphCLKConfig>:
 800219c:	6803      	ldr	r3, [r0, #0]
 800219e:	e92d 43f7 	stmdb	sp!, {r0, r1, r2, r4, r5, r6, r7, r8, r9, lr}
 80021a2:	f013 0601 	ands.w	r6, r3, #1
 80021a6:	4604      	mov	r4, r0
 80021a8:	d00b      	beq.n	80021c2 <HAL_RCCEx_PeriphCLKConfig+0x26>
 80021aa:	4aad      	ldr	r2, [pc, #692]	; (8002460 <HAL_RCCEx_PeriphCLKConfig+0x2c4>)
 80021ac:	6891      	ldr	r1, [r2, #8]
 80021ae:	f421 0100 	bic.w	r1, r1, #8388608	; 0x800000
 80021b2:	6091      	str	r1, [r2, #8]
 80021b4:	6b46      	ldr	r6, [r0, #52]	; 0x34
 80021b6:	6891      	ldr	r1, [r2, #8]
 80021b8:	4331      	orrs	r1, r6
 80021ba:	fab6 f686 	clz	r6, r6
 80021be:	0976      	lsrs	r6, r6, #5
 80021c0:	6091      	str	r1, [r2, #8]
 80021c2:	f413 2500 	ands.w	r5, r3, #524288	; 0x80000
 80021c6:	d012      	beq.n	80021ee <HAL_RCCEx_PeriphCLKConfig+0x52>
 80021c8:	49a5      	ldr	r1, [pc, #660]	; (8002460 <HAL_RCCEx_PeriphCLKConfig+0x2c4>)
 80021ca:	6be5      	ldr	r5, [r4, #60]	; 0x3c
 80021cc:	f8d1 208c 	ldr.w	r2, [r1, #140]	; 0x8c
 80021d0:	f5b5 1f80 	cmp.w	r5, #1048576	; 0x100000
 80021d4:	f422 1240 	bic.w	r2, r2, #3145728	; 0x300000
 80021d8:	bf08      	it	eq
 80021da:	2601      	moveq	r6, #1
 80021dc:	ea42 0205 	orr.w	r2, r2, r5
 80021e0:	bf16      	itet	ne
 80021e2:	fab5 f585 	clzne	r5, r5
 80021e6:	2500      	moveq	r5, #0
 80021e8:	096d      	lsrne	r5, r5, #5
 80021ea:	f8c1 208c 	str.w	r2, [r1, #140]	; 0x8c
 80021ee:	02d8      	lsls	r0, r3, #11
 80021f0:	d510      	bpl.n	8002214 <HAL_RCCEx_PeriphCLKConfig+0x78>
 80021f2:	489b      	ldr	r0, [pc, #620]	; (8002460 <HAL_RCCEx_PeriphCLKConfig+0x2c4>)
 80021f4:	6c21      	ldr	r1, [r4, #64]	; 0x40
 80021f6:	f8d0 208c 	ldr.w	r2, [r0, #140]	; 0x8c
 80021fa:	f5b1 0f80 	cmp.w	r1, #4194304	; 0x400000
 80021fe:	f422 0240 	bic.w	r2, r2, #12582912	; 0xc00000
 8002202:	ea42 0201 	orr.w	r2, r2, r1
 8002206:	f8c0 208c 	str.w	r2, [r0, #140]	; 0x8c
 800220a:	f000 8186 	beq.w	800251a <HAL_RCCEx_PeriphCLKConfig+0x37e>
 800220e:	2900      	cmp	r1, #0
 8002210:	bf08      	it	eq
 8002212:	2501      	moveq	r5, #1
 8002214:	f013 7f80 	tst.w	r3, #16777216	; 0x1000000
 8002218:	bf18      	it	ne
 800221a:	2601      	movne	r6, #1
 800221c:	0699      	lsls	r1, r3, #26
 800221e:	d532      	bpl.n	8002286 <HAL_RCCEx_PeriphCLKConfig+0xea>
 8002220:	4b8f      	ldr	r3, [pc, #572]	; (8002460 <HAL_RCCEx_PeriphCLKConfig+0x2c4>)
 8002222:	4f90      	ldr	r7, [pc, #576]	; (8002464 <HAL_RCCEx_PeriphCLKConfig+0x2c8>)
 8002224:	6c1a      	ldr	r2, [r3, #64]	; 0x40
 8002226:	f042 5280 	orr.w	r2, r2, #268435456	; 0x10000000
 800222a:	641a      	str	r2, [r3, #64]	; 0x40
 800222c:	6c1b      	ldr	r3, [r3, #64]	; 0x40
 800222e:	f003 5380 	and.w	r3, r3, #268435456	; 0x10000000
 8002232:	9301      	str	r3, [sp, #4]
 8002234:	9b01      	ldr	r3, [sp, #4]
 8002236:	683b      	ldr	r3, [r7, #0]
 8002238:	f443 7380 	orr.w	r3, r3, #256	; 0x100
 800223c:	603b      	str	r3, [r7, #0]
 800223e:	f7fe fe17 	bl	8000e70 <HAL_GetTick>
 8002242:	4680      	mov	r8, r0
 8002244:	683b      	ldr	r3, [r7, #0]
 8002246:	05da      	lsls	r2, r3, #23
 8002248:	f140 8169 	bpl.w	800251e <HAL_RCCEx_PeriphCLKConfig+0x382>
 800224c:	4f84      	ldr	r7, [pc, #528]	; (8002460 <HAL_RCCEx_PeriphCLKConfig+0x2c4>)
 800224e:	6b22      	ldr	r2, [r4, #48]	; 0x30
 8002250:	6f3b      	ldr	r3, [r7, #112]	; 0x70
 8002252:	f413 7340 	ands.w	r3, r3, #768	; 0x300
 8002256:	f040 816d 	bne.w	8002534 <HAL_RCCEx_PeriphCLKConfig+0x398>
 800225a:	6b23      	ldr	r3, [r4, #48]	; 0x30
 800225c:	f403 7240 	and.w	r2, r3, #768	; 0x300
 8002260:	f5b2 7f40 	cmp.w	r2, #768	; 0x300
 8002264:	4a7e      	ldr	r2, [pc, #504]	; (8002460 <HAL_RCCEx_PeriphCLKConfig+0x2c4>)
 8002266:	f040 818a 	bne.w	800257e <HAL_RCCEx_PeriphCLKConfig+0x3e2>
 800226a:	6891      	ldr	r1, [r2, #8]
 800226c:	f023 4070 	bic.w	r0, r3, #4026531840	; 0xf0000000
 8002270:	f421 11f8 	bic.w	r1, r1, #2031616	; 0x1f0000
 8002274:	f420 7040 	bic.w	r0, r0, #768	; 0x300
 8002278:	4301      	orrs	r1, r0
 800227a:	6091      	str	r1, [r2, #8]
 800227c:	f3c3 030b 	ubfx	r3, r3, #0, #12
 8002280:	6f11      	ldr	r1, [r2, #112]	; 0x70
 8002282:	430b      	orrs	r3, r1
 8002284:	6713      	str	r3, [r2, #112]	; 0x70
 8002286:	6823      	ldr	r3, [r4, #0]
 8002288:	06d9      	lsls	r1, r3, #27
 800228a:	d50c      	bpl.n	80022a6 <HAL_RCCEx_PeriphCLKConfig+0x10a>
 800228c:	4a74      	ldr	r2, [pc, #464]	; (8002460 <HAL_RCCEx_PeriphCLKConfig+0x2c4>)
 800228e:	f8d2 108c 	ldr.w	r1, [r2, #140]	; 0x8c
 8002292:	f021 7180 	bic.w	r1, r1, #16777216	; 0x1000000
 8002296:	f8c2 108c 	str.w	r1, [r2, #140]	; 0x8c
 800229a:	f8d2 108c 	ldr.w	r1, [r2, #140]	; 0x8c
 800229e:	6ba0      	ldr	r0, [r4, #56]	; 0x38
 80022a0:	4301      	orrs	r1, r0
 80022a2:	f8c2 108c 	str.w	r1, [r2, #140]	; 0x8c
 80022a6:	045a      	lsls	r2, r3, #17
 80022a8:	d508      	bpl.n	80022bc <HAL_RCCEx_PeriphCLKConfig+0x120>
 80022aa:	496d      	ldr	r1, [pc, #436]	; (8002460 <HAL_RCCEx_PeriphCLKConfig+0x2c4>)
 80022ac:	6e60      	ldr	r0, [r4, #100]	; 0x64
 80022ae:	f8d1 2090 	ldr.w	r2, [r1, #144]	; 0x90
 80022b2:	f422 3240 	bic.w	r2, r2, #196608	; 0x30000
 80022b6:	4302      	orrs	r2, r0
 80022b8:	f8c1 2090 	str.w	r2, [r1, #144]	; 0x90
 80022bc:	041f      	lsls	r7, r3, #16
 80022be:	d508      	bpl.n	80022d2 <HAL_RCCEx_PeriphCLKConfig+0x136>
 80022c0:	4967      	ldr	r1, [pc, #412]	; (8002460 <HAL_RCCEx_PeriphCLKConfig+0x2c4>)
 80022c2:	6ea0      	ldr	r0, [r4, #104]	; 0x68
 80022c4:	f8d1 2090 	ldr.w	r2, [r1, #144]	; 0x90
 80022c8:	f422 2240 	bic.w	r2, r2, #786432	; 0xc0000
 80022cc:	4302      	orrs	r2, r0
 80022ce:	f8c1 2090 	str.w	r2, [r1, #144]	; 0x90
 80022d2:	03d8      	lsls	r0, r3, #15
 80022d4:	d508      	bpl.n	80022e8 <HAL_RCCEx_PeriphCLKConfig+0x14c>
 80022d6:	4962      	ldr	r1, [pc, #392]	; (8002460 <HAL_RCCEx_PeriphCLKConfig+0x2c4>)
 80022d8:	6ee0      	ldr	r0, [r4, #108]	; 0x6c
 80022da:	f8d1 2090 	ldr.w	r2, [r1, #144]	; 0x90
 80022de:	f422 1240 	bic.w	r2, r2, #3145728	; 0x300000
 80022e2:	4302      	orrs	r2, r0
 80022e4:	f8c1 2090 	str.w	r2, [r1, #144]	; 0x90
 80022e8:	0399      	lsls	r1, r3, #14
 80022ea:	d508      	bpl.n	80022fe <HAL_RCCEx_PeriphCLKConfig+0x162>
 80022ec:	495c      	ldr	r1, [pc, #368]	; (8002460 <HAL_RCCEx_PeriphCLKConfig+0x2c4>)
 80022ee:	6f20      	ldr	r0, [r4, #112]	; 0x70
 80022f0:	f8d1 2090 	ldr.w	r2, [r1, #144]	; 0x90
 80022f4:	f422 0240 	bic.w	r2, r2, #12582912	; 0xc00000
 80022f8:	4302      	orrs	r2, r0
 80022fa:	f8c1 2090 	str.w	r2, [r1, #144]	; 0x90
 80022fe:	065a      	lsls	r2, r3, #25
 8002300:	d508      	bpl.n	8002314 <HAL_RCCEx_PeriphCLKConfig+0x178>
 8002302:	4957      	ldr	r1, [pc, #348]	; (8002460 <HAL_RCCEx_PeriphCLKConfig+0x2c4>)
 8002304:	6c60      	ldr	r0, [r4, #68]	; 0x44
 8002306:	f8d1 2090 	ldr.w	r2, [r1, #144]	; 0x90
 800230a:	f022 0203 	bic.w	r2, r2, #3
 800230e:	4302      	orrs	r2, r0
 8002310:	f8c1 2090 	str.w	r2, [r1, #144]	; 0x90
 8002314:	061f      	lsls	r7, r3, #24
 8002316:	d508      	bpl.n	800232a <HAL_RCCEx_PeriphCLKConfig+0x18e>
 8002318:	4951      	ldr	r1, [pc, #324]	; (8002460 <HAL_RCCEx_PeriphCLKConfig+0x2c4>)
 800231a:	6ca0      	ldr	r0, [r4, #72]	; 0x48
 800231c:	f8d1 2090 	ldr.w	r2, [r1, #144]	; 0x90
 8002320:	f022 020c 	bic.w	r2, r2, #12
 8002324:	4302      	orrs	r2, r0
 8002326:	f8c1 2090 	str.w	r2, [r1, #144]	; 0x90
 800232a:	05d8      	lsls	r0, r3, #23
 800232c:	d508      	bpl.n	8002340 <HAL_RCCEx_PeriphCLKConfig+0x1a4>
 800232e:	494c      	ldr	r1, [pc, #304]	; (8002460 <HAL_RCCEx_PeriphCLKConfig+0x2c4>)
 8002330:	6ce0      	ldr	r0, [r4, #76]	; 0x4c
 8002332:	f8d1 2090 	ldr.w	r2, [r1, #144]	; 0x90
 8002336:	f022 0230 	bic.w	r2, r2, #48	; 0x30
 800233a:	4302      	orrs	r2, r0
 800233c:	f8c1 2090 	str.w	r2, [r1, #144]	; 0x90
 8002340:	0599      	lsls	r1, r3, #22
 8002342:	d508      	bpl.n	8002356 <HAL_RCCEx_PeriphCLKConfig+0x1ba>
 8002344:	4946      	ldr	r1, [pc, #280]	; (8002460 <HAL_RCCEx_PeriphCLKConfig+0x2c4>)
 8002346:	6d20      	ldr	r0, [r4, #80]	; 0x50
 8002348:	f8d1 2090 	ldr.w	r2, [r1, #144]	; 0x90
 800234c:	f022 02c0 	bic.w	r2, r2, #192	; 0xc0
 8002350:	4302      	orrs	r2, r0
 8002352:	f8c1 2090 	str.w	r2, [r1, #144]	; 0x90
 8002356:	055a      	lsls	r2, r3, #21
 8002358:	d508      	bpl.n	800236c <HAL_RCCEx_PeriphCLKConfig+0x1d0>
 800235a:	4941      	ldr	r1, [pc, #260]	; (8002460 <HAL_RCCEx_PeriphCLKConfig+0x2c4>)
 800235c:	6d60      	ldr	r0, [r4, #84]	; 0x54
 800235e:	f8d1 2090 	ldr.w	r2, [r1, #144]	; 0x90
 8002362:	f422 7240 	bic.w	r2, r2, #768	; 0x300
 8002366:	4302      	orrs	r2, r0
 8002368:	f8c1 2090 	str.w	r2, [r1, #144]	; 0x90
 800236c:	051f      	lsls	r7, r3, #20
 800236e:	d508      	bpl.n	8002382 <HAL_RCCEx_PeriphCLKConfig+0x1e6>
 8002370:	493b      	ldr	r1, [pc, #236]	; (8002460 <HAL_RCCEx_PeriphCLKConfig+0x2c4>)
 8002372:	6da0      	ldr	r0, [r4, #88]	; 0x58
 8002374:	f8d1 2090 	ldr.w	r2, [r1, #144]	; 0x90
 8002378:	f422 6240 	bic.w	r2, r2, #3072	; 0xc00
 800237c:	4302      	orrs	r2, r0
 800237e:	f8c1 2090 	str.w	r2, [r1, #144]	; 0x90
 8002382:	04d8      	lsls	r0, r3, #19
 8002384:	d508      	bpl.n	8002398 <HAL_RCCEx_PeriphCLKConfig+0x1fc>
 8002386:	4936      	ldr	r1, [pc, #216]	; (8002460 <HAL_RCCEx_PeriphCLKConfig+0x2c4>)
 8002388:	6de0      	ldr	r0, [r4, #92]	; 0x5c
 800238a:	f8d1 2090 	ldr.w	r2, [r1, #144]	; 0x90
 800238e:	f422 5240 	bic.w	r2, r2, #12288	; 0x3000
 8002392:	4302      	orrs	r2, r0
 8002394:	f8c1 2090 	str.w	r2, [r1, #144]	; 0x90
 8002398:	0499      	lsls	r1, r3, #18
 800239a:	d508      	bpl.n	80023ae <HAL_RCCEx_PeriphCLKConfig+0x212>
 800239c:	4930      	ldr	r1, [pc, #192]	; (8002460 <HAL_RCCEx_PeriphCLKConfig+0x2c4>)
 800239e:	6e20      	ldr	r0, [r4, #96]	; 0x60
 80023a0:	f8d1 2090 	ldr.w	r2, [r1, #144]	; 0x90
 80023a4:	f422 4240 	bic.w	r2, r2, #49152	; 0xc000
 80023a8:	4302      	orrs	r2, r0
 80023aa:	f8c1 2090 	str.w	r2, [r1, #144]	; 0x90
 80023ae:	025a      	lsls	r2, r3, #9
 80023b0:	d508      	bpl.n	80023c4 <HAL_RCCEx_PeriphCLKConfig+0x228>
 80023b2:	492b      	ldr	r1, [pc, #172]	; (8002460 <HAL_RCCEx_PeriphCLKConfig+0x2c4>)
 80023b4:	6fa0      	ldr	r0, [r4, #120]	; 0x78
 80023b6:	f8d1 2090 	ldr.w	r2, [r1, #144]	; 0x90
 80023ba:	f022 6280 	bic.w	r2, r2, #67108864	; 0x4000000
 80023be:	4302      	orrs	r2, r0
 80023c0:	f8c1 2090 	str.w	r2, [r1, #144]	; 0x90
 80023c4:	029f      	lsls	r7, r3, #10
 80023c6:	d50c      	bpl.n	80023e2 <HAL_RCCEx_PeriphCLKConfig+0x246>
 80023c8:	4825      	ldr	r0, [pc, #148]	; (8002460 <HAL_RCCEx_PeriphCLKConfig+0x2c4>)
 80023ca:	6fe1      	ldr	r1, [r4, #124]	; 0x7c
 80023cc:	f8d0 2090 	ldr.w	r2, [r0, #144]	; 0x90
 80023d0:	f1b1 6f00 	cmp.w	r1, #134217728	; 0x8000000
 80023d4:	f022 6200 	bic.w	r2, r2, #134217728	; 0x8000000
 80023d8:	bf08      	it	eq
 80023da:	2501      	moveq	r5, #1
 80023dc:	430a      	orrs	r2, r1
 80023de:	f8c0 2090 	str.w	r2, [r0, #144]	; 0x90
 80023e2:	f013 0f08 	tst.w	r3, #8
 80023e6:	bf18      	it	ne
 80023e8:	2501      	movne	r5, #1
 80023ea:	0358      	lsls	r0, r3, #13
 80023ec:	d508      	bpl.n	8002400 <HAL_RCCEx_PeriphCLKConfig+0x264>
 80023ee:	491c      	ldr	r1, [pc, #112]	; (8002460 <HAL_RCCEx_PeriphCLKConfig+0x2c4>)
 80023f0:	6f60      	ldr	r0, [r4, #116]	; 0x74
 80023f2:	f8d1 2090 	ldr.w	r2, [r1, #144]	; 0x90
 80023f6:	f022 7240 	bic.w	r2, r2, #50331648	; 0x3000000
 80023fa:	4302      	orrs	r2, r0
 80023fc:	f8c1 2090 	str.w	r2, [r1, #144]	; 0x90
 8002400:	0219      	lsls	r1, r3, #8
 8002402:	d509      	bpl.n	8002418 <HAL_RCCEx_PeriphCLKConfig+0x27c>
 8002404:	4916      	ldr	r1, [pc, #88]	; (8002460 <HAL_RCCEx_PeriphCLKConfig+0x2c4>)
 8002406:	f8d4 0080 	ldr.w	r0, [r4, #128]	; 0x80
 800240a:	f8d1 2090 	ldr.w	r2, [r1, #144]	; 0x90
 800240e:	f022 5280 	bic.w	r2, r2, #268435456	; 0x10000000
 8002412:	4302      	orrs	r2, r0
 8002414:	f8c1 2090 	str.w	r2, [r1, #144]	; 0x90
 8002418:	2e01      	cmp	r6, #1
 800241a:	f000 80b4 	beq.w	8002586 <HAL_RCCEx_PeriphCLKConfig+0x3ea>
 800241e:	019a      	lsls	r2, r3, #6
 8002420:	f100 80b1 	bmi.w	8002586 <HAL_RCCEx_PeriphCLKConfig+0x3ea>
 8002424:	2d01      	cmp	r5, #1
 8002426:	d176      	bne.n	8002516 <HAL_RCCEx_PeriphCLKConfig+0x37a>
 8002428:	4d0d      	ldr	r5, [pc, #52]	; (8002460 <HAL_RCCEx_PeriphCLKConfig+0x2c4>)
 800242a:	682b      	ldr	r3, [r5, #0]
 800242c:	f023 5380 	bic.w	r3, r3, #268435456	; 0x10000000
 8002430:	602b      	str	r3, [r5, #0]
 8002432:	f7fe fd1d 	bl	8000e70 <HAL_GetTick>
 8002436:	4606      	mov	r6, r0
 8002438:	682b      	ldr	r3, [r5, #0]
 800243a:	009f      	lsls	r7, r3, #2
 800243c:	f100 8127 	bmi.w	800268e <HAL_RCCEx_PeriphCLKConfig+0x4f2>
 8002440:	6821      	ldr	r1, [r4, #0]
 8002442:	030e      	lsls	r6, r1, #12
 8002444:	d501      	bpl.n	800244a <HAL_RCCEx_PeriphCLKConfig+0x2ae>
 8002446:	6be3      	ldr	r3, [r4, #60]	; 0x3c
 8002448:	b11b      	cbz	r3, 8002452 <HAL_RCCEx_PeriphCLKConfig+0x2b6>
 800244a:	02cd      	lsls	r5, r1, #11
 800244c:	d523      	bpl.n	8002496 <HAL_RCCEx_PeriphCLKConfig+0x2fa>
 800244e:	6c23      	ldr	r3, [r4, #64]	; 0x40
 8002450:	bb0b      	cbnz	r3, 8002496 <HAL_RCCEx_PeriphCLKConfig+0x2fa>
 8002452:	4a03      	ldr	r2, [pc, #12]	; (8002460 <HAL_RCCEx_PeriphCLKConfig+0x2c4>)
 8002454:	f8d2 3088 	ldr.w	r3, [r2, #136]	; 0x88
 8002458:	f8d2 0088 	ldr.w	r0, [r2, #136]	; 0x88
 800245c:	e004      	b.n	8002468 <HAL_RCCEx_PeriphCLKConfig+0x2cc>
 800245e:	bf00      	nop
 8002460:	40023800 	.word	0x40023800
 8002464:	40007000 	.word	0x40007000
 8002468:	f403 3340 	and.w	r3, r3, #196608	; 0x30000
 800246c:	f000 40e0 	and.w	r0, r0, #1879048192	; 0x70000000
 8002470:	4303      	orrs	r3, r0
 8002472:	6960      	ldr	r0, [r4, #20]
 8002474:	ea43 1380 	orr.w	r3, r3, r0, lsl #6
 8002478:	69a0      	ldr	r0, [r4, #24]
 800247a:	ea43 6300 	orr.w	r3, r3, r0, lsl #24
 800247e:	f8c2 3088 	str.w	r3, [r2, #136]	; 0x88
 8002482:	f8d2 308c 	ldr.w	r3, [r2, #140]	; 0x8c
 8002486:	6aa0      	ldr	r0, [r4, #40]	; 0x28
 8002488:	f423 53f8 	bic.w	r3, r3, #7936	; 0x1f00
 800248c:	3801      	subs	r0, #1
 800248e:	ea43 2300 	orr.w	r3, r3, r0, lsl #8
 8002492:	f8c2 308c 	str.w	r3, [r2, #140]	; 0x8c
 8002496:	0288      	lsls	r0, r1, #10
 8002498:	d515      	bpl.n	80024c6 <HAL_RCCEx_PeriphCLKConfig+0x32a>
 800249a:	6fe3      	ldr	r3, [r4, #124]	; 0x7c
 800249c:	f1b3 6f00 	cmp.w	r3, #134217728	; 0x8000000
 80024a0:	d111      	bne.n	80024c6 <HAL_RCCEx_PeriphCLKConfig+0x32a>
 80024a2:	4a82      	ldr	r2, [pc, #520]	; (80026ac <HAL_RCCEx_PeriphCLKConfig+0x510>)
 80024a4:	f8d2 3088 	ldr.w	r3, [r2, #136]	; 0x88
 80024a8:	f8d2 0088 	ldr.w	r0, [r2, #136]	; 0x88
 80024ac:	f003 6370 	and.w	r3, r3, #251658240	; 0xf000000
 80024b0:	f000 40e0 	and.w	r0, r0, #1879048192	; 0x70000000
 80024b4:	4303      	orrs	r3, r0
 80024b6:	6960      	ldr	r0, [r4, #20]
 80024b8:	ea43 1380 	orr.w	r3, r3, r0, lsl #6
 80024bc:	6a20      	ldr	r0, [r4, #32]
 80024be:	ea43 4300 	orr.w	r3, r3, r0, lsl #16
 80024c2:	f8c2 3088 	str.w	r3, [r2, #136]	; 0x88
 80024c6:	070a      	lsls	r2, r1, #28
 80024c8:	d519      	bpl.n	80024fe <HAL_RCCEx_PeriphCLKConfig+0x362>
 80024ca:	4a78      	ldr	r2, [pc, #480]	; (80026ac <HAL_RCCEx_PeriphCLKConfig+0x510>)
 80024cc:	f8d2 1088 	ldr.w	r1, [r2, #136]	; 0x88
 80024d0:	f8d2 3088 	ldr.w	r3, [r2, #136]	; 0x88
 80024d4:	f001 6170 	and.w	r1, r1, #251658240	; 0xf000000
 80024d8:	f403 3340 	and.w	r3, r3, #196608	; 0x30000
 80024dc:	430b      	orrs	r3, r1
 80024de:	6961      	ldr	r1, [r4, #20]
 80024e0:	ea43 1381 	orr.w	r3, r3, r1, lsl #6
 80024e4:	69e1      	ldr	r1, [r4, #28]
 80024e6:	ea43 7301 	orr.w	r3, r3, r1, lsl #28
 80024ea:	f8c2 3088 	str.w	r3, [r2, #136]	; 0x88
 80024ee:	f8d2 308c 	ldr.w	r3, [r2, #140]	; 0x8c
 80024f2:	6ae1      	ldr	r1, [r4, #44]	; 0x2c
 80024f4:	f423 3340 	bic.w	r3, r3, #196608	; 0x30000
 80024f8:	430b      	orrs	r3, r1
 80024fa:	f8c2 308c 	str.w	r3, [r2, #140]	; 0x8c
 80024fe:	4c6b      	ldr	r4, [pc, #428]	; (80026ac <HAL_RCCEx_PeriphCLKConfig+0x510>)
 8002500:	6823      	ldr	r3, [r4, #0]
 8002502:	f043 5380 	orr.w	r3, r3, #268435456	; 0x10000000
 8002506:	6023      	str	r3, [r4, #0]
 8002508:	f7fe fcb2 	bl	8000e70 <HAL_GetTick>
 800250c:	4605      	mov	r5, r0
 800250e:	6823      	ldr	r3, [r4, #0]
 8002510:	009b      	lsls	r3, r3, #2
 8002512:	f140 80c3 	bpl.w	800269c <HAL_RCCEx_PeriphCLKConfig+0x500>
 8002516:	2000      	movs	r0, #0
 8002518:	e009      	b.n	800252e <HAL_RCCEx_PeriphCLKConfig+0x392>
 800251a:	2601      	movs	r6, #1
 800251c:	e67a      	b.n	8002214 <HAL_RCCEx_PeriphCLKConfig+0x78>
 800251e:	f7fe fca7 	bl	8000e70 <HAL_GetTick>
 8002522:	eba0 0008 	sub.w	r0, r0, r8
 8002526:	2864      	cmp	r0, #100	; 0x64
 8002528:	f67f ae8c 	bls.w	8002244 <HAL_RCCEx_PeriphCLKConfig+0xa8>
 800252c:	2003      	movs	r0, #3
 800252e:	b003      	add	sp, #12
 8002530:	e8bd 83f0 	ldmia.w	sp!, {r4, r5, r6, r7, r8, r9, pc}
 8002534:	f402 7240 	and.w	r2, r2, #768	; 0x300
 8002538:	429a      	cmp	r2, r3
 800253a:	f43f ae8e 	beq.w	800225a <HAL_RCCEx_PeriphCLKConfig+0xbe>
 800253e:	6f3b      	ldr	r3, [r7, #112]	; 0x70
 8002540:	6f3a      	ldr	r2, [r7, #112]	; 0x70
 8002542:	f423 7340 	bic.w	r3, r3, #768	; 0x300
 8002546:	f442 3280 	orr.w	r2, r2, #65536	; 0x10000
 800254a:	673a      	str	r2, [r7, #112]	; 0x70
 800254c:	6f3a      	ldr	r2, [r7, #112]	; 0x70
 800254e:	f422 3280 	bic.w	r2, r2, #65536	; 0x10000
 8002552:	673a      	str	r2, [r7, #112]	; 0x70
 8002554:	673b      	str	r3, [r7, #112]	; 0x70
 8002556:	6f3b      	ldr	r3, [r7, #112]	; 0x70
 8002558:	07db      	lsls	r3, r3, #31
 800255a:	f57f ae7e 	bpl.w	800225a <HAL_RCCEx_PeriphCLKConfig+0xbe>
 800255e:	f7fe fc87 	bl	8000e70 <HAL_GetTick>
 8002562:	f241 3988 	movw	r9, #5000	; 0x1388
 8002566:	4680      	mov	r8, r0
 8002568:	6f3b      	ldr	r3, [r7, #112]	; 0x70
 800256a:	0798      	lsls	r0, r3, #30
 800256c:	f53f ae75 	bmi.w	800225a <HAL_RCCEx_PeriphCLKConfig+0xbe>
 8002570:	f7fe fc7e 	bl	8000e70 <HAL_GetTick>
 8002574:	eba0 0008 	sub.w	r0, r0, r8
 8002578:	4548      	cmp	r0, r9
 800257a:	d9f5      	bls.n	8002568 <HAL_RCCEx_PeriphCLKConfig+0x3cc>
 800257c:	e7d6      	b.n	800252c <HAL_RCCEx_PeriphCLKConfig+0x390>
 800257e:	6891      	ldr	r1, [r2, #8]
 8002580:	f421 11f8 	bic.w	r1, r1, #2031616	; 0x1f0000
 8002584:	e679      	b.n	800227a <HAL_RCCEx_PeriphCLKConfig+0xde>
 8002586:	4e49      	ldr	r6, [pc, #292]	; (80026ac <HAL_RCCEx_PeriphCLKConfig+0x510>)
 8002588:	6833      	ldr	r3, [r6, #0]
 800258a:	f023 6380 	bic.w	r3, r3, #67108864	; 0x4000000
 800258e:	6033      	str	r3, [r6, #0]
 8002590:	f7fe fc6e 	bl	8000e70 <HAL_GetTick>
 8002594:	4607      	mov	r7, r0
 8002596:	6833      	ldr	r3, [r6, #0]
 8002598:	011b      	lsls	r3, r3, #4
 800259a:	d472      	bmi.n	8002682 <HAL_RCCEx_PeriphCLKConfig+0x4e6>
 800259c:	6822      	ldr	r2, [r4, #0]
 800259e:	07d7      	lsls	r7, r2, #31
 80025a0:	d512      	bpl.n	80025c8 <HAL_RCCEx_PeriphCLKConfig+0x42c>
 80025a2:	6b63      	ldr	r3, [r4, #52]	; 0x34
 80025a4:	b983      	cbnz	r3, 80025c8 <HAL_RCCEx_PeriphCLKConfig+0x42c>
 80025a6:	f8d6 3084 	ldr.w	r3, [r6, #132]	; 0x84
 80025aa:	f8d6 1084 	ldr.w	r1, [r6, #132]	; 0x84
 80025ae:	f403 3340 	and.w	r3, r3, #196608	; 0x30000
 80025b2:	f001 6170 	and.w	r1, r1, #251658240	; 0xf000000
 80025b6:	430b      	orrs	r3, r1
 80025b8:	6861      	ldr	r1, [r4, #4]
 80025ba:	ea43 1381 	orr.w	r3, r3, r1, lsl #6
 80025be:	68a1      	ldr	r1, [r4, #8]
 80025c0:	ea43 7301 	orr.w	r3, r3, r1, lsl #28
 80025c4:	f8c6 3084 	str.w	r3, [r6, #132]	; 0x84
 80025c8:	0316      	lsls	r6, r2, #12
 80025ca:	d503      	bpl.n	80025d4 <HAL_RCCEx_PeriphCLKConfig+0x438>
 80025cc:	6be3      	ldr	r3, [r4, #60]	; 0x3c
 80025ce:	f5b3 1f80 	cmp.w	r3, #1048576	; 0x100000
 80025d2:	d005      	beq.n	80025e0 <HAL_RCCEx_PeriphCLKConfig+0x444>
 80025d4:	02d0      	lsls	r0, r2, #11
 80025d6:	d51e      	bpl.n	8002616 <HAL_RCCEx_PeriphCLKConfig+0x47a>
 80025d8:	6c23      	ldr	r3, [r4, #64]	; 0x40
 80025da:	f5b3 0f80 	cmp.w	r3, #4194304	; 0x400000
 80025de:	d11a      	bne.n	8002616 <HAL_RCCEx_PeriphCLKConfig+0x47a>
 80025e0:	4932      	ldr	r1, [pc, #200]	; (80026ac <HAL_RCCEx_PeriphCLKConfig+0x510>)
 80025e2:	f8d1 3084 	ldr.w	r3, [r1, #132]	; 0x84
 80025e6:	f8d1 0084 	ldr.w	r0, [r1, #132]	; 0x84
 80025ea:	f403 3340 	and.w	r3, r3, #196608	; 0x30000
 80025ee:	f000 40e0 	and.w	r0, r0, #1879048192	; 0x70000000
 80025f2:	4303      	orrs	r3, r0
 80025f4:	6860      	ldr	r0, [r4, #4]
 80025f6:	ea43 1380 	orr.w	r3, r3, r0, lsl #6
 80025fa:	68e0      	ldr	r0, [r4, #12]
 80025fc:	ea43 6300 	orr.w	r3, r3, r0, lsl #24
 8002600:	f8c1 3084 	str.w	r3, [r1, #132]	; 0x84
 8002604:	f8d1 008c 	ldr.w	r0, [r1, #140]	; 0x8c
 8002608:	6a63      	ldr	r3, [r4, #36]	; 0x24
 800260a:	f020 001f 	bic.w	r0, r0, #31
 800260e:	3b01      	subs	r3, #1
 8002610:	4303      	orrs	r3, r0
 8002612:	f8c1 308c 	str.w	r3, [r1, #140]	; 0x8c
 8002616:	01d1      	lsls	r1, r2, #7
 8002618:	d511      	bpl.n	800263e <HAL_RCCEx_PeriphCLKConfig+0x4a2>
 800261a:	4924      	ldr	r1, [pc, #144]	; (80026ac <HAL_RCCEx_PeriphCLKConfig+0x510>)
 800261c:	f8d1 3084 	ldr.w	r3, [r1, #132]	; 0x84
 8002620:	f8d1 0084 	ldr.w	r0, [r1, #132]	; 0x84
 8002624:	f003 6370 	and.w	r3, r3, #251658240	; 0xf000000
 8002628:	f000 40e0 	and.w	r0, r0, #1879048192	; 0x70000000
 800262c:	4303      	orrs	r3, r0
 800262e:	6860      	ldr	r0, [r4, #4]
 8002630:	ea43 1380 	orr.w	r3, r3, r0, lsl #6
 8002634:	6920      	ldr	r0, [r4, #16]
 8002636:	ea43 4300 	orr.w	r3, r3, r0, lsl #16
 800263a:	f8c1 3084 	str.w	r3, [r1, #132]	; 0x84
 800263e:	0192      	lsls	r2, r2, #6
 8002640:	d50d      	bpl.n	800265e <HAL_RCCEx_PeriphCLKConfig+0x4c2>
 8002642:	6923      	ldr	r3, [r4, #16]
 8002644:	6862      	ldr	r2, [r4, #4]
 8002646:	041b      	lsls	r3, r3, #16
 8002648:	ea43 1382 	orr.w	r3, r3, r2, lsl #6
 800264c:	68e2      	ldr	r2, [r4, #12]
 800264e:	ea43 6302 	orr.w	r3, r3, r2, lsl #24
 8002652:	68a2      	ldr	r2, [r4, #8]
 8002654:	ea43 7302 	orr.w	r3, r3, r2, lsl #28
 8002658:	4a14      	ldr	r2, [pc, #80]	; (80026ac <HAL_RCCEx_PeriphCLKConfig+0x510>)
 800265a:	f8c2 3084 	str.w	r3, [r2, #132]	; 0x84
 800265e:	4e13      	ldr	r6, [pc, #76]	; (80026ac <HAL_RCCEx_PeriphCLKConfig+0x510>)
 8002660:	6833      	ldr	r3, [r6, #0]
 8002662:	f043 6380 	orr.w	r3, r3, #67108864	; 0x4000000
 8002666:	6033      	str	r3, [r6, #0]
 8002668:	f7fe fc02 	bl	8000e70 <HAL_GetTick>
 800266c:	4607      	mov	r7, r0
 800266e:	6833      	ldr	r3, [r6, #0]
 8002670:	011b      	lsls	r3, r3, #4
 8002672:	f53f aed7 	bmi.w	8002424 <HAL_RCCEx_PeriphCLKConfig+0x288>
 8002676:	f7fe fbfb 	bl	8000e70 <HAL_GetTick>
 800267a:	1bc0      	subs	r0, r0, r7
 800267c:	2864      	cmp	r0, #100	; 0x64
 800267e:	d9f6      	bls.n	800266e <HAL_RCCEx_PeriphCLKConfig+0x4d2>
 8002680:	e754      	b.n	800252c <HAL_RCCEx_PeriphCLKConfig+0x390>
 8002682:	f7fe fbf5 	bl	8000e70 <HAL_GetTick>
 8002686:	1bc0      	subs	r0, r0, r7
 8002688:	2864      	cmp	r0, #100	; 0x64
 800268a:	d984      	bls.n	8002596 <HAL_RCCEx_PeriphCLKConfig+0x3fa>
 800268c:	e74e      	b.n	800252c <HAL_RCCEx_PeriphCLKConfig+0x390>
 800268e:	f7fe fbef 	bl	8000e70 <HAL_GetTick>
 8002692:	1b80      	subs	r0, r0, r6
 8002694:	2864      	cmp	r0, #100	; 0x64
 8002696:	f67f aecf 	bls.w	8002438 <HAL_RCCEx_PeriphCLKConfig+0x29c>
 800269a:	e747      	b.n	800252c <HAL_RCCEx_PeriphCLKConfig+0x390>
 800269c:	f7fe fbe8 	bl	8000e70 <HAL_GetTick>
 80026a0:	1b40      	subs	r0, r0, r5
 80026a2:	2864      	cmp	r0, #100	; 0x64
 80026a4:	f67f af33 	bls.w	800250e <HAL_RCCEx_PeriphCLKConfig+0x372>
 80026a8:	e740      	b.n	800252c <HAL_RCCEx_PeriphCLKConfig+0x390>
 80026aa:	bf00      	nop
 80026ac:	40023800 	.word	0x40023800

080026b0 <HAL_RTC_AlarmAEventCallback>:
 80026b0:	4770      	bx	lr
	...

080026b4 <HAL_RTC_AlarmIRQHandler>:
 80026b4:	4b12      	ldr	r3, [pc, #72]	; (8002700 <HAL_RTC_AlarmIRQHandler+0x4c>)
 80026b6:	f44f 3200 	mov.w	r2, #131072	; 0x20000
 80026ba:	b510      	push	{r4, lr}
 80026bc:	615a      	str	r2, [r3, #20]
 80026be:	4604      	mov	r4, r0
 80026c0:	6802      	ldr	r2, [r0, #0]
 80026c2:	6893      	ldr	r3, [r2, #8]
 80026c4:	04d9      	lsls	r1, r3, #19
 80026c6:	d509      	bpl.n	80026dc <HAL_RTC_AlarmIRQHandler+0x28>
 80026c8:	68d3      	ldr	r3, [r2, #12]
 80026ca:	05db      	lsls	r3, r3, #23
 80026cc:	d506      	bpl.n	80026dc <HAL_RTC_AlarmIRQHandler+0x28>
 80026ce:	68d3      	ldr	r3, [r2, #12]
 80026d0:	b2db      	uxtb	r3, r3
 80026d2:	f463 73c0 	orn	r3, r3, #384	; 0x180
 80026d6:	60d3      	str	r3, [r2, #12]
 80026d8:	f7ff ffea 	bl	80026b0 <HAL_RTC_AlarmAEventCallback>
 80026dc:	6822      	ldr	r2, [r4, #0]
 80026de:	6893      	ldr	r3, [r2, #8]
 80026e0:	0499      	lsls	r1, r3, #18
 80026e2:	d50a      	bpl.n	80026fa <HAL_RTC_AlarmIRQHandler+0x46>
 80026e4:	68d3      	ldr	r3, [r2, #12]
 80026e6:	059b      	lsls	r3, r3, #22
 80026e8:	d507      	bpl.n	80026fa <HAL_RTC_AlarmIRQHandler+0x46>
 80026ea:	68d3      	ldr	r3, [r2, #12]
 80026ec:	4620      	mov	r0, r4
 80026ee:	b2db      	uxtb	r3, r3
 80026f0:	f463 7320 	orn	r3, r3, #640	; 0x280
 80026f4:	60d3      	str	r3, [r2, #12]
 80026f6:	f000 fa40 	bl	8002b7a <HAL_RTCEx_AlarmBEventCallback>
 80026fa:	2301      	movs	r3, #1
 80026fc:	7763      	strb	r3, [r4, #29]
 80026fe:	bd10      	pop	{r4, pc}
 8002700:	40013c00 	.word	0x40013c00

08002704 <HAL_RTC_WaitForSynchro>:
 8002704:	6802      	ldr	r2, [r0, #0]
 8002706:	b538      	push	{r3, r4, r5, lr}
 8002708:	68d3      	ldr	r3, [r2, #12]
 800270a:	4604      	mov	r4, r0
 800270c:	f023 03a0 	bic.w	r3, r3, #160	; 0xa0
 8002710:	60d3      	str	r3, [r2, #12]
 8002712:	f7fe fbad 	bl	8000e70 <HAL_GetTick>
 8002716:	4605      	mov	r5, r0
 8002718:	6823      	ldr	r3, [r4, #0]
 800271a:	68db      	ldr	r3, [r3, #12]
 800271c:	069b      	lsls	r3, r3, #26
 800271e:	d501      	bpl.n	8002724 <HAL_RTC_WaitForSynchro+0x20>
 8002720:	2000      	movs	r0, #0
 8002722:	bd38      	pop	{r3, r4, r5, pc}
 8002724:	f7fe fba4 	bl	8000e70 <HAL_GetTick>
 8002728:	1b40      	subs	r0, r0, r5
 800272a:	f5b0 7f7a 	cmp.w	r0, #1000	; 0x3e8
 800272e:	d9f3      	bls.n	8002718 <HAL_RTC_WaitForSynchro+0x14>
 8002730:	2003      	movs	r0, #3
 8002732:	e7f6      	b.n	8002722 <HAL_RTC_WaitForSynchro+0x1e>

08002734 <RTC_EnterInitMode>:
 8002734:	b5f8      	push	{r3, r4, r5, r6, r7, lr}
 8002736:	6803      	ldr	r3, [r0, #0]
 8002738:	4605      	mov	r5, r0
 800273a:	68dc      	ldr	r4, [r3, #12]
 800273c:	f014 0440 	ands.w	r4, r4, #64	; 0x40
 8002740:	d117      	bne.n	8002772 <RTC_EnterInitMode+0x3e>
 8002742:	68da      	ldr	r2, [r3, #12]
 8002744:	2704      	movs	r7, #4
 8002746:	f042 0280 	orr.w	r2, r2, #128	; 0x80
 800274a:	60da      	str	r2, [r3, #12]
 800274c:	f7fe fb90 	bl	8000e70 <HAL_GetTick>
 8002750:	4606      	mov	r6, r0
 8002752:	682b      	ldr	r3, [r5, #0]
 8002754:	68db      	ldr	r3, [r3, #12]
 8002756:	065b      	lsls	r3, r3, #25
 8002758:	d400      	bmi.n	800275c <RTC_EnterInitMode+0x28>
 800275a:	b10c      	cbz	r4, 8002760 <RTC_EnterInitMode+0x2c>
 800275c:	4620      	mov	r0, r4
 800275e:	bdf8      	pop	{r3, r4, r5, r6, r7, pc}
 8002760:	f7fe fb86 	bl	8000e70 <HAL_GetTick>
 8002764:	1b80      	subs	r0, r0, r6
 8002766:	f5b0 7f7a 	cmp.w	r0, #1000	; 0x3e8
 800276a:	d9f2      	bls.n	8002752 <RTC_EnterInitMode+0x1e>
 800276c:	2401      	movs	r4, #1
 800276e:	776f      	strb	r7, [r5, #29]
 8002770:	e7ef      	b.n	8002752 <RTC_EnterInitMode+0x1e>
 8002772:	2400      	movs	r4, #0
 8002774:	e7f2      	b.n	800275c <RTC_EnterInitMode+0x28>

08002776 <RTC_ExitInitMode>:
 8002776:	6803      	ldr	r3, [r0, #0]
 8002778:	68da      	ldr	r2, [r3, #12]
 800277a:	f022 0280 	bic.w	r2, r2, #128	; 0x80
 800277e:	b510      	push	{r4, lr}
 8002780:	60da      	str	r2, [r3, #12]
 8002782:	4604      	mov	r4, r0
 8002784:	689b      	ldr	r3, [r3, #8]
 8002786:	069b      	lsls	r3, r3, #26
 8002788:	d501      	bpl.n	800278e <RTC_ExitInitMode+0x18>
 800278a:	2000      	movs	r0, #0
 800278c:	bd10      	pop	{r4, pc}
 800278e:	f7ff ffb9 	bl	8002704 <HAL_RTC_WaitForSynchro>
 8002792:	2800      	cmp	r0, #0
 8002794:	d0f9      	beq.n	800278a <RTC_ExitInitMode+0x14>
 8002796:	2304      	movs	r3, #4
 8002798:	2001      	movs	r0, #1
 800279a:	7763      	strb	r3, [r4, #29]
 800279c:	e7f6      	b.n	800278c <RTC_ExitInitMode+0x16>

0800279e <HAL_RTC_Init>:
 800279e:	b510      	push	{r4, lr}
 80027a0:	4604      	mov	r4, r0
 80027a2:	2800      	cmp	r0, #0
 80027a4:	d041      	beq.n	800282a <HAL_RTC_Init+0x8c>
 80027a6:	7f43      	ldrb	r3, [r0, #29]
 80027a8:	f003 02ff 	and.w	r2, r3, #255	; 0xff
 80027ac:	b913      	cbnz	r3, 80027b4 <HAL_RTC_Init+0x16>
 80027ae:	7702      	strb	r2, [r0, #28]
 80027b0:	f7fe f900 	bl	80009b4 <HAL_RTC_MspInit>
 80027b4:	2302      	movs	r3, #2
 80027b6:	7763      	strb	r3, [r4, #29]
 80027b8:	6823      	ldr	r3, [r4, #0]
 80027ba:	68da      	ldr	r2, [r3, #12]
 80027bc:	06d2      	lsls	r2, r2, #27
 80027be:	d503      	bpl.n	80027c8 <HAL_RTC_Init+0x2a>
 80027c0:	2301      	movs	r3, #1
 80027c2:	2000      	movs	r0, #0
 80027c4:	7763      	strb	r3, [r4, #29]
 80027c6:	bd10      	pop	{r4, pc}
 80027c8:	22ca      	movs	r2, #202	; 0xca
 80027ca:	4620      	mov	r0, r4
 80027cc:	625a      	str	r2, [r3, #36]	; 0x24
 80027ce:	2253      	movs	r2, #83	; 0x53
 80027d0:	625a      	str	r2, [r3, #36]	; 0x24
 80027d2:	f7ff ffaf 	bl	8002734 <RTC_EnterInitMode>
 80027d6:	bb10      	cbnz	r0, 800281e <HAL_RTC_Init+0x80>
 80027d8:	6823      	ldr	r3, [r4, #0]
 80027da:	6920      	ldr	r0, [r4, #16]
 80027dc:	689a      	ldr	r2, [r3, #8]
 80027de:	f422 02e0 	bic.w	r2, r2, #7340032	; 0x700000
 80027e2:	f022 0240 	bic.w	r2, r2, #64	; 0x40
 80027e6:	609a      	str	r2, [r3, #8]
 80027e8:	6862      	ldr	r2, [r4, #4]
 80027ea:	6899      	ldr	r1, [r3, #8]
 80027ec:	4302      	orrs	r2, r0
 80027ee:	6960      	ldr	r0, [r4, #20]
 80027f0:	4302      	orrs	r2, r0
 80027f2:	4620      	mov	r0, r4
 80027f4:	430a      	orrs	r2, r1
 80027f6:	68a1      	ldr	r1, [r4, #8]
 80027f8:	609a      	str	r2, [r3, #8]
 80027fa:	68e2      	ldr	r2, [r4, #12]
 80027fc:	611a      	str	r2, [r3, #16]
 80027fe:	691a      	ldr	r2, [r3, #16]
 8002800:	ea42 4201 	orr.w	r2, r2, r1, lsl #16
 8002804:	611a      	str	r2, [r3, #16]
 8002806:	f7ff ffb6 	bl	8002776 <RTC_ExitInitMode>
 800280a:	b940      	cbnz	r0, 800281e <HAL_RTC_Init+0x80>
 800280c:	6823      	ldr	r3, [r4, #0]
 800280e:	69a1      	ldr	r1, [r4, #24]
 8002810:	6cda      	ldr	r2, [r3, #76]	; 0x4c
 8002812:	f022 0208 	bic.w	r2, r2, #8
 8002816:	64da      	str	r2, [r3, #76]	; 0x4c
 8002818:	6cda      	ldr	r2, [r3, #76]	; 0x4c
 800281a:	430a      	orrs	r2, r1
 800281c:	64da      	str	r2, [r3, #76]	; 0x4c
 800281e:	6823      	ldr	r3, [r4, #0]
 8002820:	22ff      	movs	r2, #255	; 0xff
 8002822:	625a      	str	r2, [r3, #36]	; 0x24
 8002824:	2800      	cmp	r0, #0
 8002826:	d0cb      	beq.n	80027c0 <HAL_RTC_Init+0x22>
 8002828:	e7cd      	b.n	80027c6 <HAL_RTC_Init+0x28>
 800282a:	2001      	movs	r0, #1
 800282c:	e7cb      	b.n	80027c6 <HAL_RTC_Init+0x28>

0800282e <RTC_ByteToBcd2>:
 800282e:	2300      	movs	r3, #0
 8002830:	2809      	cmp	r0, #9
 8002832:	d803      	bhi.n	800283c <RTC_ByteToBcd2+0xe>
 8002834:	ea40 1003 	orr.w	r0, r0, r3, lsl #4
 8002838:	b2c0      	uxtb	r0, r0
 800283a:	4770      	bx	lr
 800283c:	380a      	subs	r0, #10
 800283e:	3301      	adds	r3, #1
 8002840:	b2c0      	uxtb	r0, r0
 8002842:	e7f5      	b.n	8002830 <RTC_ByteToBcd2+0x2>

08002844 <HAL_RTC_SetTime>:
 8002844:	e92d 41f0 	stmdb	sp!, {r4, r5, r6, r7, r8, lr}
 8002848:	7f03      	ldrb	r3, [r0, #28]
 800284a:	4606      	mov	r6, r0
 800284c:	460f      	mov	r7, r1
 800284e:	2002      	movs	r0, #2
 8002850:	2b01      	cmp	r3, #1
 8002852:	d041      	beq.n	80028d8 <HAL_RTC_SetTime+0x94>
 8002854:	2301      	movs	r3, #1
 8002856:	6831      	ldr	r1, [r6, #0]
 8002858:	7770      	strb	r0, [r6, #29]
 800285a:	7733      	strb	r3, [r6, #28]
 800285c:	7838      	ldrb	r0, [r7, #0]
 800285e:	787d      	ldrb	r5, [r7, #1]
 8002860:	78bc      	ldrb	r4, [r7, #2]
 8002862:	688b      	ldr	r3, [r1, #8]
 8002864:	2a00      	cmp	r2, #0
 8002866:	d139      	bne.n	80028dc <HAL_RTC_SetTime+0x98>
 8002868:	f013 0340 	ands.w	r3, r3, #64	; 0x40
 800286c:	bf08      	it	eq
 800286e:	70fb      	strbeq	r3, [r7, #3]
 8002870:	f7ff ffdd 	bl	800282e <RTC_ByteToBcd2>
 8002874:	4680      	mov	r8, r0
 8002876:	4628      	mov	r0, r5
 8002878:	f7ff ffd9 	bl	800282e <RTC_ByteToBcd2>
 800287c:	4602      	mov	r2, r0
 800287e:	4620      	mov	r0, r4
 8002880:	f7ff ffd5 	bl	800282e <RTC_ByteToBcd2>
 8002884:	78fb      	ldrb	r3, [r7, #3]
 8002886:	ea40 5383 	orr.w	r3, r0, r3, lsl #22
 800288a:	ea43 4308 	orr.w	r3, r3, r8, lsl #16
 800288e:	ea43 2402 	orr.w	r4, r3, r2, lsl #8
 8002892:	23ca      	movs	r3, #202	; 0xca
 8002894:	4630      	mov	r0, r6
 8002896:	624b      	str	r3, [r1, #36]	; 0x24
 8002898:	2353      	movs	r3, #83	; 0x53
 800289a:	624b      	str	r3, [r1, #36]	; 0x24
 800289c:	f7ff ff4a 	bl	8002734 <RTC_EnterInitMode>
 80028a0:	b9a8      	cbnz	r0, 80028ce <HAL_RTC_SetTime+0x8a>
 80028a2:	f004 347f 	and.w	r4, r4, #2139062143	; 0x7f7f7f7f
 80028a6:	6832      	ldr	r2, [r6, #0]
 80028a8:	f024 44fe 	bic.w	r4, r4, #2130706432	; 0x7f000000
 80028ac:	6014      	str	r4, [r2, #0]
 80028ae:	6893      	ldr	r3, [r2, #8]
 80028b0:	f423 2380 	bic.w	r3, r3, #262144	; 0x40000
 80028b4:	6093      	str	r3, [r2, #8]
 80028b6:	6891      	ldr	r1, [r2, #8]
 80028b8:	e9d7 3003 	ldrd	r3, r0, [r7, #12]
 80028bc:	4303      	orrs	r3, r0
 80028be:	4630      	mov	r0, r6
 80028c0:	430b      	orrs	r3, r1
 80028c2:	6093      	str	r3, [r2, #8]
 80028c4:	f7ff ff57 	bl	8002776 <RTC_ExitInitMode>
 80028c8:	b908      	cbnz	r0, 80028ce <HAL_RTC_SetTime+0x8a>
 80028ca:	2301      	movs	r3, #1
 80028cc:	7773      	strb	r3, [r6, #29]
 80028ce:	6833      	ldr	r3, [r6, #0]
 80028d0:	22ff      	movs	r2, #255	; 0xff
 80028d2:	625a      	str	r2, [r3, #36]	; 0x24
 80028d4:	2300      	movs	r3, #0
 80028d6:	7733      	strb	r3, [r6, #28]
 80028d8:	e8bd 81f0 	ldmia.w	sp!, {r4, r5, r6, r7, r8, pc}
 80028dc:	022d      	lsls	r5, r5, #8
 80028de:	f013 0340 	ands.w	r3, r3, #64	; 0x40
 80028e2:	ea45 4500 	orr.w	r5, r5, r0, lsl #16
 80028e6:	bf08      	it	eq
 80028e8:	70fb      	strbeq	r3, [r7, #3]
 80028ea:	78fa      	ldrb	r2, [r7, #3]
 80028ec:	ea45 0304 	orr.w	r3, r5, r4
 80028f0:	ea43 5482 	orr.w	r4, r3, r2, lsl #22
 80028f4:	e7cd      	b.n	8002892 <HAL_RTC_SetTime+0x4e>

080028f6 <HAL_RTC_SetDate>:
 80028f6:	b5f8      	push	{r3, r4, r5, r6, r7, lr}
 80028f8:	7f03      	ldrb	r3, [r0, #28]
 80028fa:	4605      	mov	r5, r0
 80028fc:	2b01      	cmp	r3, #1
 80028fe:	f04f 0302 	mov.w	r3, #2
 8002902:	d039      	beq.n	8002978 <HAL_RTC_SetDate+0x82>
 8002904:	2001      	movs	r0, #1
 8002906:	776b      	strb	r3, [r5, #29]
 8002908:	7728      	strb	r0, [r5, #28]
 800290a:	780c      	ldrb	r4, [r1, #0]
 800290c:	78c8      	ldrb	r0, [r1, #3]
 800290e:	784e      	ldrb	r6, [r1, #1]
 8002910:	0364      	lsls	r4, r4, #13
 8002912:	788f      	ldrb	r7, [r1, #2]
 8002914:	bb92      	cbnz	r2, 800297c <HAL_RTC_SetDate+0x86>
 8002916:	06f3      	lsls	r3, r6, #27
 8002918:	d503      	bpl.n	8002922 <HAL_RTC_SetDate+0x2c>
 800291a:	f026 0610 	bic.w	r6, r6, #16
 800291e:	360a      	adds	r6, #10
 8002920:	704e      	strb	r6, [r1, #1]
 8002922:	f7ff ff84 	bl	800282e <RTC_ByteToBcd2>
 8002926:	4606      	mov	r6, r0
 8002928:	7848      	ldrb	r0, [r1, #1]
 800292a:	f7ff ff80 	bl	800282e <RTC_ByteToBcd2>
 800292e:	4602      	mov	r2, r0
 8002930:	4638      	mov	r0, r7
 8002932:	f7ff ff7c 	bl	800282e <RTC_ByteToBcd2>
 8002936:	ea40 0304 	orr.w	r3, r0, r4
 800293a:	ea43 4306 	orr.w	r3, r3, r6, lsl #16
 800293e:	ea43 2402 	orr.w	r4, r3, r2, lsl #8
 8002942:	682b      	ldr	r3, [r5, #0]
 8002944:	22ca      	movs	r2, #202	; 0xca
 8002946:	4628      	mov	r0, r5
 8002948:	625a      	str	r2, [r3, #36]	; 0x24
 800294a:	2253      	movs	r2, #83	; 0x53
 800294c:	625a      	str	r2, [r3, #36]	; 0x24
 800294e:	f7ff fef1 	bl	8002734 <RTC_EnterInitMode>
 8002952:	b958      	cbnz	r0, 800296c <HAL_RTC_SetDate+0x76>
 8002954:	f024 447f 	bic.w	r4, r4, #4278190080	; 0xff000000
 8002958:	682a      	ldr	r2, [r5, #0]
 800295a:	4628      	mov	r0, r5
 800295c:	f024 04c0 	bic.w	r4, r4, #192	; 0xc0
 8002960:	6054      	str	r4, [r2, #4]
 8002962:	f7ff ff08 	bl	8002776 <RTC_ExitInitMode>
 8002966:	b908      	cbnz	r0, 800296c <HAL_RTC_SetDate+0x76>
 8002968:	2301      	movs	r3, #1
 800296a:	776b      	strb	r3, [r5, #29]
 800296c:	682b      	ldr	r3, [r5, #0]
 800296e:	22ff      	movs	r2, #255	; 0xff
 8002970:	625a      	str	r2, [r3, #36]	; 0x24
 8002972:	2300      	movs	r3, #0
 8002974:	772b      	strb	r3, [r5, #28]
 8002976:	bdf8      	pop	{r3, r4, r5, r6, r7, pc}
 8002978:	4618      	mov	r0, r3
 800297a:	e7fc      	b.n	8002976 <HAL_RTC_SetDate+0x80>
 800297c:	ea44 4400 	orr.w	r4, r4, r0, lsl #16
 8002980:	433c      	orrs	r4, r7
 8002982:	ea44 2406 	orr.w	r4, r4, r6, lsl #8
 8002986:	e7dc      	b.n	8002942 <HAL_RTC_SetDate+0x4c>

08002988 <HAL_RTC_SetAlarm_IT>:
 8002988:	4b55      	ldr	r3, [pc, #340]	; (8002ae0 <HAL_RTC_SetAlarm_IT+0x158>)
 800298a:	e92d 47f3 	stmdb	sp!, {r0, r1, r4, r5, r6, r7, r8, r9, sl, lr}
 800298e:	681e      	ldr	r6, [r3, #0]
 8002990:	f44f 43fa 	mov.w	r3, #32000	; 0x7d00
 8002994:	4605      	mov	r5, r0
 8002996:	fbb6 f6f3 	udiv	r6, r6, r3
 800299a:	f44f 737a 	mov.w	r3, #1000	; 0x3e8
 800299e:	435e      	muls	r6, r3
 80029a0:	7f03      	ldrb	r3, [r0, #28]
 80029a2:	2b01      	cmp	r3, #1
 80029a4:	9601      	str	r6, [sp, #4]
 80029a6:	f04f 0302 	mov.w	r3, #2
 80029aa:	d04a      	beq.n	8002a42 <HAL_RTC_SetAlarm_IT+0xba>
 80029ac:	2001      	movs	r0, #1
 80029ae:	682c      	ldr	r4, [r5, #0]
 80029b0:	776b      	strb	r3, [r5, #29]
 80029b2:	7728      	strb	r0, [r5, #28]
 80029b4:	7808      	ldrb	r0, [r1, #0]
 80029b6:	f891 8001 	ldrb.w	r8, [r1, #1]
 80029ba:	f891 9002 	ldrb.w	r9, [r1, #2]
 80029be:	f891 7020 	ldrb.w	r7, [r1, #32]
 80029c2:	68a3      	ldr	r3, [r4, #8]
 80029c4:	2a00      	cmp	r2, #0
 80029c6:	d140      	bne.n	8002a4a <HAL_RTC_SetAlarm_IT+0xc2>
 80029c8:	f013 0340 	ands.w	r3, r3, #64	; 0x40
 80029cc:	bf08      	it	eq
 80029ce:	70cb      	strbeq	r3, [r1, #3]
 80029d0:	f7ff ff2d 	bl	800282e <RTC_ByteToBcd2>
 80029d4:	4682      	mov	sl, r0
 80029d6:	4640      	mov	r0, r8
 80029d8:	f7ff ff29 	bl	800282e <RTC_ByteToBcd2>
 80029dc:	4680      	mov	r8, r0
 80029de:	4648      	mov	r0, r9
 80029e0:	f7ff ff25 	bl	800282e <RTC_ByteToBcd2>
 80029e4:	4681      	mov	r9, r0
 80029e6:	4638      	mov	r0, r7
 80029e8:	f7ff ff21 	bl	800282e <RTC_ByteToBcd2>
 80029ec:	69ca      	ldr	r2, [r1, #28]
 80029ee:	694b      	ldr	r3, [r1, #20]
 80029f0:	4313      	orrs	r3, r2
 80029f2:	78ca      	ldrb	r2, [r1, #3]
 80029f4:	ea43 5382 	orr.w	r3, r3, r2, lsl #22
 80029f8:	ea43 0309 	orr.w	r3, r3, r9
 80029fc:	ea43 430a 	orr.w	r3, r3, sl, lsl #16
 8002a00:	ea43 2308 	orr.w	r3, r3, r8, lsl #8
 8002a04:	ea43 6300 	orr.w	r3, r3, r0, lsl #24
 8002a08:	698a      	ldr	r2, [r1, #24]
 8002a0a:	6848      	ldr	r0, [r1, #4]
 8002a0c:	4310      	orrs	r0, r2
 8002a0e:	22ca      	movs	r2, #202	; 0xca
 8002a10:	6262      	str	r2, [r4, #36]	; 0x24
 8002a12:	2253      	movs	r2, #83	; 0x53
 8002a14:	6262      	str	r2, [r4, #36]	; 0x24
 8002a16:	6a4a      	ldr	r2, [r1, #36]	; 0x24
 8002a18:	f5b2 7f80 	cmp.w	r2, #256	; 0x100
 8002a1c:	68a2      	ldr	r2, [r4, #8]
 8002a1e:	d144      	bne.n	8002aaa <HAL_RTC_SetAlarm_IT+0x122>
 8002a20:	f422 7280 	bic.w	r2, r2, #256	; 0x100
 8002a24:	60a2      	str	r2, [r4, #8]
 8002a26:	68e2      	ldr	r2, [r4, #12]
 8002a28:	b2d2      	uxtb	r2, r2
 8002a2a:	f462 72c0 	orn	r2, r2, #384	; 0x180
 8002a2e:	60e2      	str	r2, [r4, #12]
 8002a30:	9a01      	ldr	r2, [sp, #4]
 8002a32:	1e51      	subs	r1, r2, #1
 8002a34:	9101      	str	r1, [sp, #4]
 8002a36:	b9da      	cbnz	r2, 8002a70 <HAL_RTC_SetAlarm_IT+0xe8>
 8002a38:	23ff      	movs	r3, #255	; 0xff
 8002a3a:	6263      	str	r3, [r4, #36]	; 0x24
 8002a3c:	2303      	movs	r3, #3
 8002a3e:	772a      	strb	r2, [r5, #28]
 8002a40:	776b      	strb	r3, [r5, #29]
 8002a42:	4618      	mov	r0, r3
 8002a44:	b002      	add	sp, #8
 8002a46:	e8bd 87f0 	ldmia.w	sp!, {r4, r5, r6, r7, r8, r9, sl, pc}
 8002a4a:	f013 0340 	ands.w	r3, r3, #64	; 0x40
 8002a4e:	694a      	ldr	r2, [r1, #20]
 8002a50:	bf08      	it	eq
 8002a52:	70cb      	strbeq	r3, [r1, #3]
 8002a54:	69cb      	ldr	r3, [r1, #28]
 8002a56:	4313      	orrs	r3, r2
 8002a58:	78ca      	ldrb	r2, [r1, #3]
 8002a5a:	ea43 0309 	orr.w	r3, r3, r9
 8002a5e:	ea43 4300 	orr.w	r3, r3, r0, lsl #16
 8002a62:	ea43 2308 	orr.w	r3, r3, r8, lsl #8
 8002a66:	ea43 5382 	orr.w	r3, r3, r2, lsl #22
 8002a6a:	ea43 6307 	orr.w	r3, r3, r7, lsl #24
 8002a6e:	e7cb      	b.n	8002a08 <HAL_RTC_SetAlarm_IT+0x80>
 8002a70:	68e2      	ldr	r2, [r4, #12]
 8002a72:	07d1      	lsls	r1, r2, #31
 8002a74:	d5dc      	bpl.n	8002a30 <HAL_RTC_SetAlarm_IT+0xa8>
 8002a76:	61e3      	str	r3, [r4, #28]
 8002a78:	6460      	str	r0, [r4, #68]	; 0x44
 8002a7a:	68a3      	ldr	r3, [r4, #8]
 8002a7c:	f443 7380 	orr.w	r3, r3, #256	; 0x100
 8002a80:	60a3      	str	r3, [r4, #8]
 8002a82:	68a3      	ldr	r3, [r4, #8]
 8002a84:	f443 5380 	orr.w	r3, r3, #4096	; 0x1000
 8002a88:	60a3      	str	r3, [r4, #8]
 8002a8a:	4b16      	ldr	r3, [pc, #88]	; (8002ae4 <HAL_RTC_SetAlarm_IT+0x15c>)
 8002a8c:	681a      	ldr	r2, [r3, #0]
 8002a8e:	f442 3200 	orr.w	r2, r2, #131072	; 0x20000
 8002a92:	601a      	str	r2, [r3, #0]
 8002a94:	689a      	ldr	r2, [r3, #8]
 8002a96:	f442 3200 	orr.w	r2, r2, #131072	; 0x20000
 8002a9a:	609a      	str	r2, [r3, #8]
 8002a9c:	23ff      	movs	r3, #255	; 0xff
 8002a9e:	6263      	str	r3, [r4, #36]	; 0x24
 8002aa0:	2301      	movs	r3, #1
 8002aa2:	776b      	strb	r3, [r5, #29]
 8002aa4:	2300      	movs	r3, #0
 8002aa6:	772b      	strb	r3, [r5, #28]
 8002aa8:	e7cb      	b.n	8002a42 <HAL_RTC_SetAlarm_IT+0xba>
 8002aaa:	f422 7200 	bic.w	r2, r2, #512	; 0x200
 8002aae:	60a2      	str	r2, [r4, #8]
 8002ab0:	68e2      	ldr	r2, [r4, #12]
 8002ab2:	b2d2      	uxtb	r2, r2
 8002ab4:	f462 7220 	orn	r2, r2, #640	; 0x280
 8002ab8:	60e2      	str	r2, [r4, #12]
 8002aba:	9601      	str	r6, [sp, #4]
 8002abc:	9a01      	ldr	r2, [sp, #4]
 8002abe:	1e51      	subs	r1, r2, #1
 8002ac0:	9101      	str	r1, [sp, #4]
 8002ac2:	2a00      	cmp	r2, #0
 8002ac4:	d0b8      	beq.n	8002a38 <HAL_RTC_SetAlarm_IT+0xb0>
 8002ac6:	68e2      	ldr	r2, [r4, #12]
 8002ac8:	0792      	lsls	r2, r2, #30
 8002aca:	d5f7      	bpl.n	8002abc <HAL_RTC_SetAlarm_IT+0x134>
 8002acc:	6223      	str	r3, [r4, #32]
 8002ace:	64a0      	str	r0, [r4, #72]	; 0x48
 8002ad0:	68a3      	ldr	r3, [r4, #8]
 8002ad2:	f443 7300 	orr.w	r3, r3, #512	; 0x200
 8002ad6:	60a3      	str	r3, [r4, #8]
 8002ad8:	68a3      	ldr	r3, [r4, #8]
 8002ada:	f443 5300 	orr.w	r3, r3, #8192	; 0x2000
 8002ade:	e7d3      	b.n	8002a88 <HAL_RTC_SetAlarm_IT+0x100>
 8002ae0:	20000004 	.word	0x20000004
 8002ae4:	40013c00 	.word	0x40013c00

08002ae8 <RTC_Bcd2ToByte>:
 8002ae8:	0903      	lsrs	r3, r0, #4
 8002aea:	f000 000f 	and.w	r0, r0, #15
 8002aee:	eb03 0383 	add.w	r3, r3, r3, lsl #2
 8002af2:	eb00 0043 	add.w	r0, r0, r3, lsl #1
 8002af6:	b2c0      	uxtb	r0, r0
 8002af8:	4770      	bx	lr

08002afa <HAL_RTC_GetTime>:
 8002afa:	b538      	push	{r3, r4, r5, lr}
 8002afc:	6803      	ldr	r3, [r0, #0]
 8002afe:	6a98      	ldr	r0, [r3, #40]	; 0x28
 8002b00:	6048      	str	r0, [r1, #4]
 8002b02:	6918      	ldr	r0, [r3, #16]
 8002b04:	681b      	ldr	r3, [r3, #0]
 8002b06:	f3c0 000e 	ubfx	r0, r0, #0, #15
 8002b0a:	f3c3 2506 	ubfx	r5, r3, #8, #7
 8002b0e:	f003 047f 	and.w	r4, r3, #127	; 0x7f
 8002b12:	6088      	str	r0, [r1, #8]
 8002b14:	f3c3 4005 	ubfx	r0, r3, #16, #6
 8002b18:	f3c3 5380 	ubfx	r3, r3, #22, #1
 8002b1c:	704d      	strb	r5, [r1, #1]
 8002b1e:	7008      	strb	r0, [r1, #0]
 8002b20:	708c      	strb	r4, [r1, #2]
 8002b22:	70cb      	strb	r3, [r1, #3]
 8002b24:	b952      	cbnz	r2, 8002b3c <HAL_RTC_GetTime+0x42>
 8002b26:	f7ff ffdf 	bl	8002ae8 <RTC_Bcd2ToByte>
 8002b2a:	7008      	strb	r0, [r1, #0]
 8002b2c:	4628      	mov	r0, r5
 8002b2e:	f7ff ffdb 	bl	8002ae8 <RTC_Bcd2ToByte>
 8002b32:	7048      	strb	r0, [r1, #1]
 8002b34:	4620      	mov	r0, r4
 8002b36:	f7ff ffd7 	bl	8002ae8 <RTC_Bcd2ToByte>
 8002b3a:	7088      	strb	r0, [r1, #2]
 8002b3c:	2000      	movs	r0, #0
 8002b3e:	bd38      	pop	{r3, r4, r5, pc}

08002b40 <HAL_RTC_GetDate>:
 8002b40:	b538      	push	{r3, r4, r5, lr}
 8002b42:	6803      	ldr	r3, [r0, #0]
 8002b44:	685b      	ldr	r3, [r3, #4]
 8002b46:	f3c3 4007 	ubfx	r0, r3, #16, #8
 8002b4a:	f3c3 2504 	ubfx	r5, r3, #8, #5
 8002b4e:	f003 043f 	and.w	r4, r3, #63	; 0x3f
 8002b52:	f3c3 3342 	ubfx	r3, r3, #13, #3
 8002b56:	70c8      	strb	r0, [r1, #3]
 8002b58:	704d      	strb	r5, [r1, #1]
 8002b5a:	708c      	strb	r4, [r1, #2]
 8002b5c:	700b      	strb	r3, [r1, #0]
 8002b5e:	b952      	cbnz	r2, 8002b76 <HAL_RTC_GetDate+0x36>
 8002b60:	f7ff ffc2 	bl	8002ae8 <RTC_Bcd2ToByte>
 8002b64:	70c8      	strb	r0, [r1, #3]
 8002b66:	4628      	mov	r0, r5
 8002b68:	f7ff ffbe 	bl	8002ae8 <RTC_Bcd2ToByte>
 8002b6c:	7048      	strb	r0, [r1, #1]
 8002b6e:	4620      	mov	r0, r4
 8002b70:	f7ff ffba 	bl	8002ae8 <RTC_Bcd2ToByte>
 8002b74:	7088      	strb	r0, [r1, #2]
 8002b76:	2000      	movs	r0, #0
 8002b78:	bd38      	pop	{r3, r4, r5, pc}

08002b7a <HAL_RTCEx_AlarmBEventCallback>:
 8002b7a:	4770      	bx	lr

08002b7c <UART_SetConfig>:
 8002b7c:	b538      	push	{r3, r4, r5, lr}
 8002b7e:	4604      	mov	r4, r0
 8002b80:	69c0      	ldr	r0, [r0, #28]
 8002b82:	6921      	ldr	r1, [r4, #16]
 8002b84:	68a2      	ldr	r2, [r4, #8]
 8002b86:	6823      	ldr	r3, [r4, #0]
 8002b88:	430a      	orrs	r2, r1
 8002b8a:	6961      	ldr	r1, [r4, #20]
 8002b8c:	681d      	ldr	r5, [r3, #0]
 8002b8e:	430a      	orrs	r2, r1
 8002b90:	498e      	ldr	r1, [pc, #568]	; (8002dcc <UART_SetConfig+0x250>)
 8002b92:	4302      	orrs	r2, r0
 8002b94:	4029      	ands	r1, r5
 8002b96:	6a25      	ldr	r5, [r4, #32]
 8002b98:	430a      	orrs	r2, r1
 8002b9a:	68e1      	ldr	r1, [r4, #12]
 8002b9c:	601a      	str	r2, [r3, #0]
 8002b9e:	685a      	ldr	r2, [r3, #4]
 8002ba0:	f422 5240 	bic.w	r2, r2, #12288	; 0x3000
 8002ba4:	430a      	orrs	r2, r1
 8002ba6:	605a      	str	r2, [r3, #4]
 8002ba8:	69a2      	ldr	r2, [r4, #24]
 8002baa:	6899      	ldr	r1, [r3, #8]
 8002bac:	432a      	orrs	r2, r5
 8002bae:	f421 6130 	bic.w	r1, r1, #2816	; 0xb00
 8002bb2:	430a      	orrs	r2, r1
 8002bb4:	609a      	str	r2, [r3, #8]
 8002bb6:	4a86      	ldr	r2, [pc, #536]	; (8002dd0 <UART_SetConfig+0x254>)
 8002bb8:	4293      	cmp	r3, r2
 8002bba:	d117      	bne.n	8002bec <UART_SetConfig+0x70>
 8002bbc:	4b85      	ldr	r3, [pc, #532]	; (8002dd4 <UART_SetConfig+0x258>)
 8002bbe:	f8d3 3090 	ldr.w	r3, [r3, #144]	; 0x90
 8002bc2:	f003 0303 	and.w	r3, r3, #3
 8002bc6:	3b01      	subs	r3, #1
 8002bc8:	2b02      	cmp	r3, #2
 8002bca:	f200 80e2 	bhi.w	8002d92 <UART_SetConfig+0x216>
 8002bce:	4a82      	ldr	r2, [pc, #520]	; (8002dd8 <UART_SetConfig+0x25c>)
 8002bd0:	f5b0 4f00 	cmp.w	r0, #32768	; 0x8000
 8002bd4:	5cd3      	ldrb	r3, [r2, r3]
 8002bd6:	f040 80b3 	bne.w	8002d40 <UART_SetConfig+0x1c4>
 8002bda:	2b08      	cmp	r3, #8
 8002bdc:	d822      	bhi.n	8002c24 <UART_SetConfig+0xa8>
 8002bde:	e8df f003 	tbb	[pc, r3]
 8002be2:	db90      	.short	0xdb90
 8002be4:	21d52198 	.word	0x21d52198
 8002be8:	2121      	.short	0x2121
 8002bea:	99          	.byte	0x99
 8002beb:	00          	.byte	0x00
 8002bec:	4a7b      	ldr	r2, [pc, #492]	; (8002ddc <UART_SetConfig+0x260>)
 8002bee:	4293      	cmp	r3, r2
 8002bf0:	d106      	bne.n	8002c00 <UART_SetConfig+0x84>
 8002bf2:	4b78      	ldr	r3, [pc, #480]	; (8002dd4 <UART_SetConfig+0x258>)
 8002bf4:	4a7a      	ldr	r2, [pc, #488]	; (8002de0 <UART_SetConfig+0x264>)
 8002bf6:	f8d3 3090 	ldr.w	r3, [r3, #144]	; 0x90
 8002bfa:	f003 030c 	and.w	r3, r3, #12
 8002bfe:	e7e7      	b.n	8002bd0 <UART_SetConfig+0x54>
 8002c00:	4a78      	ldr	r2, [pc, #480]	; (8002de4 <UART_SetConfig+0x268>)
 8002c02:	4293      	cmp	r3, r2
 8002c04:	d118      	bne.n	8002c38 <UART_SetConfig+0xbc>
 8002c06:	4b73      	ldr	r3, [pc, #460]	; (8002dd4 <UART_SetConfig+0x258>)
 8002c08:	f8d3 3090 	ldr.w	r3, [r3, #144]	; 0x90
 8002c0c:	f003 0330 	and.w	r3, r3, #48	; 0x30
 8002c10:	2b20      	cmp	r3, #32
 8002c12:	f000 80b3 	beq.w	8002d7c <UART_SetConfig+0x200>
 8002c16:	d807      	bhi.n	8002c28 <UART_SetConfig+0xac>
 8002c18:	2b00      	cmp	r3, #0
 8002c1a:	f000 80c0 	beq.w	8002d9e <UART_SetConfig+0x222>
 8002c1e:	2b10      	cmp	r3, #16
 8002c20:	f000 80b1 	beq.w	8002d86 <UART_SetConfig+0x20a>
 8002c24:	2001      	movs	r0, #1
 8002c26:	e070      	b.n	8002d0a <UART_SetConfig+0x18e>
 8002c28:	2b30      	cmp	r3, #48	; 0x30
 8002c2a:	d1fb      	bne.n	8002c24 <UART_SetConfig+0xa8>
 8002c2c:	f5b0 4f00 	cmp.w	r0, #32768	; 0x8000
 8002c30:	d070      	beq.n	8002d14 <UART_SetConfig+0x198>
 8002c32:	f44f 4000 	mov.w	r0, #32768	; 0x8000
 8002c36:	e0b9      	b.n	8002dac <UART_SetConfig+0x230>
 8002c38:	4a6b      	ldr	r2, [pc, #428]	; (8002de8 <UART_SetConfig+0x26c>)
 8002c3a:	4293      	cmp	r3, r2
 8002c3c:	d10f      	bne.n	8002c5e <UART_SetConfig+0xe2>
 8002c3e:	4b65      	ldr	r3, [pc, #404]	; (8002dd4 <UART_SetConfig+0x258>)
 8002c40:	f8d3 3090 	ldr.w	r3, [r3, #144]	; 0x90
 8002c44:	f003 03c0 	and.w	r3, r3, #192	; 0xc0
 8002c48:	2b80      	cmp	r3, #128	; 0x80
 8002c4a:	f000 8097 	beq.w	8002d7c <UART_SetConfig+0x200>
 8002c4e:	d804      	bhi.n	8002c5a <UART_SetConfig+0xde>
 8002c50:	2b00      	cmp	r3, #0
 8002c52:	f000 80a4 	beq.w	8002d9e <UART_SetConfig+0x222>
 8002c56:	2b40      	cmp	r3, #64	; 0x40
 8002c58:	e7e2      	b.n	8002c20 <UART_SetConfig+0xa4>
 8002c5a:	2bc0      	cmp	r3, #192	; 0xc0
 8002c5c:	e7e5      	b.n	8002c2a <UART_SetConfig+0xae>
 8002c5e:	4a63      	ldr	r2, [pc, #396]	; (8002dec <UART_SetConfig+0x270>)
 8002c60:	4293      	cmp	r3, r2
 8002c62:	d112      	bne.n	8002c8a <UART_SetConfig+0x10e>
 8002c64:	4b5b      	ldr	r3, [pc, #364]	; (8002dd4 <UART_SetConfig+0x258>)
 8002c66:	f8d3 3090 	ldr.w	r3, [r3, #144]	; 0x90
 8002c6a:	f403 7340 	and.w	r3, r3, #768	; 0x300
 8002c6e:	f5b3 7f00 	cmp.w	r3, #512	; 0x200
 8002c72:	f000 8083 	beq.w	8002d7c <UART_SetConfig+0x200>
 8002c76:	d805      	bhi.n	8002c84 <UART_SetConfig+0x108>
 8002c78:	2b00      	cmp	r3, #0
 8002c7a:	f000 8090 	beq.w	8002d9e <UART_SetConfig+0x222>
 8002c7e:	f5b3 7f80 	cmp.w	r3, #256	; 0x100
 8002c82:	e7cd      	b.n	8002c20 <UART_SetConfig+0xa4>
 8002c84:	f5b3 7f40 	cmp.w	r3, #768	; 0x300
 8002c88:	e7cf      	b.n	8002c2a <UART_SetConfig+0xae>
 8002c8a:	4a59      	ldr	r2, [pc, #356]	; (8002df0 <UART_SetConfig+0x274>)
 8002c8c:	4293      	cmp	r3, r2
 8002c8e:	d110      	bne.n	8002cb2 <UART_SetConfig+0x136>
 8002c90:	4b50      	ldr	r3, [pc, #320]	; (8002dd4 <UART_SetConfig+0x258>)
 8002c92:	f8d3 3090 	ldr.w	r3, [r3, #144]	; 0x90
 8002c96:	f403 6340 	and.w	r3, r3, #3072	; 0xc00
 8002c9a:	f5b3 6f00 	cmp.w	r3, #2048	; 0x800
 8002c9e:	d06d      	beq.n	8002d7c <UART_SetConfig+0x200>
 8002ca0:	d804      	bhi.n	8002cac <UART_SetConfig+0x130>
 8002ca2:	2b00      	cmp	r3, #0
 8002ca4:	d075      	beq.n	8002d92 <UART_SetConfig+0x216>
 8002ca6:	f5b3 6f80 	cmp.w	r3, #1024	; 0x400
 8002caa:	e7b9      	b.n	8002c20 <UART_SetConfig+0xa4>
 8002cac:	f5b3 6f40 	cmp.w	r3, #3072	; 0xc00
 8002cb0:	e7bb      	b.n	8002c2a <UART_SetConfig+0xae>
 8002cb2:	4a50      	ldr	r2, [pc, #320]	; (8002df4 <UART_SetConfig+0x278>)
 8002cb4:	4293      	cmp	r3, r2
 8002cb6:	d110      	bne.n	8002cda <UART_SetConfig+0x15e>
 8002cb8:	4b46      	ldr	r3, [pc, #280]	; (8002dd4 <UART_SetConfig+0x258>)
 8002cba:	f8d3 3090 	ldr.w	r3, [r3, #144]	; 0x90
 8002cbe:	f403 5340 	and.w	r3, r3, #12288	; 0x3000
 8002cc2:	f5b3 5f00 	cmp.w	r3, #8192	; 0x2000
 8002cc6:	d059      	beq.n	8002d7c <UART_SetConfig+0x200>
 8002cc8:	d804      	bhi.n	8002cd4 <UART_SetConfig+0x158>
 8002cca:	2b00      	cmp	r3, #0
 8002ccc:	d067      	beq.n	8002d9e <UART_SetConfig+0x222>
 8002cce:	f5b3 5f80 	cmp.w	r3, #4096	; 0x1000
 8002cd2:	e7a5      	b.n	8002c20 <UART_SetConfig+0xa4>
 8002cd4:	f5b3 5f40 	cmp.w	r3, #12288	; 0x3000
 8002cd8:	e7a7      	b.n	8002c2a <UART_SetConfig+0xae>
 8002cda:	4a47      	ldr	r2, [pc, #284]	; (8002df8 <UART_SetConfig+0x27c>)
 8002cdc:	4293      	cmp	r3, r2
 8002cde:	d1a1      	bne.n	8002c24 <UART_SetConfig+0xa8>
 8002ce0:	4b3c      	ldr	r3, [pc, #240]	; (8002dd4 <UART_SetConfig+0x258>)
 8002ce2:	f8d3 3090 	ldr.w	r3, [r3, #144]	; 0x90
 8002ce6:	f403 4340 	and.w	r3, r3, #49152	; 0xc000
 8002cea:	f5b3 4f00 	cmp.w	r3, #32768	; 0x8000
 8002cee:	d045      	beq.n	8002d7c <UART_SetConfig+0x200>
 8002cf0:	d804      	bhi.n	8002cfc <UART_SetConfig+0x180>
 8002cf2:	2b00      	cmp	r3, #0
 8002cf4:	d053      	beq.n	8002d9e <UART_SetConfig+0x222>
 8002cf6:	f5b3 4f80 	cmp.w	r3, #16384	; 0x4000
 8002cfa:	e791      	b.n	8002c20 <UART_SetConfig+0xa4>
 8002cfc:	f5b3 4f40 	cmp.w	r3, #49152	; 0xc000
 8002d00:	e793      	b.n	8002c2a <UART_SetConfig+0xae>
 8002d02:	f7ff fa2b 	bl	800215c <HAL_RCC_GetPCLK1Freq>
 8002d06:	b928      	cbnz	r0, 8002d14 <UART_SetConfig+0x198>
 8002d08:	2000      	movs	r0, #0
 8002d0a:	2300      	movs	r3, #0
 8002d0c:	e9c4 331a 	strd	r3, r3, [r4, #104]	; 0x68
 8002d10:	bd38      	pop	{r3, r4, r5, pc}
 8002d12:	483a      	ldr	r0, [pc, #232]	; (8002dfc <UART_SetConfig+0x280>)
 8002d14:	6862      	ldr	r2, [r4, #4]
 8002d16:	0853      	lsrs	r3, r2, #1
 8002d18:	eb03 0340 	add.w	r3, r3, r0, lsl #1
 8002d1c:	fbb3 f3f2 	udiv	r3, r3, r2
 8002d20:	f64f 72ef 	movw	r2, #65519	; 0xffef
 8002d24:	f1a3 0110 	sub.w	r1, r3, #16
 8002d28:	4291      	cmp	r1, r2
 8002d2a:	f63f af7b 	bhi.w	8002c24 <UART_SetConfig+0xa8>
 8002d2e:	f023 020f 	bic.w	r2, r3, #15
 8002d32:	f3c3 0342 	ubfx	r3, r3, #1, #3
 8002d36:	6821      	ldr	r1, [r4, #0]
 8002d38:	b292      	uxth	r2, r2
 8002d3a:	4313      	orrs	r3, r2
 8002d3c:	60cb      	str	r3, [r1, #12]
 8002d3e:	e7e3      	b.n	8002d08 <UART_SetConfig+0x18c>
 8002d40:	2b08      	cmp	r3, #8
 8002d42:	f63f af6f 	bhi.w	8002c24 <UART_SetConfig+0xa8>
 8002d46:	a201      	add	r2, pc, #4	; (adr r2, 8002d4c <UART_SetConfig+0x1d0>)
 8002d48:	f852 f023 	ldr.w	pc, [r2, r3, lsl #2]
 8002d4c:	08002da5 	.word	0x08002da5
 8002d50:	08002d71 	.word	0x08002d71
 8002d54:	08002d83 	.word	0x08002d83
 8002d58:	08002c25 	.word	0x08002c25
 8002d5c:	08002d77 	.word	0x08002d77
 8002d60:	08002c25 	.word	0x08002c25
 8002d64:	08002c25 	.word	0x08002c25
 8002d68:	08002c25 	.word	0x08002c25
 8002d6c:	08002c33 	.word	0x08002c33
 8002d70:	f7ff fa04 	bl	800217c <HAL_RCC_GetPCLK2Freq>
 8002d74:	e018      	b.n	8002da8 <UART_SetConfig+0x22c>
 8002d76:	f7ff f91f 	bl	8001fb8 <HAL_RCC_GetSysClockFreq>
 8002d7a:	e015      	b.n	8002da8 <UART_SetConfig+0x22c>
 8002d7c:	f5b0 4f00 	cmp.w	r0, #32768	; 0x8000
 8002d80:	d0c7      	beq.n	8002d12 <UART_SetConfig+0x196>
 8002d82:	481e      	ldr	r0, [pc, #120]	; (8002dfc <UART_SetConfig+0x280>)
 8002d84:	e012      	b.n	8002dac <UART_SetConfig+0x230>
 8002d86:	f5b0 4f00 	cmp.w	r0, #32768	; 0x8000
 8002d8a:	d1f4      	bne.n	8002d76 <UART_SetConfig+0x1fa>
 8002d8c:	f7ff f914 	bl	8001fb8 <HAL_RCC_GetSysClockFreq>
 8002d90:	e7b9      	b.n	8002d06 <UART_SetConfig+0x18a>
 8002d92:	f5b0 4f00 	cmp.w	r0, #32768	; 0x8000
 8002d96:	d1eb      	bne.n	8002d70 <UART_SetConfig+0x1f4>
 8002d98:	f7ff f9f0 	bl	800217c <HAL_RCC_GetPCLK2Freq>
 8002d9c:	e7b3      	b.n	8002d06 <UART_SetConfig+0x18a>
 8002d9e:	f5b0 4f00 	cmp.w	r0, #32768	; 0x8000
 8002da2:	d0ae      	beq.n	8002d02 <UART_SetConfig+0x186>
 8002da4:	f7ff f9da 	bl	800215c <HAL_RCC_GetPCLK1Freq>
 8002da8:	2800      	cmp	r0, #0
 8002daa:	d0ad      	beq.n	8002d08 <UART_SetConfig+0x18c>
 8002dac:	6862      	ldr	r2, [r4, #4]
 8002dae:	eb00 0352 	add.w	r3, r0, r2, lsr #1
 8002db2:	fbb3 f3f2 	udiv	r3, r3, r2
 8002db6:	f64f 72ef 	movw	r2, #65519	; 0xffef
 8002dba:	f1a3 0110 	sub.w	r1, r3, #16
 8002dbe:	4291      	cmp	r1, r2
 8002dc0:	f63f af30 	bhi.w	8002c24 <UART_SetConfig+0xa8>
 8002dc4:	6822      	ldr	r2, [r4, #0]
 8002dc6:	60d3      	str	r3, [r2, #12]
 8002dc8:	e79e      	b.n	8002d08 <UART_SetConfig+0x18c>
 8002dca:	bf00      	nop
 8002dcc:	efff69f3 	.word	0xefff69f3
 8002dd0:	40011000 	.word	0x40011000
 8002dd4:	40023800 	.word	0x40023800
 8002dd8:	0800bdcc 	.word	0x0800bdcc
 8002ddc:	40004400 	.word	0x40004400
 8002de0:	0800bdcf 	.word	0x0800bdcf
 8002de4:	40004800 	.word	0x40004800
 8002de8:	40004c00 	.word	0x40004c00
 8002dec:	40005000 	.word	0x40005000
 8002df0:	40011400 	.word	0x40011400
 8002df4:	40007800 	.word	0x40007800
 8002df8:	40007c00 	.word	0x40007c00
 8002dfc:	00f42400 	.word	0x00f42400

08002e00 <UART_AdvFeatureConfig>:
 8002e00:	6a43      	ldr	r3, [r0, #36]	; 0x24
 8002e02:	07da      	lsls	r2, r3, #31
 8002e04:	b510      	push	{r4, lr}
 8002e06:	d506      	bpl.n	8002e16 <UART_AdvFeatureConfig+0x16>
 8002e08:	6801      	ldr	r1, [r0, #0]
 8002e0a:	6a84      	ldr	r4, [r0, #40]	; 0x28
 8002e0c:	684a      	ldr	r2, [r1, #4]
 8002e0e:	f422 3200 	bic.w	r2, r2, #131072	; 0x20000
 8002e12:	4322      	orrs	r2, r4
 8002e14:	604a      	str	r2, [r1, #4]
 8002e16:	079c      	lsls	r4, r3, #30
 8002e18:	d506      	bpl.n	8002e28 <UART_AdvFeatureConfig+0x28>
 8002e1a:	6801      	ldr	r1, [r0, #0]
 8002e1c:	6ac4      	ldr	r4, [r0, #44]	; 0x2c
 8002e1e:	684a      	ldr	r2, [r1, #4]
 8002e20:	f422 3280 	bic.w	r2, r2, #65536	; 0x10000
 8002e24:	4322      	orrs	r2, r4
 8002e26:	604a      	str	r2, [r1, #4]
 8002e28:	0759      	lsls	r1, r3, #29
 8002e2a:	d506      	bpl.n	8002e3a <UART_AdvFeatureConfig+0x3a>
 8002e2c:	6801      	ldr	r1, [r0, #0]
 8002e2e:	6b04      	ldr	r4, [r0, #48]	; 0x30
 8002e30:	684a      	ldr	r2, [r1, #4]
 8002e32:	f422 2280 	bic.w	r2, r2, #262144	; 0x40000
 8002e36:	4322      	orrs	r2, r4
 8002e38:	604a      	str	r2, [r1, #4]
 8002e3a:	071a      	lsls	r2, r3, #28
 8002e3c:	d506      	bpl.n	8002e4c <UART_AdvFeatureConfig+0x4c>
 8002e3e:	6801      	ldr	r1, [r0, #0]
 8002e40:	6b44      	ldr	r4, [r0, #52]	; 0x34
 8002e42:	684a      	ldr	r2, [r1, #4]
 8002e44:	f422 4200 	bic.w	r2, r2, #32768	; 0x8000
 8002e48:	4322      	orrs	r2, r4
 8002e4a:	604a      	str	r2, [r1, #4]
 8002e4c:	06dc      	lsls	r4, r3, #27
 8002e4e:	d506      	bpl.n	8002e5e <UART_AdvFeatureConfig+0x5e>
 8002e50:	6801      	ldr	r1, [r0, #0]
 8002e52:	6b84      	ldr	r4, [r0, #56]	; 0x38
 8002e54:	688a      	ldr	r2, [r1, #8]
 8002e56:	f422 5280 	bic.w	r2, r2, #4096	; 0x1000
 8002e5a:	4322      	orrs	r2, r4
 8002e5c:	608a      	str	r2, [r1, #8]
 8002e5e:	0699      	lsls	r1, r3, #26
 8002e60:	d506      	bpl.n	8002e70 <UART_AdvFeatureConfig+0x70>
 8002e62:	6801      	ldr	r1, [r0, #0]
 8002e64:	6bc4      	ldr	r4, [r0, #60]	; 0x3c
 8002e66:	688a      	ldr	r2, [r1, #8]
 8002e68:	f422 5200 	bic.w	r2, r2, #8192	; 0x2000
 8002e6c:	4322      	orrs	r2, r4
 8002e6e:	608a      	str	r2, [r1, #8]
 8002e70:	065a      	lsls	r2, r3, #25
 8002e72:	d510      	bpl.n	8002e96 <UART_AdvFeatureConfig+0x96>
 8002e74:	6801      	ldr	r1, [r0, #0]
 8002e76:	6c04      	ldr	r4, [r0, #64]	; 0x40
 8002e78:	684a      	ldr	r2, [r1, #4]
 8002e7a:	f5b4 1f80 	cmp.w	r4, #1048576	; 0x100000
 8002e7e:	f422 1280 	bic.w	r2, r2, #1048576	; 0x100000
 8002e82:	ea42 0204 	orr.w	r2, r2, r4
 8002e86:	604a      	str	r2, [r1, #4]
 8002e88:	d105      	bne.n	8002e96 <UART_AdvFeatureConfig+0x96>
 8002e8a:	684a      	ldr	r2, [r1, #4]
 8002e8c:	6c44      	ldr	r4, [r0, #68]	; 0x44
 8002e8e:	f422 02c0 	bic.w	r2, r2, #6291456	; 0x600000
 8002e92:	4322      	orrs	r2, r4
 8002e94:	604a      	str	r2, [r1, #4]
 8002e96:	061b      	lsls	r3, r3, #24
 8002e98:	d506      	bpl.n	8002ea8 <UART_AdvFeatureConfig+0xa8>
 8002e9a:	6802      	ldr	r2, [r0, #0]
 8002e9c:	6c81      	ldr	r1, [r0, #72]	; 0x48
 8002e9e:	6853      	ldr	r3, [r2, #4]
 8002ea0:	f423 2300 	bic.w	r3, r3, #524288	; 0x80000
 8002ea4:	430b      	orrs	r3, r1
 8002ea6:	6053      	str	r3, [r2, #4]
 8002ea8:	bd10      	pop	{r4, pc}

08002eaa <UART_WaitOnFlagUntilTimeout>:
 8002eaa:	e92d 41f0 	stmdb	sp!, {r4, r5, r6, r7, r8, lr}
 8002eae:	f8dd 8018 	ldr.w	r8, [sp, #24]
 8002eb2:	4604      	mov	r4, r0
 8002eb4:	460e      	mov	r6, r1
 8002eb6:	4615      	mov	r5, r2
 8002eb8:	461f      	mov	r7, r3
 8002eba:	6822      	ldr	r2, [r4, #0]
 8002ebc:	69d3      	ldr	r3, [r2, #28]
 8002ebe:	ea36 0303 	bics.w	r3, r6, r3
 8002ec2:	bf0c      	ite	eq
 8002ec4:	2301      	moveq	r3, #1
 8002ec6:	2300      	movne	r3, #0
 8002ec8:	42ab      	cmp	r3, r5
 8002eca:	d001      	beq.n	8002ed0 <UART_WaitOnFlagUntilTimeout+0x26>
 8002ecc:	2000      	movs	r0, #0
 8002ece:	e026      	b.n	8002f1e <UART_WaitOnFlagUntilTimeout+0x74>
 8002ed0:	f1b8 3fff 	cmp.w	r8, #4294967295
 8002ed4:	d0f2      	beq.n	8002ebc <UART_WaitOnFlagUntilTimeout+0x12>
 8002ed6:	f7fd ffcb 	bl	8000e70 <HAL_GetTick>
 8002eda:	1bc0      	subs	r0, r0, r7
 8002edc:	4540      	cmp	r0, r8
 8002ede:	6820      	ldr	r0, [r4, #0]
 8002ee0:	d802      	bhi.n	8002ee8 <UART_WaitOnFlagUntilTimeout+0x3e>
 8002ee2:	f1b8 0f00 	cmp.w	r8, #0
 8002ee6:	d11c      	bne.n	8002f22 <UART_WaitOnFlagUntilTimeout+0x78>
 8002ee8:	e850 3f00 	ldrex	r3, [r0]
 8002eec:	f423 73d0 	bic.w	r3, r3, #416	; 0x1a0
 8002ef0:	e840 3200 	strex	r2, r3, [r0]
 8002ef4:	2a00      	cmp	r2, #0
 8002ef6:	d1f7      	bne.n	8002ee8 <UART_WaitOnFlagUntilTimeout+0x3e>
 8002ef8:	f100 0308 	add.w	r3, r0, #8
 8002efc:	e853 3f00 	ldrex	r3, [r3]
 8002f00:	f023 0301 	bic.w	r3, r3, #1
 8002f04:	f100 0108 	add.w	r1, r0, #8
 8002f08:	e841 3200 	strex	r2, r3, [r1]
 8002f0c:	2a00      	cmp	r2, #0
 8002f0e:	d1f3      	bne.n	8002ef8 <UART_WaitOnFlagUntilTimeout+0x4e>
 8002f10:	2320      	movs	r3, #32
 8002f12:	67e3      	str	r3, [r4, #124]	; 0x7c
 8002f14:	f8c4 3080 	str.w	r3, [r4, #128]	; 0x80
 8002f18:	2003      	movs	r0, #3
 8002f1a:	f884 2078 	strb.w	r2, [r4, #120]	; 0x78
 8002f1e:	e8bd 81f0 	ldmia.w	sp!, {r4, r5, r6, r7, r8, pc}
 8002f22:	6803      	ldr	r3, [r0, #0]
 8002f24:	075a      	lsls	r2, r3, #29
 8002f26:	d5c8      	bpl.n	8002eba <UART_WaitOnFlagUntilTimeout+0x10>
 8002f28:	69c3      	ldr	r3, [r0, #28]
 8002f2a:	051b      	lsls	r3, r3, #20
 8002f2c:	d5c5      	bpl.n	8002eba <UART_WaitOnFlagUntilTimeout+0x10>
 8002f2e:	f44f 6300 	mov.w	r3, #2048	; 0x800
 8002f32:	6203      	str	r3, [r0, #32]
 8002f34:	e850 3f00 	ldrex	r3, [r0]
 8002f38:	f423 73d0 	bic.w	r3, r3, #416	; 0x1a0
 8002f3c:	e840 3200 	strex	r2, r3, [r0]
 8002f40:	2a00      	cmp	r2, #0
 8002f42:	d1f7      	bne.n	8002f34 <UART_WaitOnFlagUntilTimeout+0x8a>
 8002f44:	f100 0308 	add.w	r3, r0, #8
 8002f48:	e853 3f00 	ldrex	r3, [r3]
 8002f4c:	f023 0301 	bic.w	r3, r3, #1
 8002f50:	f100 0108 	add.w	r1, r0, #8
 8002f54:	e841 3200 	strex	r2, r3, [r1]
 8002f58:	2a00      	cmp	r2, #0
 8002f5a:	d1f3      	bne.n	8002f44 <UART_WaitOnFlagUntilTimeout+0x9a>
 8002f5c:	2320      	movs	r3, #32
 8002f5e:	67e3      	str	r3, [r4, #124]	; 0x7c
 8002f60:	f8c4 3080 	str.w	r3, [r4, #128]	; 0x80
 8002f64:	f8c4 3084 	str.w	r3, [r4, #132]	; 0x84
 8002f68:	e7d6      	b.n	8002f18 <UART_WaitOnFlagUntilTimeout+0x6e>

08002f6a <UART_CheckIdleState>:
 8002f6a:	b537      	push	{r0, r1, r2, r4, r5, lr}
 8002f6c:	2500      	movs	r5, #0
 8002f6e:	4604      	mov	r4, r0
 8002f70:	f8c0 5084 	str.w	r5, [r0, #132]	; 0x84
 8002f74:	f7fd ff7c 	bl	8000e70 <HAL_GetTick>
 8002f78:	6822      	ldr	r2, [r4, #0]
 8002f7a:	4603      	mov	r3, r0
 8002f7c:	6812      	ldr	r2, [r2, #0]
 8002f7e:	0712      	lsls	r2, r2, #28
 8002f80:	d40a      	bmi.n	8002f98 <UART_CheckIdleState+0x2e>
 8002f82:	2000      	movs	r0, #0
 8002f84:	2320      	movs	r3, #32
 8002f86:	f884 0078 	strb.w	r0, [r4, #120]	; 0x78
 8002f8a:	67e3      	str	r3, [r4, #124]	; 0x7c
 8002f8c:	f8c4 3080 	str.w	r3, [r4, #128]	; 0x80
 8002f90:	6620      	str	r0, [r4, #96]	; 0x60
 8002f92:	6660      	str	r0, [r4, #100]	; 0x64
 8002f94:	b003      	add	sp, #12
 8002f96:	bd30      	pop	{r4, r5, pc}
 8002f98:	f06f 427e 	mvn.w	r2, #4261412864	; 0xfe000000
 8002f9c:	f44f 1100 	mov.w	r1, #2097152	; 0x200000
 8002fa0:	4620      	mov	r0, r4
 8002fa2:	9200      	str	r2, [sp, #0]
 8002fa4:	462a      	mov	r2, r5
 8002fa6:	f7ff ff80 	bl	8002eaa <UART_WaitOnFlagUntilTimeout>
 8002faa:	2800      	cmp	r0, #0
 8002fac:	d0e9      	beq.n	8002f82 <UART_CheckIdleState+0x18>
 8002fae:	2003      	movs	r0, #3
 8002fb0:	e7f0      	b.n	8002f94 <UART_CheckIdleState+0x2a>

08002fb2 <HAL_UART_Init>:
 8002fb2:	b510      	push	{r4, lr}
 8002fb4:	4604      	mov	r4, r0
 8002fb6:	b340      	cbz	r0, 800300a <HAL_UART_Init+0x58>
 8002fb8:	6fc3      	ldr	r3, [r0, #124]	; 0x7c
 8002fba:	b91b      	cbnz	r3, 8002fc4 <HAL_UART_Init+0x12>
 8002fbc:	f880 3078 	strb.w	r3, [r0, #120]	; 0x78
 8002fc0:	f7fd fd22 	bl	8000a08 <HAL_UART_MspInit>
 8002fc4:	6822      	ldr	r2, [r4, #0]
 8002fc6:	2324      	movs	r3, #36	; 0x24
 8002fc8:	4620      	mov	r0, r4
 8002fca:	67e3      	str	r3, [r4, #124]	; 0x7c
 8002fcc:	6813      	ldr	r3, [r2, #0]
 8002fce:	f023 0301 	bic.w	r3, r3, #1
 8002fd2:	6013      	str	r3, [r2, #0]
 8002fd4:	f7ff fdd2 	bl	8002b7c <UART_SetConfig>
 8002fd8:	2801      	cmp	r0, #1
 8002fda:	d016      	beq.n	800300a <HAL_UART_Init+0x58>
 8002fdc:	6a63      	ldr	r3, [r4, #36]	; 0x24
 8002fde:	b113      	cbz	r3, 8002fe6 <HAL_UART_Init+0x34>
 8002fe0:	4620      	mov	r0, r4
 8002fe2:	f7ff ff0d 	bl	8002e00 <UART_AdvFeatureConfig>
 8002fe6:	6823      	ldr	r3, [r4, #0]
 8002fe8:	4620      	mov	r0, r4
 8002fea:	685a      	ldr	r2, [r3, #4]
 8002fec:	f422 4290 	bic.w	r2, r2, #18432	; 0x4800
 8002ff0:	605a      	str	r2, [r3, #4]
 8002ff2:	689a      	ldr	r2, [r3, #8]
 8002ff4:	f022 022a 	bic.w	r2, r2, #42	; 0x2a
 8002ff8:	609a      	str	r2, [r3, #8]
 8002ffa:	681a      	ldr	r2, [r3, #0]
 8002ffc:	f042 0201 	orr.w	r2, r2, #1
 8003000:	e8bd 4010 	ldmia.w	sp!, {r4, lr}
 8003004:	601a      	str	r2, [r3, #0]
 8003006:	f7ff bfb0 	b.w	8002f6a <UART_CheckIdleState>
 800300a:	2001      	movs	r0, #1
 800300c:	bd10      	pop	{r4, pc}
	...

08003010 <USB_CoreReset>:
 8003010:	b082      	sub	sp, #8
 8003012:	2300      	movs	r3, #0
 8003014:	4a10      	ldr	r2, [pc, #64]	; (8003058 <USB_CoreReset+0x48>)
 8003016:	9301      	str	r3, [sp, #4]
 8003018:	9b01      	ldr	r3, [sp, #4]
 800301a:	3301      	adds	r3, #1
 800301c:	9301      	str	r3, [sp, #4]
 800301e:	9b01      	ldr	r3, [sp, #4]
 8003020:	4293      	cmp	r3, r2
 8003022:	d816      	bhi.n	8003052 <USB_CoreReset+0x42>
 8003024:	6903      	ldr	r3, [r0, #16]
 8003026:	2b00      	cmp	r3, #0
 8003028:	daf6      	bge.n	8003018 <USB_CoreReset+0x8>
 800302a:	2300      	movs	r3, #0
 800302c:	4a0a      	ldr	r2, [pc, #40]	; (8003058 <USB_CoreReset+0x48>)
 800302e:	9301      	str	r3, [sp, #4]
 8003030:	6903      	ldr	r3, [r0, #16]
 8003032:	f043 0301 	orr.w	r3, r3, #1
 8003036:	6103      	str	r3, [r0, #16]
 8003038:	9b01      	ldr	r3, [sp, #4]
 800303a:	3301      	adds	r3, #1
 800303c:	9301      	str	r3, [sp, #4]
 800303e:	9b01      	ldr	r3, [sp, #4]
 8003040:	4293      	cmp	r3, r2
 8003042:	d806      	bhi.n	8003052 <USB_CoreReset+0x42>
 8003044:	6903      	ldr	r3, [r0, #16]
 8003046:	f013 0301 	ands.w	r3, r3, #1
 800304a:	d1f5      	bne.n	8003038 <USB_CoreReset+0x28>
 800304c:	4618      	mov	r0, r3
 800304e:	b002      	add	sp, #8
 8003050:	4770      	bx	lr
 8003052:	2003      	movs	r0, #3
 8003054:	e7fb      	b.n	800304e <USB_CoreReset+0x3e>
 8003056:	bf00      	nop
 8003058:	00030d40 	.word	0x00030d40

0800305c <USB_CoreInit>:
 800305c:	b084      	sub	sp, #16
 800305e:	b538      	push	{r3, r4, r5, lr}
 8003060:	ad05      	add	r5, sp, #20
 8003062:	4604      	mov	r4, r0
 8003064:	e885 000e 	stmia.w	r5, {r1, r2, r3}
 8003068:	9b0a      	ldr	r3, [sp, #40]	; 0x28
 800306a:	2b01      	cmp	r3, #1
 800306c:	d126      	bne.n	80030bc <USB_CoreInit+0x60>
 800306e:	6b83      	ldr	r3, [r0, #56]	; 0x38
 8003070:	f423 3380 	bic.w	r3, r3, #65536	; 0x10000
 8003074:	6383      	str	r3, [r0, #56]	; 0x38
 8003076:	68c3      	ldr	r3, [r0, #12]
 8003078:	f423 0384 	bic.w	r3, r3, #4325376	; 0x420000
 800307c:	f023 0340 	bic.w	r3, r3, #64	; 0x40
 8003080:	60c3      	str	r3, [r0, #12]
 8003082:	68c3      	ldr	r3, [r0, #12]
 8003084:	f423 1340 	bic.w	r3, r3, #3145728	; 0x300000
 8003088:	60c3      	str	r3, [r0, #12]
 800308a:	9b11      	ldr	r3, [sp, #68]	; 0x44
 800308c:	2b01      	cmp	r3, #1
 800308e:	d103      	bne.n	8003098 <USB_CoreInit+0x3c>
 8003090:	68c3      	ldr	r3, [r0, #12]
 8003092:	f443 1380 	orr.w	r3, r3, #1048576	; 0x100000
 8003096:	60c3      	str	r3, [r0, #12]
 8003098:	4620      	mov	r0, r4
 800309a:	f7ff ffb9 	bl	8003010 <USB_CoreReset>
 800309e:	9b08      	ldr	r3, [sp, #32]
 80030a0:	2b01      	cmp	r3, #1
 80030a2:	d107      	bne.n	80030b4 <USB_CoreInit+0x58>
 80030a4:	68a3      	ldr	r3, [r4, #8]
 80030a6:	f043 0306 	orr.w	r3, r3, #6
 80030aa:	60a3      	str	r3, [r4, #8]
 80030ac:	68a3      	ldr	r3, [r4, #8]
 80030ae:	f043 0320 	orr.w	r3, r3, #32
 80030b2:	60a3      	str	r3, [r4, #8]
 80030b4:	e8bd 4038 	ldmia.w	sp!, {r3, r4, r5, lr}
 80030b8:	b004      	add	sp, #16
 80030ba:	4770      	bx	lr
 80030bc:	68c3      	ldr	r3, [r0, #12]
 80030be:	f043 0340 	orr.w	r3, r3, #64	; 0x40
 80030c2:	60c3      	str	r3, [r0, #12]
 80030c4:	f7ff ffa4 	bl	8003010 <USB_CoreReset>
 80030c8:	6ba3      	ldr	r3, [r4, #56]	; 0x38
 80030ca:	f443 3380 	orr.w	r3, r3, #65536	; 0x10000
 80030ce:	63a3      	str	r3, [r4, #56]	; 0x38
 80030d0:	e7e5      	b.n	800309e <USB_CoreInit+0x42>

080030d2 <USB_DisableGlobalInt>:
 80030d2:	6883      	ldr	r3, [r0, #8]
 80030d4:	f023 0301 	bic.w	r3, r3, #1
 80030d8:	6083      	str	r3, [r0, #8]
 80030da:	2000      	movs	r0, #0
 80030dc:	4770      	bx	lr

080030de <USB_SetCurrentMode>:
 80030de:	b538      	push	{r3, r4, r5, lr}
 80030e0:	68c3      	ldr	r3, [r0, #12]
 80030e2:	2901      	cmp	r1, #1
 80030e4:	4605      	mov	r5, r0
 80030e6:	f023 43c0 	bic.w	r3, r3, #1610612736	; 0x60000000
 80030ea:	60c3      	str	r3, [r0, #12]
 80030ec:	d10f      	bne.n	800310e <USB_SetCurrentMode+0x30>
 80030ee:	68c3      	ldr	r3, [r0, #12]
 80030f0:	2400      	movs	r4, #0
 80030f2:	f043 5300 	orr.w	r3, r3, #536870912	; 0x20000000
 80030f6:	60c3      	str	r3, [r0, #12]
 80030f8:	2001      	movs	r0, #1
 80030fa:	3401      	adds	r4, #1
 80030fc:	f7fd febe 	bl	8000e7c <HAL_Delay>
 8003100:	696b      	ldr	r3, [r5, #20]
 8003102:	07d9      	lsls	r1, r3, #31
 8003104:	d414      	bmi.n	8003130 <USB_SetCurrentMode+0x52>
 8003106:	2c32      	cmp	r4, #50	; 0x32
 8003108:	d1f6      	bne.n	80030f8 <USB_SetCurrentMode+0x1a>
 800310a:	2001      	movs	r0, #1
 800310c:	bd38      	pop	{r3, r4, r5, pc}
 800310e:	2900      	cmp	r1, #0
 8003110:	d1fb      	bne.n	800310a <USB_SetCurrentMode+0x2c>
 8003112:	68c3      	ldr	r3, [r0, #12]
 8003114:	460c      	mov	r4, r1
 8003116:	f043 4380 	orr.w	r3, r3, #1073741824	; 0x40000000
 800311a:	60c3      	str	r3, [r0, #12]
 800311c:	2001      	movs	r0, #1
 800311e:	3401      	adds	r4, #1
 8003120:	f7fd feac 	bl	8000e7c <HAL_Delay>
 8003124:	696b      	ldr	r3, [r5, #20]
 8003126:	07da      	lsls	r2, r3, #31
 8003128:	d502      	bpl.n	8003130 <USB_SetCurrentMode+0x52>
 800312a:	2c32      	cmp	r4, #50	; 0x32
 800312c:	d1f6      	bne.n	800311c <USB_SetCurrentMode+0x3e>
 800312e:	e7ec      	b.n	800310a <USB_SetCurrentMode+0x2c>
 8003130:	f1a4 0332 	sub.w	r3, r4, #50	; 0x32
 8003134:	4258      	negs	r0, r3
 8003136:	4158      	adcs	r0, r3
 8003138:	e7e8      	b.n	800310c <USB_SetCurrentMode+0x2e>
	...

0800313c <USB_FlushTxFifo>:
 800313c:	b082      	sub	sp, #8
 800313e:	2300      	movs	r3, #0
 8003140:	4a10      	ldr	r2, [pc, #64]	; (8003184 <USB_FlushTxFifo+0x48>)
 8003142:	9301      	str	r3, [sp, #4]
 8003144:	9b01      	ldr	r3, [sp, #4]
 8003146:	3301      	adds	r3, #1
 8003148:	9301      	str	r3, [sp, #4]
 800314a:	9b01      	ldr	r3, [sp, #4]
 800314c:	4293      	cmp	r3, r2
 800314e:	d816      	bhi.n	800317e <USB_FlushTxFifo+0x42>
 8003150:	6903      	ldr	r3, [r0, #16]
 8003152:	2b00      	cmp	r3, #0
 8003154:	daf6      	bge.n	8003144 <USB_FlushTxFifo+0x8>
 8003156:	0189      	lsls	r1, r1, #6
 8003158:	2300      	movs	r3, #0
 800315a:	4a0a      	ldr	r2, [pc, #40]	; (8003184 <USB_FlushTxFifo+0x48>)
 800315c:	f041 0120 	orr.w	r1, r1, #32
 8003160:	9301      	str	r3, [sp, #4]
 8003162:	6101      	str	r1, [r0, #16]
 8003164:	9b01      	ldr	r3, [sp, #4]
 8003166:	3301      	adds	r3, #1
 8003168:	9301      	str	r3, [sp, #4]
 800316a:	9b01      	ldr	r3, [sp, #4]
 800316c:	4293      	cmp	r3, r2
 800316e:	d806      	bhi.n	800317e <USB_FlushTxFifo+0x42>
 8003170:	6903      	ldr	r3, [r0, #16]
 8003172:	f013 0320 	ands.w	r3, r3, #32
 8003176:	d1f5      	bne.n	8003164 <USB_FlushTxFifo+0x28>
 8003178:	4618      	mov	r0, r3
 800317a:	b002      	add	sp, #8
 800317c:	4770      	bx	lr
 800317e:	2003      	movs	r0, #3
 8003180:	e7fb      	b.n	800317a <USB_FlushTxFifo+0x3e>
 8003182:	bf00      	nop
 8003184:	00030d40 	.word	0x00030d40

08003188 <USB_FlushRxFifo>:
 8003188:	b082      	sub	sp, #8
 800318a:	2300      	movs	r3, #0
 800318c:	4a0f      	ldr	r2, [pc, #60]	; (80031cc <USB_FlushRxFifo+0x44>)
 800318e:	9301      	str	r3, [sp, #4]
 8003190:	9b01      	ldr	r3, [sp, #4]
 8003192:	3301      	adds	r3, #1
 8003194:	9301      	str	r3, [sp, #4]
 8003196:	9b01      	ldr	r3, [sp, #4]
 8003198:	4293      	cmp	r3, r2
 800319a:	d814      	bhi.n	80031c6 <USB_FlushRxFifo+0x3e>
 800319c:	6903      	ldr	r3, [r0, #16]
 800319e:	2b00      	cmp	r3, #0
 80031a0:	daf6      	bge.n	8003190 <USB_FlushRxFifo+0x8>
 80031a2:	2300      	movs	r3, #0
 80031a4:	4a09      	ldr	r2, [pc, #36]	; (80031cc <USB_FlushRxFifo+0x44>)
 80031a6:	9301      	str	r3, [sp, #4]
 80031a8:	2310      	movs	r3, #16
 80031aa:	6103      	str	r3, [r0, #16]
 80031ac:	9b01      	ldr	r3, [sp, #4]
 80031ae:	3301      	adds	r3, #1
 80031b0:	9301      	str	r3, [sp, #4]
 80031b2:	9b01      	ldr	r3, [sp, #4]
 80031b4:	4293      	cmp	r3, r2
 80031b6:	d806      	bhi.n	80031c6 <USB_FlushRxFifo+0x3e>
 80031b8:	6903      	ldr	r3, [r0, #16]
 80031ba:	f013 0310 	ands.w	r3, r3, #16
 80031be:	d1f5      	bne.n	80031ac <USB_FlushRxFifo+0x24>
 80031c0:	4618      	mov	r0, r3
 80031c2:	b002      	add	sp, #8
 80031c4:	4770      	bx	lr
 80031c6:	2003      	movs	r0, #3
 80031c8:	e7fb      	b.n	80031c2 <USB_FlushRxFifo+0x3a>
 80031ca:	bf00      	nop
 80031cc:	00030d40 	.word	0x00030d40

080031d0 <USB_SetDevSpeed>:
 80031d0:	f8d0 3800 	ldr.w	r3, [r0, #2048]	; 0x800
 80031d4:	4319      	orrs	r1, r3
 80031d6:	f8c0 1800 	str.w	r1, [r0, #2048]	; 0x800
 80031da:	2000      	movs	r0, #0
 80031dc:	4770      	bx	lr
	...

080031e0 <USB_DevInit>:
 80031e0:	b084      	sub	sp, #16
 80031e2:	e92d 43f8 	stmdb	sp!, {r3, r4, r5, r6, r7, r8, r9, lr}
 80031e6:	4604      	mov	r4, r0
 80031e8:	a809      	add	r0, sp, #36	; 0x24
 80031ea:	460e      	mov	r6, r1
 80031ec:	9d13      	ldr	r5, [sp, #76]	; 0x4c
 80031ee:	e880 000e 	stmia.w	r0, {r1, r2, r3}
 80031f2:	2300      	movs	r3, #0
 80031f4:	4619      	mov	r1, r3
 80031f6:	f103 0240 	add.w	r2, r3, #64	; 0x40
 80031fa:	3301      	adds	r3, #1
 80031fc:	eb04 0282 	add.w	r2, r4, r2, lsl #2
 8003200:	2b0f      	cmp	r3, #15
 8003202:	6051      	str	r1, [r2, #4]
 8003204:	d1f7      	bne.n	80031f6 <USB_DevInit+0x16>
 8003206:	f504 6700 	add.w	r7, r4, #2048	; 0x800
 800320a:	2d00      	cmp	r5, #0
 800320c:	d16c      	bne.n	80032e8 <USB_DevInit+0x108>
 800320e:	687b      	ldr	r3, [r7, #4]
 8003210:	f043 0302 	orr.w	r3, r3, #2
 8003214:	607b      	str	r3, [r7, #4]
 8003216:	6ba3      	ldr	r3, [r4, #56]	; 0x38
 8003218:	f423 1300 	bic.w	r3, r3, #2097152	; 0x200000
 800321c:	63a3      	str	r3, [r4, #56]	; 0x38
 800321e:	6823      	ldr	r3, [r4, #0]
 8003220:	f043 0340 	orr.w	r3, r3, #64	; 0x40
 8003224:	6023      	str	r3, [r4, #0]
 8003226:	6823      	ldr	r3, [r4, #0]
 8003228:	f043 0380 	orr.w	r3, r3, #128	; 0x80
 800322c:	6023      	str	r3, [r4, #0]
 800322e:	2300      	movs	r3, #0
 8003230:	f8c4 3e00 	str.w	r3, [r4, #3584]	; 0xe00
 8003234:	f8d4 3800 	ldr.w	r3, [r4, #2048]	; 0x800
 8003238:	f8c4 3800 	str.w	r3, [r4, #2048]	; 0x800
 800323c:	9b0e      	ldr	r3, [sp, #56]	; 0x38
 800323e:	2b01      	cmp	r3, #1
 8003240:	d159      	bne.n	80032f6 <USB_DevInit+0x116>
 8003242:	990b      	ldr	r1, [sp, #44]	; 0x2c
 8003244:	2900      	cmp	r1, #0
 8003246:	d154      	bne.n	80032f2 <USB_DevInit+0x112>
 8003248:	4620      	mov	r0, r4
 800324a:	f64f 387f 	movw	r8, #64383	; 0xfb7f
 800324e:	f7ff ffbf 	bl	80031d0 <USB_SetDevSpeed>
 8003252:	2110      	movs	r1, #16
 8003254:	4620      	mov	r0, r4
 8003256:	f7ff ff71 	bl	800313c <USB_FlushTxFifo>
 800325a:	4601      	mov	r1, r0
 800325c:	4620      	mov	r0, r4
 800325e:	f7ff ff93 	bl	8003188 <USB_FlushRxFifo>
 8003262:	4308      	orrs	r0, r1
 8003264:	2300      	movs	r3, #0
 8003266:	f504 6210 	add.w	r2, r4, #2304	; 0x900
 800326a:	b2c0      	uxtb	r0, r0
 800326c:	f04f 4c90 	mov.w	ip, #1207959552	; 0x48000000
 8003270:	4619      	mov	r1, r3
 8003272:	f04f 6e00 	mov.w	lr, #134217728	; 0x8000000
 8003276:	3800      	subs	r0, #0
 8003278:	613b      	str	r3, [r7, #16]
 800327a:	617b      	str	r3, [r7, #20]
 800327c:	bf18      	it	ne
 800327e:	2001      	movne	r0, #1
 8003280:	61fb      	str	r3, [r7, #28]
 8003282:	42b3      	cmp	r3, r6
 8003284:	d139      	bne.n	80032fa <USB_DevInit+0x11a>
 8003286:	2200      	movs	r2, #0
 8003288:	f504 6330 	add.w	r3, r4, #2816	; 0xb00
 800328c:	f04f 4c90 	mov.w	ip, #1207959552	; 0x48000000
 8003290:	f04f 6e00 	mov.w	lr, #134217728	; 0x8000000
 8003294:	4611      	mov	r1, r2
 8003296:	f64f 387f 	movw	r8, #64383	; 0xfb7f
 800329a:	42b2      	cmp	r2, r6
 800329c:	d140      	bne.n	8003320 <USB_DevInit+0x140>
 800329e:	693b      	ldr	r3, [r7, #16]
 80032a0:	f423 7380 	bic.w	r3, r3, #256	; 0x100
 80032a4:	613b      	str	r3, [r7, #16]
 80032a6:	2300      	movs	r3, #0
 80032a8:	61a3      	str	r3, [r4, #24]
 80032aa:	f06f 4380 	mvn.w	r3, #1073741824	; 0x40000000
 80032ae:	6163      	str	r3, [r4, #20]
 80032b0:	9b0c      	ldr	r3, [sp, #48]	; 0x30
 80032b2:	b91b      	cbnz	r3, 80032bc <USB_DevInit+0xdc>
 80032b4:	69a3      	ldr	r3, [r4, #24]
 80032b6:	f043 0310 	orr.w	r3, r3, #16
 80032ba:	61a3      	str	r3, [r4, #24]
 80032bc:	69a2      	ldr	r2, [r4, #24]
 80032be:	4b22      	ldr	r3, [pc, #136]	; (8003348 <USB_DevInit+0x168>)
 80032c0:	4313      	orrs	r3, r2
 80032c2:	61a3      	str	r3, [r4, #24]
 80032c4:	9b0f      	ldr	r3, [sp, #60]	; 0x3c
 80032c6:	b11b      	cbz	r3, 80032d0 <USB_DevInit+0xf0>
 80032c8:	69a3      	ldr	r3, [r4, #24]
 80032ca:	f043 0308 	orr.w	r3, r3, #8
 80032ce:	61a3      	str	r3, [r4, #24]
 80032d0:	2d01      	cmp	r5, #1
 80032d2:	d105      	bne.n	80032e0 <USB_DevInit+0x100>
 80032d4:	69a3      	ldr	r3, [r4, #24]
 80032d6:	f043 4380 	orr.w	r3, r3, #1073741824	; 0x40000000
 80032da:	f043 0304 	orr.w	r3, r3, #4
 80032de:	61a3      	str	r3, [r4, #24]
 80032e0:	e8bd 43f8 	ldmia.w	sp!, {r3, r4, r5, r6, r7, r8, r9, lr}
 80032e4:	b004      	add	sp, #16
 80032e6:	4770      	bx	lr
 80032e8:	6ba3      	ldr	r3, [r4, #56]	; 0x38
 80032ea:	f443 1300 	orr.w	r3, r3, #2097152	; 0x200000
 80032ee:	63a3      	str	r3, [r4, #56]	; 0x38
 80032f0:	e79d      	b.n	800322e <USB_DevInit+0x4e>
 80032f2:	4619      	mov	r1, r3
 80032f4:	e7a8      	b.n	8003248 <USB_DevInit+0x68>
 80032f6:	2103      	movs	r1, #3
 80032f8:	e7a6      	b.n	8003248 <USB_DevInit+0x68>
 80032fa:	f8d2 9000 	ldr.w	r9, [r2]
 80032fe:	f1b9 0f00 	cmp.w	r9, #0
 8003302:	da0b      	bge.n	800331c <USB_DevInit+0x13c>
 8003304:	b93b      	cbnz	r3, 8003316 <USB_DevInit+0x136>
 8003306:	f8c2 e000 	str.w	lr, [r2]
 800330a:	6111      	str	r1, [r2, #16]
 800330c:	3301      	adds	r3, #1
 800330e:	f8c2 8008 	str.w	r8, [r2, #8]
 8003312:	3220      	adds	r2, #32
 8003314:	e7b5      	b.n	8003282 <USB_DevInit+0xa2>
 8003316:	f8c2 c000 	str.w	ip, [r2]
 800331a:	e7f6      	b.n	800330a <USB_DevInit+0x12a>
 800331c:	6011      	str	r1, [r2, #0]
 800331e:	e7f4      	b.n	800330a <USB_DevInit+0x12a>
 8003320:	f8d3 9000 	ldr.w	r9, [r3]
 8003324:	f1b9 0f00 	cmp.w	r9, #0
 8003328:	da0b      	bge.n	8003342 <USB_DevInit+0x162>
 800332a:	b93a      	cbnz	r2, 800333c <USB_DevInit+0x15c>
 800332c:	f8c3 e000 	str.w	lr, [r3]
 8003330:	6119      	str	r1, [r3, #16]
 8003332:	3201      	adds	r2, #1
 8003334:	f8c3 8008 	str.w	r8, [r3, #8]
 8003338:	3320      	adds	r3, #32
 800333a:	e7ae      	b.n	800329a <USB_DevInit+0xba>
 800333c:	f8c3 c000 	str.w	ip, [r3]
 8003340:	e7f6      	b.n	8003330 <USB_DevInit+0x150>
 8003342:	6019      	str	r1, [r3, #0]
 8003344:	e7f4      	b.n	8003330 <USB_DevInit+0x150>
 8003346:	bf00      	nop
 8003348:	803c3800 	.word	0x803c3800

0800334c <USB_DevDisconnect>:
 800334c:	f8d0 3e00 	ldr.w	r3, [r0, #3584]	; 0xe00
 8003350:	f023 0303 	bic.w	r3, r3, #3
 8003354:	f8c0 3e00 	str.w	r3, [r0, #3584]	; 0xe00
 8003358:	f8d0 3804 	ldr.w	r3, [r0, #2052]	; 0x804
 800335c:	f043 0302 	orr.w	r3, r3, #2
 8003360:	f8c0 3804 	str.w	r3, [r0, #2052]	; 0x804
 8003364:	2000      	movs	r0, #0
 8003366:	4770      	bx	lr

08003368 <ethernet_link_status_updated>:
 8003368:	4770      	bx	lr
	...

0800336c <MX_LWIP_Init>:
 800336c:	b5f0      	push	{r4, r5, r6, r7, lr}
 800336e:	236e      	movs	r3, #110	; 0x6e
 8003370:	4e1b      	ldr	r6, [pc, #108]	; (80033e0 <MX_LWIP_Init+0x74>)
 8003372:	4d1c      	ldr	r5, [pc, #112]	; (80033e4 <MX_LWIP_Init+0x78>)
 8003374:	20c0      	movs	r0, #192	; 0xc0
 8003376:	70f3      	strb	r3, [r6, #3]
 8003378:	23ff      	movs	r3, #255	; 0xff
 800337a:	4c1b      	ldr	r4, [pc, #108]	; (80033e8 <MX_LWIP_Init+0x7c>)
 800337c:	21a8      	movs	r1, #168	; 0xa8
 800337e:	2289      	movs	r2, #137	; 0x89
 8003380:	702b      	strb	r3, [r5, #0]
 8003382:	706b      	strb	r3, [r5, #1]
 8003384:	2700      	movs	r7, #0
 8003386:	70ab      	strb	r3, [r5, #2]
 8003388:	2301      	movs	r3, #1
 800338a:	b085      	sub	sp, #20
 800338c:	7020      	strb	r0, [r4, #0]
 800338e:	7061      	strb	r1, [r4, #1]
 8003390:	70a2      	strb	r2, [r4, #2]
 8003392:	70e3      	strb	r3, [r4, #3]
 8003394:	7030      	strb	r0, [r6, #0]
 8003396:	7071      	strb	r1, [r6, #1]
 8003398:	70b2      	strb	r2, [r6, #2]
 800339a:	70ef      	strb	r7, [r5, #3]
 800339c:	f000 fbc3 	bl	8003b26 <lwip_init>
 80033a0:	4912      	ldr	r1, [pc, #72]	; (80033ec <MX_LWIP_Init+0x80>)
 80033a2:	6833      	ldr	r3, [r6, #0]
 80033a4:	4a12      	ldr	r2, [pc, #72]	; (80033f0 <MX_LWIP_Init+0x84>)
 80033a6:	600b      	str	r3, [r1, #0]
 80033a8:	682b      	ldr	r3, [r5, #0]
 80033aa:	6820      	ldr	r0, [r4, #0]
 80033ac:	6013      	str	r3, [r2, #0]
 80033ae:	4b11      	ldr	r3, [pc, #68]	; (80033f4 <MX_LWIP_Init+0x88>)
 80033b0:	4c11      	ldr	r4, [pc, #68]	; (80033f8 <MX_LWIP_Init+0x8c>)
 80033b2:	6018      	str	r0, [r3, #0]
 80033b4:	4811      	ldr	r0, [pc, #68]	; (80033fc <MX_LWIP_Init+0x90>)
 80033b6:	9002      	str	r0, [sp, #8]
 80033b8:	4811      	ldr	r0, [pc, #68]	; (8003400 <MX_LWIP_Init+0x94>)
 80033ba:	e9cd 7000 	strd	r7, r0, [sp]
 80033be:	4620      	mov	r0, r4
 80033c0:	f000 ff0c 	bl	80041dc <netif_add>
 80033c4:	4620      	mov	r0, r4
 80033c6:	f000 ff9f 	bl	8004308 <netif_set_default>
 80033ca:	4620      	mov	r0, r4
 80033cc:	f000 ffa2 	bl	8004314 <netif_set_up>
 80033d0:	490c      	ldr	r1, [pc, #48]	; (8003404 <MX_LWIP_Init+0x98>)
 80033d2:	4620      	mov	r0, r4
 80033d4:	b005      	add	sp, #20
 80033d6:	e8bd 40f0 	ldmia.w	sp!, {r4, r5, r6, r7, lr}
 80033da:	f001 b80f 	b.w	80043fc <netif_set_link_callback>
 80033de:	bf00      	nop
 80033e0:	20000804 	.word	0x20000804
 80033e4:	20000808 	.word	0x20000808
 80033e8:	20000800 	.word	0x20000800
 80033ec:	20000844 	.word	0x20000844
 80033f0:	20000848 	.word	0x20000848
 80033f4:	20000840 	.word	0x20000840
 80033f8:	2000080c 	.word	0x2000080c
 80033fc:	080096ad 	.word	0x080096ad
 8003400:	080036b9 	.word	0x080036b9
 8003404:	08003369 	.word	0x08003369

08003408 <ETH_PHY_IO_DeInit>:
 8003408:	2000      	movs	r0, #0
 800340a:	4770      	bx	lr

0800340c <low_level_output>:
 800340c:	b530      	push	{r4, r5, lr}
 800340e:	b08d      	sub	sp, #52	; 0x34
 8003410:	460d      	mov	r5, r1
 8003412:	2230      	movs	r2, #48	; 0x30
 8003414:	2100      	movs	r1, #0
 8003416:	4668      	mov	r0, sp
 8003418:	462c      	mov	r4, r5
 800341a:	f006 fbba 	bl	8009b92 <memset>
 800341e:	466b      	mov	r3, sp
 8003420:	2200      	movs	r2, #0
 8003422:	b964      	cbnz	r4, 800343e <low_level_output+0x32>
 8003424:	490f      	ldr	r1, [pc, #60]	; (8003464 <low_level_output+0x58>)
 8003426:	2214      	movs	r2, #20
 8003428:	892b      	ldrh	r3, [r5, #8]
 800342a:	480f      	ldr	r0, [pc, #60]	; (8003468 <low_level_output+0x5c>)
 800342c:	604b      	str	r3, [r1, #4]
 800342e:	f8c1 d008 	str.w	sp, [r1, #8]
 8003432:	634d      	str	r5, [r1, #52]	; 0x34
 8003434:	f7fe f8b8 	bl	80015a8 <HAL_ETH_Transmit>
 8003438:	4620      	mov	r0, r4
 800343a:	b00d      	add	sp, #52	; 0x34
 800343c:	bd30      	pop	{r4, r5, pc}
 800343e:	2a04      	cmp	r2, #4
 8003440:	d00c      	beq.n	800345c <low_level_output+0x50>
 8003442:	6861      	ldr	r1, [r4, #4]
 8003444:	6019      	str	r1, [r3, #0]
 8003446:	8961      	ldrh	r1, [r4, #10]
 8003448:	6059      	str	r1, [r3, #4]
 800344a:	b10a      	cbz	r2, 8003450 <low_level_output+0x44>
 800344c:	f843 3c04 	str.w	r3, [r3, #-4]
 8003450:	6824      	ldr	r4, [r4, #0]
 8003452:	b904      	cbnz	r4, 8003456 <low_level_output+0x4a>
 8003454:	609c      	str	r4, [r3, #8]
 8003456:	3201      	adds	r2, #1
 8003458:	330c      	adds	r3, #12
 800345a:	e7e2      	b.n	8003422 <low_level_output+0x16>
 800345c:	f06f 000b 	mvn.w	r0, #11
 8003460:	e7eb      	b.n	800343a <low_level_output+0x2e>
 8003462:	bf00      	nop
 8003464:	20000870 	.word	0x20000870
 8003468:	200008a8 	.word	0x200008a8

0800346c <pbuf_free_custom>:
 800346c:	4601      	mov	r1, r0
 800346e:	4805      	ldr	r0, [pc, #20]	; (8003484 <pbuf_free_custom+0x18>)
 8003470:	b508      	push	{r3, lr}
 8003472:	f000 fe0b 	bl	800408c <memp_free_pool>
 8003476:	4b04      	ldr	r3, [pc, #16]	; (8003488 <pbuf_free_custom+0x1c>)
 8003478:	781a      	ldrb	r2, [r3, #0]
 800347a:	2a01      	cmp	r2, #1
 800347c:	bf04      	itt	eq
 800347e:	2200      	moveq	r2, #0
 8003480:	701a      	strbeq	r2, [r3, #0]
 8003482:	bd08      	pop	{r3, pc}
 8003484:	0800be40 	.word	0x0800be40
 8003488:	2000086c 	.word	0x2000086c

0800348c <ETH_PHY_IO_GetTick>:
 800348c:	f7fd bcf0 	b.w	8000e70 <HAL_GetTick>

08003490 <ETH_PHY_IO_Init>:
 8003490:	4802      	ldr	r0, [pc, #8]	; (800349c <ETH_PHY_IO_Init+0xc>)
 8003492:	b508      	push	{r3, lr}
 8003494:	f7fe fa18 	bl	80018c8 <HAL_ETH_SetMDIOClockRange>
 8003498:	2000      	movs	r0, #0
 800349a:	bd08      	pop	{r3, pc}
 800349c:	200008a8 	.word	0x200008a8

080034a0 <ETH_PHY_IO_ReadReg>:
 80034a0:	b508      	push	{r3, lr}
 80034a2:	4613      	mov	r3, r2
 80034a4:	460a      	mov	r2, r1
 80034a6:	4601      	mov	r1, r0
 80034a8:	4803      	ldr	r0, [pc, #12]	; (80034b8 <ETH_PHY_IO_ReadReg+0x18>)
 80034aa:	f7fe f951 	bl	8001750 <HAL_ETH_ReadPHYRegister>
 80034ae:	3800      	subs	r0, #0
 80034b0:	bf18      	it	ne
 80034b2:	2001      	movne	r0, #1
 80034b4:	4240      	negs	r0, r0
 80034b6:	bd08      	pop	{r3, pc}
 80034b8:	200008a8 	.word	0x200008a8

080034bc <ETH_PHY_IO_WriteReg>:
 80034bc:	b508      	push	{r3, lr}
 80034be:	4613      	mov	r3, r2
 80034c0:	460a      	mov	r2, r1
 80034c2:	4601      	mov	r1, r0
 80034c4:	4803      	ldr	r0, [pc, #12]	; (80034d4 <ETH_PHY_IO_WriteReg+0x18>)
 80034c6:	f7fe f96b 	bl	80017a0 <HAL_ETH_WritePHYRegister>
 80034ca:	3800      	subs	r0, #0
 80034cc:	bf18      	it	ne
 80034ce:	2001      	movne	r0, #1
 80034d0:	4240      	negs	r0, r0
 80034d2:	bd08      	pop	{r3, pc}
 80034d4:	200008a8 	.word	0x200008a8

080034d8 <ethernetif_input>:
 80034d8:	e92d 41f3 	stmdb	sp!, {r0, r1, r4, r5, r6, r7, r8, lr}
 80034dc:	4604      	mov	r4, r0
 80034de:	2600      	movs	r6, #0
 80034e0:	4f0c      	ldr	r7, [pc, #48]	; (8003514 <ethernetif_input+0x3c>)
 80034e2:	f8df 8034 	ldr.w	r8, [pc, #52]	; 8003518 <ethernetif_input+0x40>
 80034e6:	783b      	ldrb	r3, [r7, #0]
 80034e8:	9601      	str	r6, [sp, #4]
 80034ea:	b91b      	cbnz	r3, 80034f4 <ethernetif_input+0x1c>
 80034ec:	a901      	add	r1, sp, #4
 80034ee:	4640      	mov	r0, r8
 80034f0:	f7fe f8b2 	bl	8001658 <HAL_ETH_ReadData>
 80034f4:	9d01      	ldr	r5, [sp, #4]
 80034f6:	b14d      	cbz	r5, 800350c <ethernetif_input+0x34>
 80034f8:	6923      	ldr	r3, [r4, #16]
 80034fa:	4621      	mov	r1, r4
 80034fc:	4628      	mov	r0, r5
 80034fe:	4798      	blx	r3
 8003500:	2800      	cmp	r0, #0
 8003502:	d0f0      	beq.n	80034e6 <ethernetif_input+0xe>
 8003504:	4628      	mov	r0, r5
 8003506:	f001 f853 	bl	80045b0 <pbuf_free>
 800350a:	e7ec      	b.n	80034e6 <ethernetif_input+0xe>
 800350c:	b002      	add	sp, #8
 800350e:	e8bd 81f0 	ldmia.w	sp!, {r4, r5, r6, r7, r8, pc}
 8003512:	bf00      	nop
 8003514:	2000086c 	.word	0x2000086c
 8003518:	200008a8 	.word	0x200008a8

0800351c <sys_now>:
 800351c:	f7fd bca8 	b.w	8000e70 <HAL_GetTick>

08003520 <HAL_ETH_MspInit>:
 8003520:	b5f0      	push	{r4, r5, r6, r7, lr}
 8003522:	b08d      	sub	sp, #52	; 0x34
 8003524:	4604      	mov	r4, r0
 8003526:	2214      	movs	r2, #20
 8003528:	2100      	movs	r1, #0
 800352a:	a807      	add	r0, sp, #28
 800352c:	f006 fb31 	bl	8009b92 <memset>
 8003530:	6822      	ldr	r2, [r4, #0]
 8003532:	4b39      	ldr	r3, [pc, #228]	; (8003618 <HAL_ETH_MspInit+0xf8>)
 8003534:	429a      	cmp	r2, r3
 8003536:	d16d      	bne.n	8003614 <HAL_ETH_MspInit+0xf4>
 8003538:	f5a3 4390 	sub.w	r3, r3, #18432	; 0x4800
 800353c:	2602      	movs	r6, #2
 800353e:	2503      	movs	r5, #3
 8003540:	240b      	movs	r4, #11
 8003542:	6b1a      	ldr	r2, [r3, #48]	; 0x30
 8003544:	a907      	add	r1, sp, #28
 8003546:	4835      	ldr	r0, [pc, #212]	; (800361c <HAL_ETH_MspInit+0xfc>)
 8003548:	2700      	movs	r7, #0
 800354a:	f042 7200 	orr.w	r2, r2, #33554432	; 0x2000000
 800354e:	631a      	str	r2, [r3, #48]	; 0x30
 8003550:	6b1a      	ldr	r2, [r3, #48]	; 0x30
 8003552:	f002 7200 	and.w	r2, r2, #33554432	; 0x2000000
 8003556:	9200      	str	r2, [sp, #0]
 8003558:	9a00      	ldr	r2, [sp, #0]
 800355a:	6b1a      	ldr	r2, [r3, #48]	; 0x30
 800355c:	f042 6280 	orr.w	r2, r2, #67108864	; 0x4000000
 8003560:	631a      	str	r2, [r3, #48]	; 0x30
 8003562:	6b1a      	ldr	r2, [r3, #48]	; 0x30
 8003564:	f002 6280 	and.w	r2, r2, #67108864	; 0x4000000
 8003568:	9201      	str	r2, [sp, #4]
 800356a:	9a01      	ldr	r2, [sp, #4]
 800356c:	6b1a      	ldr	r2, [r3, #48]	; 0x30
 800356e:	f042 6200 	orr.w	r2, r2, #134217728	; 0x8000000
 8003572:	631a      	str	r2, [r3, #48]	; 0x30
 8003574:	6b1a      	ldr	r2, [r3, #48]	; 0x30
 8003576:	f002 6200 	and.w	r2, r2, #134217728	; 0x8000000
 800357a:	9202      	str	r2, [sp, #8]
 800357c:	9a02      	ldr	r2, [sp, #8]
 800357e:	6b1a      	ldr	r2, [r3, #48]	; 0x30
 8003580:	f042 0204 	orr.w	r2, r2, #4
 8003584:	631a      	str	r2, [r3, #48]	; 0x30
 8003586:	6b1a      	ldr	r2, [r3, #48]	; 0x30
 8003588:	f002 0204 	and.w	r2, r2, #4
 800358c:	9203      	str	r2, [sp, #12]
 800358e:	9a03      	ldr	r2, [sp, #12]
 8003590:	6b1a      	ldr	r2, [r3, #48]	; 0x30
 8003592:	f042 0201 	orr.w	r2, r2, #1
 8003596:	631a      	str	r2, [r3, #48]	; 0x30
 8003598:	6b1a      	ldr	r2, [r3, #48]	; 0x30
 800359a:	f002 0201 	and.w	r2, r2, #1
 800359e:	9204      	str	r2, [sp, #16]
 80035a0:	9a04      	ldr	r2, [sp, #16]
 80035a2:	6b1a      	ldr	r2, [r3, #48]	; 0x30
 80035a4:	f042 0202 	orr.w	r2, r2, #2
 80035a8:	631a      	str	r2, [r3, #48]	; 0x30
 80035aa:	6b1a      	ldr	r2, [r3, #48]	; 0x30
 80035ac:	f002 0202 	and.w	r2, r2, #2
 80035b0:	9205      	str	r2, [sp, #20]
 80035b2:	9a05      	ldr	r2, [sp, #20]
 80035b4:	6b1a      	ldr	r2, [r3, #48]	; 0x30
 80035b6:	f042 0240 	orr.w	r2, r2, #64	; 0x40
 80035ba:	631a      	str	r2, [r3, #48]	; 0x30
 80035bc:	6b1b      	ldr	r3, [r3, #48]	; 0x30
 80035be:	f003 0340 	and.w	r3, r3, #64	; 0x40
 80035c2:	9306      	str	r3, [sp, #24]
 80035c4:	9b06      	ldr	r3, [sp, #24]
 80035c6:	2332      	movs	r3, #50	; 0x32
 80035c8:	e9cd 540a 	strd	r5, r4, [sp, #40]	; 0x28
 80035cc:	e9cd 3607 	strd	r3, r6, [sp, #28]
 80035d0:	f7fe f9b4 	bl	800193c <HAL_GPIO_Init>
 80035d4:	2386      	movs	r3, #134	; 0x86
 80035d6:	a907      	add	r1, sp, #28
 80035d8:	4811      	ldr	r0, [pc, #68]	; (8003620 <HAL_ETH_MspInit+0x100>)
 80035da:	940b      	str	r4, [sp, #44]	; 0x2c
 80035dc:	e9cd 3607 	strd	r3, r6, [sp, #28]
 80035e0:	e9cd 7509 	strd	r7, r5, [sp, #36]	; 0x24
 80035e4:	f7fe f9aa 	bl	800193c <HAL_GPIO_Init>
 80035e8:	f44f 5300 	mov.w	r3, #8192	; 0x2000
 80035ec:	a907      	add	r1, sp, #28
 80035ee:	480d      	ldr	r0, [pc, #52]	; (8003624 <HAL_ETH_MspInit+0x104>)
 80035f0:	940b      	str	r4, [sp, #44]	; 0x2c
 80035f2:	e9cd 3607 	strd	r3, r6, [sp, #28]
 80035f6:	e9cd 7509 	strd	r7, r5, [sp, #36]	; 0x24
 80035fa:	f7fe f99f 	bl	800193c <HAL_GPIO_Init>
 80035fe:	f44f 5320 	mov.w	r3, #10240	; 0x2800
 8003602:	a907      	add	r1, sp, #28
 8003604:	4808      	ldr	r0, [pc, #32]	; (8003628 <HAL_ETH_MspInit+0x108>)
 8003606:	940b      	str	r4, [sp, #44]	; 0x2c
 8003608:	e9cd 3607 	strd	r3, r6, [sp, #28]
 800360c:	e9cd 7509 	strd	r7, r5, [sp, #36]	; 0x24
 8003610:	f7fe f994 	bl	800193c <HAL_GPIO_Init>
 8003614:	b00d      	add	sp, #52	; 0x34
 8003616:	bdf0      	pop	{r4, r5, r6, r7, pc}
 8003618:	40028000 	.word	0x40028000
 800361c:	40020800 	.word	0x40020800
 8003620:	40020000 	.word	0x40020000
 8003624:	40020400 	.word	0x40020400
 8003628:	40021800 	.word	0x40021800

0800362c <ethernet_link_check_state>:
 800362c:	b570      	push	{r4, r5, r6, lr}
 800362e:	b09a      	sub	sp, #104	; 0x68
 8003630:	2264      	movs	r2, #100	; 0x64
 8003632:	2100      	movs	r1, #0
 8003634:	4604      	mov	r4, r0
 8003636:	a801      	add	r0, sp, #4
 8003638:	f006 faab 	bl	8009b92 <memset>
 800363c:	481a      	ldr	r0, [pc, #104]	; (80036a8 <ethernet_link_check_state+0x7c>)
 800363e:	f7fd fb8b 	bl	8000d58 <LAN8742_GetLinkState>
 8003642:	f894 202d 	ldrb.w	r2, [r4, #45]	; 0x2d
 8003646:	4603      	mov	r3, r0
 8003648:	0751      	lsls	r1, r2, #29
 800364a:	d50e      	bpl.n	800366a <ethernet_link_check_state+0x3e>
 800364c:	2801      	cmp	r0, #1
 800364e:	dc0a      	bgt.n	8003666 <ethernet_link_check_state+0x3a>
 8003650:	4816      	ldr	r0, [pc, #88]	; (80036ac <ethernet_link_check_state+0x80>)
 8003652:	f7fd ff77 	bl	8001544 <HAL_ETH_Stop>
 8003656:	4620      	mov	r0, r4
 8003658:	f000 fe76 	bl	8004348 <netif_set_down>
 800365c:	4620      	mov	r0, r4
 800365e:	f000 feb3 	bl	80043c8 <netif_set_link_down>
 8003662:	b01a      	add	sp, #104	; 0x68
 8003664:	bd70      	pop	{r4, r5, r6, pc}
 8003666:	0752      	lsls	r2, r2, #29
 8003668:	d4fb      	bmi.n	8003662 <ethernet_link_check_state+0x36>
 800366a:	2b01      	cmp	r3, #1
 800366c:	ddf9      	ble.n	8003662 <ethernet_link_check_state+0x36>
 800366e:	3b02      	subs	r3, #2
 8003670:	2b03      	cmp	r3, #3
 8003672:	d8f6      	bhi.n	8003662 <ethernet_link_check_state+0x36>
 8003674:	4a0e      	ldr	r2, [pc, #56]	; (80036b0 <ethernet_link_check_state+0x84>)
 8003676:	a901      	add	r1, sp, #4
 8003678:	480c      	ldr	r0, [pc, #48]	; (80036ac <ethernet_link_check_state+0x80>)
 800367a:	f832 5013 	ldrh.w	r5, [r2, r3, lsl #1]
 800367e:	4a0d      	ldr	r2, [pc, #52]	; (80036b4 <ethernet_link_check_state+0x88>)
 8003680:	f832 6013 	ldrh.w	r6, [r2, r3, lsl #1]
 8003684:	f7fe f8b1 	bl	80017ea <HAL_ETH_GetMACConfig>
 8003688:	a901      	add	r1, sp, #4
 800368a:	4808      	ldr	r0, [pc, #32]	; (80036ac <ethernet_link_check_state+0x80>)
 800368c:	e9cd 5606 	strd	r5, r6, [sp, #24]
 8003690:	f7fe f90d 	bl	80018ae <HAL_ETH_SetMACConfig>
 8003694:	4805      	ldr	r0, [pc, #20]	; (80036ac <ethernet_link_check_state+0x80>)
 8003696:	f7fd ff1f 	bl	80014d8 <HAL_ETH_Start>
 800369a:	4620      	mov	r0, r4
 800369c:	f000 fe3a 	bl	8004314 <netif_set_up>
 80036a0:	4620      	mov	r0, r4
 80036a2:	f000 fe6d 	bl	8004380 <netif_set_link_up>
 80036a6:	e7dc      	b.n	8003662 <ethernet_link_check_state+0x36>
 80036a8:	2000084c 	.word	0x2000084c
 80036ac:	200008a8 	.word	0x200008a8
 80036b0:	0800be2e 	.word	0x0800be2e
 80036b4:	0800be36 	.word	0x0800be36

080036b8 <ethernetif_init>:
 80036b8:	e92d 41f3 	stmdb	sp!, {r0, r1, r4, r5, r6, r7, r8, lr}
 80036bc:	4604      	mov	r4, r0
 80036be:	b930      	cbnz	r0, 80036ce <ethernetif_init+0x16>
 80036c0:	4b32      	ldr	r3, [pc, #200]	; (800378c <ethernetif_init+0xd4>)
 80036c2:	f240 127b 	movw	r2, #379	; 0x17b
 80036c6:	4932      	ldr	r1, [pc, #200]	; (8003790 <ethernetif_init+0xd8>)
 80036c8:	4832      	ldr	r0, [pc, #200]	; (8003794 <ethernetif_init+0xdc>)
 80036ca:	f006 f9fb 	bl	8009ac4 <iprintf>
 80036ce:	f247 4373 	movw	r3, #29811	; 0x7473
 80036d2:	4d31      	ldr	r5, [pc, #196]	; (8003798 <ethernetif_init+0xe0>)
 80036d4:	4f31      	ldr	r7, [pc, #196]	; (800379c <ethernetif_init+0xe4>)
 80036d6:	f04f 0800 	mov.w	r8, #0
 80036da:	85e3      	strh	r3, [r4, #46]	; 0x2e
 80036dc:	4628      	mov	r0, r5
 80036de:	4b30      	ldr	r3, [pc, #192]	; (80037a0 <ethernetif_init+0xe8>)
 80036e0:	f8ad 8004 	strh.w	r8, [sp, #4]
 80036e4:	6163      	str	r3, [r4, #20]
 80036e6:	4b2f      	ldr	r3, [pc, #188]	; (80037a4 <ethernetif_init+0xec>)
 80036e8:	f8c5 d004 	str.w	sp, [r5, #4]
 80036ec:	61a3      	str	r3, [r4, #24]
 80036ee:	4b2e      	ldr	r3, [pc, #184]	; (80037a8 <ethernetif_init+0xf0>)
 80036f0:	602b      	str	r3, [r5, #0]
 80036f2:	4b2e      	ldr	r3, [pc, #184]	; (80037ac <ethernetif_init+0xf4>)
 80036f4:	9300      	str	r3, [sp, #0]
 80036f6:	f44f 0300 	mov.w	r3, #8388608	; 0x800000
 80036fa:	60ab      	str	r3, [r5, #8]
 80036fc:	4b2c      	ldr	r3, [pc, #176]	; (80037b0 <ethernetif_init+0xf8>)
 80036fe:	60eb      	str	r3, [r5, #12]
 8003700:	4b2c      	ldr	r3, [pc, #176]	; (80037b4 <ethernetif_init+0xfc>)
 8003702:	612b      	str	r3, [r5, #16]
 8003704:	f44f 63c0 	mov.w	r3, #1536	; 0x600
 8003708:	616b      	str	r3, [r5, #20]
 800370a:	f7fd fdfb 	bl	8001304 <HAL_ETH_Init>
 800370e:	2234      	movs	r2, #52	; 0x34
 8003710:	4641      	mov	r1, r8
 8003712:	4606      	mov	r6, r0
 8003714:	1d38      	adds	r0, r7, #4
 8003716:	f006 fa3c 	bl	8009b92 <memset>
 800371a:	2321      	movs	r3, #33	; 0x21
 800371c:	4826      	ldr	r0, [pc, #152]	; (80037b8 <ethernetif_init+0x100>)
 800371e:	603b      	str	r3, [r7, #0]
 8003720:	f44f 0340 	mov.w	r3, #12582912	; 0xc00000
 8003724:	617b      	str	r3, [r7, #20]
 8003726:	f000 fc5b 	bl	8003fe0 <memp_init_pool>
 800372a:	2306      	movs	r3, #6
 800372c:	4923      	ldr	r1, [pc, #140]	; (80037bc <ethernetif_init+0x104>)
 800372e:	4824      	ldr	r0, [pc, #144]	; (80037c0 <ethernetif_init+0x108>)
 8003730:	f884 302c 	strb.w	r3, [r4, #44]	; 0x2c
 8003734:	686b      	ldr	r3, [r5, #4]
 8003736:	781a      	ldrb	r2, [r3, #0]
 8003738:	f884 2026 	strb.w	r2, [r4, #38]	; 0x26
 800373c:	785a      	ldrb	r2, [r3, #1]
 800373e:	f884 2027 	strb.w	r2, [r4, #39]	; 0x27
 8003742:	789a      	ldrb	r2, [r3, #2]
 8003744:	f884 2028 	strb.w	r2, [r4, #40]	; 0x28
 8003748:	78da      	ldrb	r2, [r3, #3]
 800374a:	f884 2029 	strb.w	r2, [r4, #41]	; 0x29
 800374e:	791a      	ldrb	r2, [r3, #4]
 8003750:	f884 202a 	strb.w	r2, [r4, #42]	; 0x2a
 8003754:	795b      	ldrb	r3, [r3, #5]
 8003756:	f884 302b 	strb.w	r3, [r4, #43]	; 0x2b
 800375a:	f240 53dc 	movw	r3, #1500	; 0x5dc
 800375e:	84a3      	strh	r3, [r4, #36]	; 0x24
 8003760:	f894 302d 	ldrb.w	r3, [r4, #45]	; 0x2d
 8003764:	f043 030a 	orr.w	r3, r3, #10
 8003768:	f884 302d 	strb.w	r3, [r4, #45]	; 0x2d
 800376c:	f7fd fa7f 	bl	8000c6e <LAN8742_RegisterBusIO>
 8003770:	4813      	ldr	r0, [pc, #76]	; (80037c0 <ethernetif_init+0x108>)
 8003772:	f7fd fa90 	bl	8000c96 <LAN8742_Init>
 8003776:	b936      	cbnz	r6, 8003786 <ethernetif_init+0xce>
 8003778:	4620      	mov	r0, r4
 800377a:	f7ff ff57 	bl	800362c <ethernet_link_check_state>
 800377e:	2000      	movs	r0, #0
 8003780:	b002      	add	sp, #8
 8003782:	e8bd 81f0 	ldmia.w	sp!, {r4, r5, r6, r7, r8, pc}
 8003786:	f7fd f8fb 	bl	8000980 <Error_Handler>
 800378a:	e7f8      	b.n	800377e <ethernetif_init+0xc6>
 800378c:	0800bddc 	.word	0x0800bddc
 8003790:	0800bdf8 	.word	0x0800bdf8
 8003794:	0800be06 	.word	0x0800be06
 8003798:	200008a8 	.word	0x200008a8
 800379c:	20000870 	.word	0x20000870
 80037a0:	080088a5 	.word	0x080088a5
 80037a4:	0800340d 	.word	0x0800340d
 80037a8:	40028000 	.word	0x40028000
 80037ac:	00e18000 	.word	0x00e18000
 80037b0:	20000188 	.word	0x20000188
 80037b4:	200000e8 	.word	0x200000e8
 80037b8:	0800be40 	.word	0x0800be40
 80037bc:	20000010 	.word	0x20000010
 80037c0:	2000084c 	.word	0x2000084c

080037c4 <HAL_ETH_RxAllocateCallback>:
 80037c4:	b513      	push	{r0, r1, r4, lr}
 80037c6:	4604      	mov	r4, r0
 80037c8:	480c      	ldr	r0, [pc, #48]	; (80037fc <HAL_ETH_RxAllocateCallback+0x38>)
 80037ca:	f000 fc2b 	bl	8004024 <memp_malloc_pool>
 80037ce:	4603      	mov	r3, r0
 80037d0:	b178      	cbz	r0, 80037f2 <HAL_ETH_RxAllocateCallback+0x2e>
 80037d2:	f100 0220 	add.w	r2, r0, #32
 80037d6:	490a      	ldr	r1, [pc, #40]	; (8003800 <HAL_ETH_RxAllocateCallback+0x3c>)
 80037d8:	6022      	str	r2, [r4, #0]
 80037da:	6101      	str	r1, [r0, #16]
 80037dc:	f44f 61c0 	mov.w	r1, #1536	; 0x600
 80037e0:	e9cd 2100 	strd	r2, r1, [sp]
 80037e4:	2100      	movs	r1, #0
 80037e6:	2241      	movs	r2, #65	; 0x41
 80037e8:	4608      	mov	r0, r1
 80037ea:	f000 fe8f 	bl	800450c <pbuf_alloced_custom>
 80037ee:	b002      	add	sp, #8
 80037f0:	bd10      	pop	{r4, pc}
 80037f2:	4a04      	ldr	r2, [pc, #16]	; (8003804 <HAL_ETH_RxAllocateCallback+0x40>)
 80037f4:	2101      	movs	r1, #1
 80037f6:	6020      	str	r0, [r4, #0]
 80037f8:	7011      	strb	r1, [r2, #0]
 80037fa:	e7f8      	b.n	80037ee <HAL_ETH_RxAllocateCallback+0x2a>
 80037fc:	0800be40 	.word	0x0800be40
 8003800:	0800346d 	.word	0x0800346d
 8003804:	2000086c 	.word	0x2000086c

08003808 <HAL_ETH_RxLinkCallback>:
 8003808:	b530      	push	{r4, r5, lr}
 800380a:	2500      	movs	r5, #0
 800380c:	f1a2 0420 	sub.w	r4, r2, #32
 8003810:	f822 3c16 	strh.w	r3, [r2, #-22]
 8003814:	f842 5c20 	str.w	r5, [r2, #-32]
 8003818:	f822 5c18 	strh.w	r5, [r2, #-24]
 800381c:	6805      	ldr	r5, [r0, #0]
 800381e:	b96d      	cbnz	r5, 800383c <HAL_ETH_RxLinkCallback+0x34>
 8003820:	6004      	str	r4, [r0, #0]
 8003822:	600c      	str	r4, [r1, #0]
 8003824:	6801      	ldr	r1, [r0, #0]
 8003826:	b961      	cbnz	r1, 8003842 <HAL_ETH_RxLinkCallback+0x3a>
 8003828:	f3bf 8f4f 	dsb	sy
 800382c:	490a      	ldr	r1, [pc, #40]	; (8003858 <HAL_ETH_RxLinkCallback+0x50>)
 800382e:	2b00      	cmp	r3, #0
 8003830:	dc0c      	bgt.n	800384c <HAL_ETH_RxLinkCallback+0x44>
 8003832:	f3bf 8f4f 	dsb	sy
 8003836:	f3bf 8f6f 	isb	sy
 800383a:	bd30      	pop	{r4, r5, pc}
 800383c:	680d      	ldr	r5, [r1, #0]
 800383e:	602c      	str	r4, [r5, #0]
 8003840:	e7ef      	b.n	8003822 <HAL_ETH_RxLinkCallback+0x1a>
 8003842:	8908      	ldrh	r0, [r1, #8]
 8003844:	4418      	add	r0, r3
 8003846:	8108      	strh	r0, [r1, #8]
 8003848:	6809      	ldr	r1, [r1, #0]
 800384a:	e7ec      	b.n	8003826 <HAL_ETH_RxLinkCallback+0x1e>
 800384c:	f8c1 225c 	str.w	r2, [r1, #604]	; 0x25c
 8003850:	3b20      	subs	r3, #32
 8003852:	3220      	adds	r2, #32
 8003854:	e7eb      	b.n	800382e <HAL_ETH_RxLinkCallback+0x26>
 8003856:	bf00      	nop
 8003858:	e000ed00 	.word	0xe000ed00

0800385c <sntp_retry>:
 800385c:	b510      	push	{r4, lr}
 800385e:	4c08      	ldr	r4, [pc, #32]	; (8003880 <sntp_retry+0x24>)
 8003860:	2200      	movs	r2, #0
 8003862:	4908      	ldr	r1, [pc, #32]	; (8003884 <sntp_retry+0x28>)
 8003864:	6820      	ldr	r0, [r4, #0]
 8003866:	f004 f9dd 	bl	8007c24 <sys_timeout>
 800386a:	6823      	ldr	r3, [r4, #0]
 800386c:	4906      	ldr	r1, [pc, #24]	; (8003888 <sntp_retry+0x2c>)
 800386e:	005a      	lsls	r2, r3, #1
 8003870:	ebb1 0f43 	cmp.w	r1, r3, lsl #1
 8003874:	d302      	bcc.n	800387c <sntp_retry+0x20>
 8003876:	4293      	cmp	r3, r2
 8003878:	bf38      	it	cc
 800387a:	6022      	strcc	r2, [r4, #0]
 800387c:	bd10      	pop	{r4, pc}
 800387e:	bf00      	nop
 8003880:	200052e8 	.word	0x200052e8
 8003884:	08003985 	.word	0x08003985
 8003888:	000249f0 	.word	0x000249f0

0800388c <sntp_recv>:
 800388c:	8913      	ldrh	r3, [r2, #8]
 800388e:	2b30      	cmp	r3, #48	; 0x30
 8003890:	b530      	push	{r4, r5, lr}
 8003892:	4615      	mov	r5, r2
 8003894:	b087      	sub	sp, #28
 8003896:	d155      	bne.n	8003944 <sntp_recv+0xb8>
 8003898:	2100      	movs	r1, #0
 800389a:	4610      	mov	r0, r2
 800389c:	f001 f91b 	bl	8004ad6 <pbuf_get_at>
 80038a0:	4b31      	ldr	r3, [pc, #196]	; (8003968 <sntp_recv+0xdc>)
 80038a2:	f000 0007 	and.w	r0, r0, #7
 80038a6:	781b      	ldrb	r3, [r3, #0]
 80038a8:	2b00      	cmp	r3, #0
 80038aa:	d147      	bne.n	800393c <sntp_recv+0xb0>
 80038ac:	2804      	cmp	r0, #4
 80038ae:	d14c      	bne.n	800394a <sntp_recv+0xbe>
 80038b0:	2101      	movs	r1, #1
 80038b2:	4628      	mov	r0, r5
 80038b4:	f001 f90f 	bl	8004ad6 <pbuf_get_at>
 80038b8:	2800      	cmp	r0, #0
 80038ba:	d049      	beq.n	8003950 <sntp_recv+0xc4>
 80038bc:	2318      	movs	r3, #24
 80038be:	2400      	movs	r4, #0
 80038c0:	4669      	mov	r1, sp
 80038c2:	4628      	mov	r0, r5
 80038c4:	461a      	mov	r2, r3
 80038c6:	f001 f891 	bl	80049ec <pbuf_copy_partial>
 80038ca:	4628      	mov	r0, r5
 80038cc:	f000 fe70 	bl	80045b0 <pbuf_free>
 80038d0:	2c00      	cmp	r4, #0
 80038d2:	d13f      	bne.n	8003954 <sntp_recv+0xc8>
 80038d4:	9804      	ldr	r0, [sp, #16]
 80038d6:	f000 f924 	bl	8003b22 <lwip_htonl>
 80038da:	4604      	mov	r4, r0
 80038dc:	9805      	ldr	r0, [sp, #20]
 80038de:	f000 f920 	bl	8003b22 <lwip_htonl>
 80038e2:	4b22      	ldr	r3, [pc, #136]	; (800396c <sntp_recv+0xe0>)
 80038e4:	429c      	cmp	r4, r3
 80038e6:	db03      	blt.n	80038f0 <sntp_recv+0x64>
 80038e8:	4b21      	ldr	r3, [pc, #132]	; (8003970 <sntp_recv+0xe4>)
 80038ea:	4423      	add	r3, r4
 80038ec:	0f9b      	lsrs	r3, r3, #30
 80038ee:	d10b      	bne.n	8003908 <sntp_recv+0x7c>
 80038f0:	9800      	ldr	r0, [sp, #0]
 80038f2:	f000 f916 	bl	8003b22 <lwip_htonl>
 80038f6:	9801      	ldr	r0, [sp, #4]
 80038f8:	f000 f913 	bl	8003b22 <lwip_htonl>
 80038fc:	9802      	ldr	r0, [sp, #8]
 80038fe:	f000 f910 	bl	8003b22 <lwip_htonl>
 8003902:	9803      	ldr	r0, [sp, #12]
 8003904:	f000 f90d 	bl	8003b22 <lwip_htonl>
 8003908:	4a1a      	ldr	r2, [pc, #104]	; (8003974 <sntp_recv+0xe8>)
 800390a:	7913      	ldrb	r3, [r2, #4]
 800390c:	f043 0301 	orr.w	r3, r3, #1
 8003910:	7113      	strb	r3, [r2, #4]
 8003912:	4b15      	ldr	r3, [pc, #84]	; (8003968 <sntp_recv+0xdc>)
 8003914:	781c      	ldrb	r4, [r3, #0]
 8003916:	b97c      	cbnz	r4, 8003938 <sntp_recv+0xac>
 8003918:	4621      	mov	r1, r4
 800391a:	4817      	ldr	r0, [pc, #92]	; (8003978 <sntp_recv+0xec>)
 800391c:	f004 f9ec 	bl	8007cf8 <sys_untimeout>
 8003920:	4621      	mov	r1, r4
 8003922:	4816      	ldr	r0, [pc, #88]	; (800397c <sntp_recv+0xf0>)
 8003924:	f004 f9e8 	bl	8007cf8 <sys_untimeout>
 8003928:	f643 2098 	movw	r0, #15000	; 0x3a98
 800392c:	4b14      	ldr	r3, [pc, #80]	; (8003980 <sntp_recv+0xf4>)
 800392e:	4622      	mov	r2, r4
 8003930:	4912      	ldr	r1, [pc, #72]	; (800397c <sntp_recv+0xf0>)
 8003932:	6018      	str	r0, [r3, #0]
 8003934:	f004 f976 	bl	8007c24 <sys_timeout>
 8003938:	b007      	add	sp, #28
 800393a:	bd30      	pop	{r4, r5, pc}
 800393c:	2b01      	cmp	r3, #1
 800393e:	d104      	bne.n	800394a <sntp_recv+0xbe>
 8003940:	2805      	cmp	r0, #5
 8003942:	e7b4      	b.n	80038ae <sntp_recv+0x22>
 8003944:	f06f 040f 	mvn.w	r4, #15
 8003948:	e7bf      	b.n	80038ca <sntp_recv+0x3e>
 800394a:	f06f 0402 	mvn.w	r4, #2
 800394e:	e7bc      	b.n	80038ca <sntp_recv+0x3e>
 8003950:	2401      	movs	r4, #1
 8003952:	e7ba      	b.n	80038ca <sntp_recv+0x3e>
 8003954:	2c01      	cmp	r4, #1
 8003956:	d1ef      	bne.n	8003938 <sntp_recv+0xac>
 8003958:	4b03      	ldr	r3, [pc, #12]	; (8003968 <sntp_recv+0xdc>)
 800395a:	7818      	ldrb	r0, [r3, #0]
 800395c:	2800      	cmp	r0, #0
 800395e:	d1eb      	bne.n	8003938 <sntp_recv+0xac>
 8003960:	f7ff ff7c 	bl	800385c <sntp_retry>
 8003964:	e7e8      	b.n	8003938 <sntp_recv+0xac>
 8003966:	bf00      	nop
 8003968:	200052e0 	.word	0x200052e0
 800396c:	83aa7e81 	.word	0x83aa7e81
 8003970:	7c558180 	.word	0x7c558180
 8003974:	200052ec 	.word	0x200052ec
 8003978:	0800385d 	.word	0x0800385d
 800397c:	08003985 	.word	0x08003985
 8003980:	200052e8 	.word	0x200052e8

08003984 <sntp_request>:
 8003984:	b5f7      	push	{r0, r1, r2, r4, r5, r6, r7, lr}
 8003986:	4e1b      	ldr	r6, [pc, #108]	; (80039f4 <sntp_request+0x70>)
 8003988:	6832      	ldr	r2, [r6, #0]
 800398a:	9201      	str	r2, [sp, #4]
 800398c:	b932      	cbnz	r2, 800399c <sntp_request+0x18>
 800398e:	491a      	ldr	r1, [pc, #104]	; (80039f8 <sntp_request+0x74>)
 8003990:	f643 2098 	movw	r0, #15000	; 0x3a98
 8003994:	f004 f946 	bl	8007c24 <sys_timeout>
 8003998:	b003      	add	sp, #12
 800399a:	bdf0      	pop	{r4, r5, r6, r7, pc}
 800399c:	f44f 7220 	mov.w	r2, #640	; 0x280
 80039a0:	2130      	movs	r1, #48	; 0x30
 80039a2:	2036      	movs	r0, #54	; 0x36
 80039a4:	f000 fe68 	bl	8004678 <pbuf_alloc>
 80039a8:	4604      	mov	r4, r0
 80039aa:	b300      	cbz	r0, 80039ee <sntp_request+0x6a>
 80039ac:	6845      	ldr	r5, [r0, #4]
 80039ae:	2230      	movs	r2, #48	; 0x30
 80039b0:	2100      	movs	r1, #0
 80039b2:	4628      	mov	r0, r5
 80039b4:	f006 f8ed 	bl	8009b92 <memset>
 80039b8:	2323      	movs	r3, #35	; 0x23
 80039ba:	4810      	ldr	r0, [pc, #64]	; (80039fc <sntp_request+0x78>)
 80039bc:	702b      	strb	r3, [r5, #0]
 80039be:	f000 f8b0 	bl	8003b22 <lwip_htonl>
 80039c2:	4607      	mov	r7, r0
 80039c4:	f640 0063 	movw	r0, #2147	; 0x863
 80039c8:	f000 f8ab 	bl	8003b22 <lwip_htonl>
 80039cc:	62e8      	str	r0, [r5, #44]	; 0x2c
 80039ce:	480c      	ldr	r0, [pc, #48]	; (8003a00 <sntp_request+0x7c>)
 80039d0:	237b      	movs	r3, #123	; 0x7b
 80039d2:	aa01      	add	r2, sp, #4
 80039d4:	4621      	mov	r1, r4
 80039d6:	6800      	ldr	r0, [r0, #0]
 80039d8:	62af      	str	r7, [r5, #40]	; 0x28
 80039da:	f004 fbf3 	bl	80081c4 <udp_sendto>
 80039de:	4620      	mov	r0, r4
 80039e0:	f000 fde6 	bl	80045b0 <pbuf_free>
 80039e4:	7933      	ldrb	r3, [r6, #4]
 80039e6:	2200      	movs	r2, #0
 80039e8:	005b      	lsls	r3, r3, #1
 80039ea:	7133      	strb	r3, [r6, #4]
 80039ec:	e7cf      	b.n	800398e <sntp_request+0xa>
 80039ee:	4602      	mov	r2, r0
 80039f0:	4904      	ldr	r1, [pc, #16]	; (8003a04 <sntp_request+0x80>)
 80039f2:	e7cd      	b.n	8003990 <sntp_request+0xc>
 80039f4:	200052ec 	.word	0x200052ec
 80039f8:	0800385d 	.word	0x0800385d
 80039fc:	83aa7e80 	.word	0x83aa7e80
 8003a00:	200052e4 	.word	0x200052e4
 8003a04:	08003985 	.word	0x08003985

08003a08 <sntp_init>:
 8003a08:	b538      	push	{r3, r4, r5, lr}
 8003a0a:	4c1c      	ldr	r4, [pc, #112]	; (8003a7c <sntp_init+0x74>)
 8003a0c:	6823      	ldr	r3, [r4, #0]
 8003a0e:	2b00      	cmp	r3, #0
 8003a10:	d133      	bne.n	8003a7a <sntp_init+0x72>
 8003a12:	202e      	movs	r0, #46	; 0x2e
 8003a14:	f004 fc32 	bl	800827c <udp_new_ip_type>
 8003a18:	6020      	str	r0, [r4, #0]
 8003a1a:	b930      	cbnz	r0, 8003a2a <sntp_init+0x22>
 8003a1c:	4b18      	ldr	r3, [pc, #96]	; (8003a80 <sntp_init+0x78>)
 8003a1e:	f240 2296 	movw	r2, #662	; 0x296
 8003a22:	4918      	ldr	r1, [pc, #96]	; (8003a84 <sntp_init+0x7c>)
 8003a24:	4818      	ldr	r0, [pc, #96]	; (8003a88 <sntp_init+0x80>)
 8003a26:	f006 f84d 	bl	8009ac4 <iprintf>
 8003a2a:	6820      	ldr	r0, [r4, #0]
 8003a2c:	b328      	cbz	r0, 8003a7a <sntp_init+0x72>
 8003a2e:	2200      	movs	r2, #0
 8003a30:	4916      	ldr	r1, [pc, #88]	; (8003a8c <sntp_init+0x84>)
 8003a32:	f004 fc03 	bl	800823c <udp_recv>
 8003a36:	4b16      	ldr	r3, [pc, #88]	; (8003a90 <sntp_init+0x88>)
 8003a38:	781d      	ldrb	r5, [r3, #0]
 8003a3a:	b98d      	cbnz	r5, 8003a60 <sntp_init+0x58>
 8003a3c:	4b15      	ldr	r3, [pc, #84]	; (8003a94 <sntp_init+0x8c>)
 8003a3e:	f643 2298 	movw	r2, #15000	; 0x3a98
 8003a42:	601a      	str	r2, [r3, #0]
 8003a44:	f005 feba 	bl	80097bc <rand>
 8003a48:	f241 3388 	movw	r3, #5000	; 0x1388
 8003a4c:	462a      	mov	r2, r5
 8003a4e:	4912      	ldr	r1, [pc, #72]	; (8003a98 <sntp_init+0x90>)
 8003a50:	fbb0 f4f3 	udiv	r4, r0, r3
 8003a54:	fb04 0013 	mls	r0, r4, r3, r0
 8003a58:	e8bd 4038 	ldmia.w	sp!, {r3, r4, r5, lr}
 8003a5c:	f004 b8e2 	b.w	8007c24 <sys_timeout>
 8003a60:	2d01      	cmp	r5, #1
 8003a62:	d10a      	bne.n	8003a7a <sntp_init+0x72>
 8003a64:	6820      	ldr	r0, [r4, #0]
 8003a66:	227b      	movs	r2, #123	; 0x7b
 8003a68:	490c      	ldr	r1, [pc, #48]	; (8003a9c <sntp_init+0x94>)
 8003a6a:	7a43      	ldrb	r3, [r0, #9]
 8003a6c:	f043 0320 	orr.w	r3, r3, #32
 8003a70:	7243      	strb	r3, [r0, #9]
 8003a72:	e8bd 4038 	ldmia.w	sp!, {r3, r4, r5, lr}
 8003a76:	f004 ba6d 	b.w	8007f54 <udp_bind>
 8003a7a:	bd38      	pop	{r3, r4, r5, pc}
 8003a7c:	200052e4 	.word	0x200052e4
 8003a80:	0800be4c 	.word	0x0800be4c
 8003a84:	0800be81 	.word	0x0800be81
 8003a88:	0800be06 	.word	0x0800be06
 8003a8c:	0800388d 	.word	0x0800388d
 8003a90:	200052e0 	.word	0x200052e0
 8003a94:	200052e8 	.word	0x200052e8
 8003a98:	08003985 	.word	0x08003985
 8003a9c:	0800d904 	.word	0x0800d904

08003aa0 <sntp_enabled>:
 8003aa0:	4b02      	ldr	r3, [pc, #8]	; (8003aac <sntp_enabled+0xc>)
 8003aa2:	6818      	ldr	r0, [r3, #0]
 8003aa4:	3800      	subs	r0, #0
 8003aa6:	bf18      	it	ne
 8003aa8:	2001      	movne	r0, #1
 8003aaa:	4770      	bx	lr
 8003aac:	200052e4 	.word	0x200052e4

08003ab0 <sntp_setoperatingmode>:
 8003ab0:	2801      	cmp	r0, #1
 8003ab2:	b510      	push	{r4, lr}
 8003ab4:	4604      	mov	r4, r0
 8003ab6:	d906      	bls.n	8003ac6 <sntp_setoperatingmode+0x16>
 8003ab8:	4b09      	ldr	r3, [pc, #36]	; (8003ae0 <sntp_setoperatingmode+0x30>)
 8003aba:	f240 22d1 	movw	r2, #721	; 0x2d1
 8003abe:	4909      	ldr	r1, [pc, #36]	; (8003ae4 <sntp_setoperatingmode+0x34>)
 8003ac0:	4809      	ldr	r0, [pc, #36]	; (8003ae8 <sntp_setoperatingmode+0x38>)
 8003ac2:	f005 ffff 	bl	8009ac4 <iprintf>
 8003ac6:	4b09      	ldr	r3, [pc, #36]	; (8003aec <sntp_setoperatingmode+0x3c>)
 8003ac8:	681b      	ldr	r3, [r3, #0]
 8003aca:	b133      	cbz	r3, 8003ada <sntp_setoperatingmode+0x2a>
 8003acc:	4b04      	ldr	r3, [pc, #16]	; (8003ae0 <sntp_setoperatingmode+0x30>)
 8003ace:	f240 22d2 	movw	r2, #722	; 0x2d2
 8003ad2:	4907      	ldr	r1, [pc, #28]	; (8003af0 <sntp_setoperatingmode+0x40>)
 8003ad4:	4804      	ldr	r0, [pc, #16]	; (8003ae8 <sntp_setoperatingmode+0x38>)
 8003ad6:	f005 fff5 	bl	8009ac4 <iprintf>
 8003ada:	4b06      	ldr	r3, [pc, #24]	; (8003af4 <sntp_setoperatingmode+0x44>)
 8003adc:	701c      	strb	r4, [r3, #0]
 8003ade:	bd10      	pop	{r4, pc}
 8003ae0:	0800be4c 	.word	0x0800be4c
 8003ae4:	0800beac 	.word	0x0800beac
 8003ae8:	0800be06 	.word	0x0800be06
 8003aec:	200052e4 	.word	0x200052e4
 8003af0:	0800bec3 	.word	0x0800bec3
 8003af4:	200052e0 	.word	0x200052e0

08003af8 <sntp_getreachability>:
 8003af8:	b910      	cbnz	r0, 8003b00 <sntp_getreachability+0x8>
 8003afa:	4b02      	ldr	r3, [pc, #8]	; (8003b04 <sntp_getreachability+0xc>)
 8003afc:	7918      	ldrb	r0, [r3, #4]
 8003afe:	4770      	bx	lr
 8003b00:	2000      	movs	r0, #0
 8003b02:	4770      	bx	lr
 8003b04:	200052ec 	.word	0x200052ec

08003b08 <sntp_setserver>:
 8003b08:	b928      	cbnz	r0, 8003b16 <sntp_setserver+0xe>
 8003b0a:	4b03      	ldr	r3, [pc, #12]	; (8003b18 <sntp_setserver+0x10>)
 8003b0c:	b111      	cbz	r1, 8003b14 <sntp_setserver+0xc>
 8003b0e:	680a      	ldr	r2, [r1, #0]
 8003b10:	601a      	str	r2, [r3, #0]
 8003b12:	4770      	bx	lr
 8003b14:	6019      	str	r1, [r3, #0]
 8003b16:	4770      	bx	lr
 8003b18:	200052ec 	.word	0x200052ec

08003b1c <lwip_htons>:
 8003b1c:	ba40      	rev16	r0, r0
 8003b1e:	b280      	uxth	r0, r0
 8003b20:	4770      	bx	lr

08003b22 <lwip_htonl>:
 8003b22:	ba00      	rev	r0, r0
 8003b24:	4770      	bx	lr

08003b26 <lwip_init>:
 8003b26:	b508      	push	{r3, lr}
 8003b28:	f000 f80c 	bl	8003b44 <mem_init>
 8003b2c:	f000 fa6c 	bl	8004008 <memp_init>
 8003b30:	f000 fb26 	bl	8004180 <netif_init>
 8003b34:	f004 f92a 	bl	8007d8c <udp_init>
 8003b38:	f001 f804 	bl	8004b44 <tcp_init>
 8003b3c:	e8bd 4008 	ldmia.w	sp!, {r3, lr}
 8003b40:	f004 b8c4 	b.w	8007ccc <sys_timeouts_init>

08003b44 <mem_init>:
 8003b44:	4b0c      	ldr	r3, [pc, #48]	; (8003b78 <mem_init+0x34>)
 8003b46:	4a0d      	ldr	r2, [pc, #52]	; (8003b7c <mem_init+0x38>)
 8003b48:	f023 0303 	bic.w	r3, r3, #3
 8003b4c:	6013      	str	r3, [r2, #0]
 8003b4e:	f44f 5220 	mov.w	r2, #10240	; 0x2800
 8003b52:	f503 5120 	add.w	r1, r3, #10240	; 0x2800
 8003b56:	601a      	str	r2, [r3, #0]
 8003b58:	2200      	movs	r2, #0
 8003b5a:	711a      	strb	r2, [r3, #4]
 8003b5c:	4a08      	ldr	r2, [pc, #32]	; (8003b80 <mem_init+0x3c>)
 8003b5e:	6011      	str	r1, [r2, #0]
 8003b60:	f503 5200 	add.w	r2, r3, #8192	; 0x2000
 8003b64:	f04f 2128 	mov.w	r1, #671098880	; 0x28002800
 8003b68:	f8c2 1800 	str.w	r1, [r2, #2048]	; 0x800
 8003b6c:	2101      	movs	r1, #1
 8003b6e:	f882 1804 	strb.w	r1, [r2, #2052]	; 0x804
 8003b72:	4a04      	ldr	r2, [pc, #16]	; (8003b84 <mem_init+0x40>)
 8003b74:	6013      	str	r3, [r2, #0]
 8003b76:	4770      	bx	lr
 8003b78:	2000531b 	.word	0x2000531b
 8003b7c:	20005310 	.word	0x20005310
 8003b80:	20005314 	.word	0x20005314
 8003b84:	2000530c 	.word	0x2000530c

08003b88 <mem_free>:
 8003b88:	e92d 41f0 	stmdb	sp!, {r4, r5, r6, r7, r8, lr}
 8003b8c:	4604      	mov	r4, r0
 8003b8e:	2800      	cmp	r0, #0
 8003b90:	f000 8098 	beq.w	8003cc4 <mem_free+0x13c>
 8003b94:	0783      	lsls	r3, r0, #30
 8003b96:	d008      	beq.n	8003baa <mem_free+0x22>
 8003b98:	4b4b      	ldr	r3, [pc, #300]	; (8003cc8 <mem_free+0x140>)
 8003b9a:	f240 2273 	movw	r2, #627	; 0x273
 8003b9e:	494b      	ldr	r1, [pc, #300]	; (8003ccc <mem_free+0x144>)
 8003ba0:	484b      	ldr	r0, [pc, #300]	; (8003cd0 <mem_free+0x148>)
 8003ba2:	e8bd 41f0 	ldmia.w	sp!, {r4, r5, r6, r7, r8, lr}
 8003ba6:	f005 bf8d 	b.w	8009ac4 <iprintf>
 8003baa:	f8df 8148 	ldr.w	r8, [pc, #328]	; 8003cf4 <mem_free+0x16c>
 8003bae:	f1a0 0508 	sub.w	r5, r0, #8
 8003bb2:	f8d8 3000 	ldr.w	r3, [r8]
 8003bb6:	42ab      	cmp	r3, r5
 8003bb8:	d805      	bhi.n	8003bc6 <mem_free+0x3e>
 8003bba:	4f46      	ldr	r7, [pc, #280]	; (8003cd4 <mem_free+0x14c>)
 8003bbc:	f100 020c 	add.w	r2, r0, #12
 8003bc0:	6839      	ldr	r1, [r7, #0]
 8003bc2:	4291      	cmp	r1, r2
 8003bc4:	d204      	bcs.n	8003bd0 <mem_free+0x48>
 8003bc6:	4b40      	ldr	r3, [pc, #256]	; (8003cc8 <mem_free+0x140>)
 8003bc8:	f240 227f 	movw	r2, #639	; 0x27f
 8003bcc:	4942      	ldr	r1, [pc, #264]	; (8003cd8 <mem_free+0x150>)
 8003bce:	e7e7      	b.n	8003ba0 <mem_free+0x18>
 8003bd0:	f810 2c04 	ldrb.w	r2, [r0, #-4]
 8003bd4:	b922      	cbnz	r2, 8003be0 <mem_free+0x58>
 8003bd6:	4b3c      	ldr	r3, [pc, #240]	; (8003cc8 <mem_free+0x140>)
 8003bd8:	f44f 7223 	mov.w	r2, #652	; 0x28c
 8003bdc:	493f      	ldr	r1, [pc, #252]	; (8003cdc <mem_free+0x154>)
 8003bde:	e7df      	b.n	8003ba0 <mem_free+0x18>
 8003be0:	f830 6c08 	ldrh.w	r6, [r0, #-8]
 8003be4:	f830 0c06 	ldrh.w	r0, [r0, #-6]
 8003be8:	f5b6 5f20 	cmp.w	r6, #10240	; 0x2800
 8003bec:	d80f      	bhi.n	8003c0e <mem_free+0x86>
 8003bee:	f5b0 5f20 	cmp.w	r0, #10240	; 0x2800
 8003bf2:	d80c      	bhi.n	8003c0e <mem_free+0x86>
 8003bf4:	1aea      	subs	r2, r5, r3
 8003bf6:	b292      	uxth	r2, r2
 8003bf8:	4282      	cmp	r2, r0
 8003bfa:	d002      	beq.n	8003c02 <mem_free+0x7a>
 8003bfc:	5a18      	ldrh	r0, [r3, r0]
 8003bfe:	4290      	cmp	r0, r2
 8003c00:	d105      	bne.n	8003c0e <mem_free+0x86>
 8003c02:	4433      	add	r3, r6
 8003c04:	4299      	cmp	r1, r3
 8003c06:	d007      	beq.n	8003c18 <mem_free+0x90>
 8003c08:	885b      	ldrh	r3, [r3, #2]
 8003c0a:	4293      	cmp	r3, r2
 8003c0c:	d004      	beq.n	8003c18 <mem_free+0x90>
 8003c0e:	4b2e      	ldr	r3, [pc, #184]	; (8003cc8 <mem_free+0x140>)
 8003c10:	f240 2295 	movw	r2, #661	; 0x295
 8003c14:	4932      	ldr	r1, [pc, #200]	; (8003ce0 <mem_free+0x158>)
 8003c16:	e7c3      	b.n	8003ba0 <mem_free+0x18>
 8003c18:	2300      	movs	r3, #0
 8003c1a:	4e32      	ldr	r6, [pc, #200]	; (8003ce4 <mem_free+0x15c>)
 8003c1c:	f804 3c04 	strb.w	r3, [r4, #-4]
 8003c20:	6833      	ldr	r3, [r6, #0]
 8003c22:	42ab      	cmp	r3, r5
 8003c24:	bf88      	it	hi
 8003c26:	6035      	strhi	r5, [r6, #0]
 8003c28:	42a9      	cmp	r1, r5
 8003c2a:	d81c      	bhi.n	8003c66 <mem_free+0xde>
 8003c2c:	4b26      	ldr	r3, [pc, #152]	; (8003cc8 <mem_free+0x140>)
 8003c2e:	f44f 72f0 	mov.w	r2, #480	; 0x1e0
 8003c32:	492d      	ldr	r1, [pc, #180]	; (8003ce8 <mem_free+0x160>)
 8003c34:	4826      	ldr	r0, [pc, #152]	; (8003cd0 <mem_free+0x148>)
 8003c36:	f005 ff45 	bl	8009ac4 <iprintf>
 8003c3a:	f814 3c04 	ldrb.w	r3, [r4, #-4]
 8003c3e:	b133      	cbz	r3, 8003c4e <mem_free+0xc6>
 8003c40:	4b21      	ldr	r3, [pc, #132]	; (8003cc8 <mem_free+0x140>)
 8003c42:	f240 12e1 	movw	r2, #481	; 0x1e1
 8003c46:	4929      	ldr	r1, [pc, #164]	; (8003cec <mem_free+0x164>)
 8003c48:	4821      	ldr	r0, [pc, #132]	; (8003cd0 <mem_free+0x148>)
 8003c4a:	f005 ff3b 	bl	8009ac4 <iprintf>
 8003c4e:	f834 3c08 	ldrh.w	r3, [r4, #-8]
 8003c52:	f5b3 5f20 	cmp.w	r3, #10240	; 0x2800
 8003c56:	d906      	bls.n	8003c66 <mem_free+0xde>
 8003c58:	4b1b      	ldr	r3, [pc, #108]	; (8003cc8 <mem_free+0x140>)
 8003c5a:	f44f 72f2 	mov.w	r2, #484	; 0x1e4
 8003c5e:	4924      	ldr	r1, [pc, #144]	; (8003cf0 <mem_free+0x168>)
 8003c60:	481b      	ldr	r0, [pc, #108]	; (8003cd0 <mem_free+0x148>)
 8003c62:	f005 ff2f 	bl	8009ac4 <iprintf>
 8003c66:	f8d8 3000 	ldr.w	r3, [r8]
 8003c6a:	f834 1c08 	ldrh.w	r1, [r4, #-8]
 8003c6e:	185a      	adds	r2, r3, r1
 8003c70:	4295      	cmp	r5, r2
 8003c72:	d012      	beq.n	8003c9a <mem_free+0x112>
 8003c74:	7910      	ldrb	r0, [r2, #4]
 8003c76:	b980      	cbnz	r0, 8003c9a <mem_free+0x112>
 8003c78:	6838      	ldr	r0, [r7, #0]
 8003c7a:	4282      	cmp	r2, r0
 8003c7c:	d00d      	beq.n	8003c9a <mem_free+0x112>
 8003c7e:	6830      	ldr	r0, [r6, #0]
 8003c80:	4282      	cmp	r2, r0
 8003c82:	5a5a      	ldrh	r2, [r3, r1]
 8003c84:	f824 2c08 	strh.w	r2, [r4, #-8]
 8003c88:	5a5a      	ldrh	r2, [r3, r1]
 8003c8a:	bf08      	it	eq
 8003c8c:	6035      	streq	r5, [r6, #0]
 8003c8e:	f5b2 5f20 	cmp.w	r2, #10240	; 0x2800
 8003c92:	bf1e      	ittt	ne
 8003c94:	18d2      	addne	r2, r2, r3
 8003c96:	1ae9      	subne	r1, r5, r3
 8003c98:	8051      	strhne	r1, [r2, #2]
 8003c9a:	f834 2c06 	ldrh.w	r2, [r4, #-6]
 8003c9e:	1899      	adds	r1, r3, r2
 8003ca0:	428d      	cmp	r5, r1
 8003ca2:	d00f      	beq.n	8003cc4 <mem_free+0x13c>
 8003ca4:	7908      	ldrb	r0, [r1, #4]
 8003ca6:	b968      	cbnz	r0, 8003cc4 <mem_free+0x13c>
 8003ca8:	6830      	ldr	r0, [r6, #0]
 8003caa:	4285      	cmp	r5, r0
 8003cac:	bf08      	it	eq
 8003cae:	6031      	streq	r1, [r6, #0]
 8003cb0:	f834 1c08 	ldrh.w	r1, [r4, #-8]
 8003cb4:	5299      	strh	r1, [r3, r2]
 8003cb6:	f834 1c08 	ldrh.w	r1, [r4, #-8]
 8003cba:	f5b1 5f20 	cmp.w	r1, #10240	; 0x2800
 8003cbe:	bf1c      	itt	ne
 8003cc0:	185b      	addne	r3, r3, r1
 8003cc2:	805a      	strhne	r2, [r3, #2]
 8003cc4:	e8bd 81f0 	ldmia.w	sp!, {r4, r5, r6, r7, r8, pc}
 8003cc8:	0800beff 	.word	0x0800beff
 8003ccc:	0800bf2e 	.word	0x0800bf2e
 8003cd0:	0800be06 	.word	0x0800be06
 8003cd4:	20005314 	.word	0x20005314
 8003cd8:	0800bf4f 	.word	0x0800bf4f
 8003cdc:	0800bf68 	.word	0x0800bf68
 8003ce0:	0800bf8e 	.word	0x0800bf8e
 8003ce4:	2000530c 	.word	0x2000530c
 8003ce8:	0800bfc0 	.word	0x0800bfc0
 8003cec:	0800bfda 	.word	0x0800bfda
 8003cf0:	0800bff5 	.word	0x0800bff5
 8003cf4:	20005310 	.word	0x20005310

08003cf8 <mem_trim>:
 8003cf8:	e92d 47f0 	stmdb	sp!, {r4, r5, r6, r7, r8, r9, sl, lr}
 8003cfc:	1ccc      	adds	r4, r1, #3
 8003cfe:	4605      	mov	r5, r0
 8003d00:	f024 0403 	bic.w	r4, r4, #3
 8003d04:	b2a4      	uxth	r4, r4
 8003d06:	2c0b      	cmp	r4, #11
 8003d08:	d904      	bls.n	8003d14 <mem_trim+0x1c>
 8003d0a:	f5b4 5f20 	cmp.w	r4, #10240	; 0x2800
 8003d0e:	d902      	bls.n	8003d16 <mem_trim+0x1e>
 8003d10:	2500      	movs	r5, #0
 8003d12:	e059      	b.n	8003dc8 <mem_trim+0xd0>
 8003d14:	240c      	movs	r4, #12
 8003d16:	42a1      	cmp	r1, r4
 8003d18:	d8fa      	bhi.n	8003d10 <mem_trim+0x18>
 8003d1a:	4f41      	ldr	r7, [pc, #260]	; (8003e20 <mem_trim+0x128>)
 8003d1c:	683b      	ldr	r3, [r7, #0]
 8003d1e:	42ab      	cmp	r3, r5
 8003d20:	d803      	bhi.n	8003d2a <mem_trim+0x32>
 8003d22:	4b40      	ldr	r3, [pc, #256]	; (8003e24 <mem_trim+0x12c>)
 8003d24:	681b      	ldr	r3, [r3, #0]
 8003d26:	42ab      	cmp	r3, r5
 8003d28:	d806      	bhi.n	8003d38 <mem_trim+0x40>
 8003d2a:	4b3f      	ldr	r3, [pc, #252]	; (8003e28 <mem_trim+0x130>)
 8003d2c:	f240 22d1 	movw	r2, #721	; 0x2d1
 8003d30:	493e      	ldr	r1, [pc, #248]	; (8003e2c <mem_trim+0x134>)
 8003d32:	483f      	ldr	r0, [pc, #252]	; (8003e30 <mem_trim+0x138>)
 8003d34:	f005 fec6 	bl	8009ac4 <iprintf>
 8003d38:	f8d7 a000 	ldr.w	sl, [r7]
 8003d3c:	45aa      	cmp	sl, r5
 8003d3e:	d843      	bhi.n	8003dc8 <mem_trim+0xd0>
 8003d40:	4b38      	ldr	r3, [pc, #224]	; (8003e24 <mem_trim+0x12c>)
 8003d42:	681b      	ldr	r3, [r3, #0]
 8003d44:	42ab      	cmp	r3, r5
 8003d46:	d93f      	bls.n	8003dc8 <mem_trim+0xd0>
 8003d48:	f1a5 0608 	sub.w	r6, r5, #8
 8003d4c:	f835 9c08 	ldrh.w	r9, [r5, #-8]
 8003d50:	eba6 060a 	sub.w	r6, r6, sl
 8003d54:	f1a9 0308 	sub.w	r3, r9, #8
 8003d58:	b2b6      	uxth	r6, r6
 8003d5a:	1b9b      	subs	r3, r3, r6
 8003d5c:	b29b      	uxth	r3, r3
 8003d5e:	42a3      	cmp	r3, r4
 8003d60:	d207      	bcs.n	8003d72 <mem_trim+0x7a>
 8003d62:	4b31      	ldr	r3, [pc, #196]	; (8003e28 <mem_trim+0x130>)
 8003d64:	f44f 7239 	mov.w	r2, #740	; 0x2e4
 8003d68:	4932      	ldr	r1, [pc, #200]	; (8003e34 <mem_trim+0x13c>)
 8003d6a:	4831      	ldr	r0, [pc, #196]	; (8003e30 <mem_trim+0x138>)
 8003d6c:	f005 feaa 	bl	8009ac4 <iprintf>
 8003d70:	e7ce      	b.n	8003d10 <mem_trim+0x18>
 8003d72:	d029      	beq.n	8003dc8 <mem_trim+0xd0>
 8003d74:	eb0a 0809 	add.w	r8, sl, r9
 8003d78:	f898 2004 	ldrb.w	r2, [r8, #4]
 8003d7c:	bb3a      	cbnz	r2, 8003dce <mem_trim+0xd6>
 8003d7e:	f5b9 5f20 	cmp.w	r9, #10240	; 0x2800
 8003d82:	d106      	bne.n	8003d92 <mem_trim+0x9a>
 8003d84:	4b28      	ldr	r3, [pc, #160]	; (8003e28 <mem_trim+0x130>)
 8003d86:	f240 22f5 	movw	r2, #757	; 0x2f5
 8003d8a:	492b      	ldr	r1, [pc, #172]	; (8003e38 <mem_trim+0x140>)
 8003d8c:	4828      	ldr	r0, [pc, #160]	; (8003e30 <mem_trim+0x138>)
 8003d8e:	f005 fe99 	bl	8009ac4 <iprintf>
 8003d92:	482a      	ldr	r0, [pc, #168]	; (8003e3c <mem_trim+0x144>)
 8003d94:	f106 0308 	add.w	r3, r6, #8
 8003d98:	683a      	ldr	r2, [r7, #0]
 8003d9a:	4423      	add	r3, r4
 8003d9c:	6804      	ldr	r4, [r0, #0]
 8003d9e:	f83a c009 	ldrh.w	ip, [sl, r9]
 8003da2:	b299      	uxth	r1, r3
 8003da4:	4544      	cmp	r4, r8
 8003da6:	fa12 f383 	uxtah	r3, r2, r3
 8003daa:	bf08      	it	eq
 8003dac:	6003      	streq	r3, [r0, #0]
 8003dae:	2000      	movs	r0, #0
 8003db0:	7118      	strb	r0, [r3, #4]
 8003db2:	f822 c001 	strh.w	ip, [r2, r1]
 8003db6:	805e      	strh	r6, [r3, #2]
 8003db8:	f825 1c08 	strh.w	r1, [r5, #-8]
 8003dbc:	5a53      	ldrh	r3, [r2, r1]
 8003dbe:	f5b3 5f20 	cmp.w	r3, #10240	; 0x2800
 8003dc2:	d001      	beq.n	8003dc8 <mem_trim+0xd0>
 8003dc4:	441a      	add	r2, r3
 8003dc6:	8051      	strh	r1, [r2, #2]
 8003dc8:	4628      	mov	r0, r5
 8003dca:	e8bd 87f0 	ldmia.w	sp!, {r4, r5, r6, r7, r8, r9, sl, pc}
 8003dce:	f104 0214 	add.w	r2, r4, #20
 8003dd2:	b292      	uxth	r2, r2
 8003dd4:	429a      	cmp	r2, r3
 8003dd6:	d8f7      	bhi.n	8003dc8 <mem_trim+0xd0>
 8003dd8:	f106 0308 	add.w	r3, r6, #8
 8003ddc:	f5b9 5f20 	cmp.w	r9, #10240	; 0x2800
 8003de0:	441c      	add	r4, r3
 8003de2:	b2a4      	uxth	r4, r4
 8003de4:	d106      	bne.n	8003df4 <mem_trim+0xfc>
 8003de6:	4b10      	ldr	r3, [pc, #64]	; (8003e28 <mem_trim+0x130>)
 8003de8:	f240 3216 	movw	r2, #790	; 0x316
 8003dec:	4912      	ldr	r1, [pc, #72]	; (8003e38 <mem_trim+0x140>)
 8003dee:	4810      	ldr	r0, [pc, #64]	; (8003e30 <mem_trim+0x138>)
 8003df0:	f005 fe68 	bl	8009ac4 <iprintf>
 8003df4:	683b      	ldr	r3, [r7, #0]
 8003df6:	4911      	ldr	r1, [pc, #68]	; (8003e3c <mem_trim+0x144>)
 8003df8:	191a      	adds	r2, r3, r4
 8003dfa:	6808      	ldr	r0, [r1, #0]
 8003dfc:	4290      	cmp	r0, r2
 8003dfe:	bf88      	it	hi
 8003e00:	600a      	strhi	r2, [r1, #0]
 8003e02:	2100      	movs	r1, #0
 8003e04:	7111      	strb	r1, [r2, #4]
 8003e06:	f835 1c08 	ldrh.w	r1, [r5, #-8]
 8003e0a:	5319      	strh	r1, [r3, r4]
 8003e0c:	8056      	strh	r6, [r2, #2]
 8003e0e:	f825 4c08 	strh.w	r4, [r5, #-8]
 8003e12:	5b1a      	ldrh	r2, [r3, r4]
 8003e14:	f5b2 5f20 	cmp.w	r2, #10240	; 0x2800
 8003e18:	d0d6      	beq.n	8003dc8 <mem_trim+0xd0>
 8003e1a:	4413      	add	r3, r2
 8003e1c:	805c      	strh	r4, [r3, #2]
 8003e1e:	e7d3      	b.n	8003dc8 <mem_trim+0xd0>
 8003e20:	20005310 	.word	0x20005310
 8003e24:	20005314 	.word	0x20005314
 8003e28:	0800beff 	.word	0x0800beff
 8003e2c:	0800c01f 	.word	0x0800c01f
 8003e30:	0800be06 	.word	0x0800be06
 8003e34:	0800c036 	.word	0x0800c036
 8003e38:	0800c056 	.word	0x0800c056
 8003e3c:	2000530c 	.word	0x2000530c

08003e40 <mem_malloc>:
 8003e40:	e92d 43f8 	stmdb	sp!, {r3, r4, r5, r6, r7, r8, r9, lr}
 8003e44:	2800      	cmp	r0, #0
 8003e46:	d07f      	beq.n	8003f48 <mem_malloc+0x108>
 8003e48:	1cc5      	adds	r5, r0, #3
 8003e4a:	f025 0503 	bic.w	r5, r5, #3
 8003e4e:	b2ad      	uxth	r5, r5
 8003e50:	2d0b      	cmp	r5, #11
 8003e52:	d904      	bls.n	8003e5e <mem_malloc+0x1e>
 8003e54:	f5b5 5f20 	cmp.w	r5, #10240	; 0x2800
 8003e58:	d902      	bls.n	8003e60 <mem_malloc+0x20>
 8003e5a:	2000      	movs	r0, #0
 8003e5c:	e074      	b.n	8003f48 <mem_malloc+0x108>
 8003e5e:	250c      	movs	r5, #12
 8003e60:	42a8      	cmp	r0, r5
 8003e62:	d8fa      	bhi.n	8003e5a <mem_malloc+0x1a>
 8003e64:	f8df 9114 	ldr.w	r9, [pc, #276]	; 8003f7c <mem_malloc+0x13c>
 8003e68:	f5c5 5020 	rsb	r0, r5, #10240	; 0x2800
 8003e6c:	f8df 8110 	ldr.w	r8, [pc, #272]	; 8003f80 <mem_malloc+0x140>
 8003e70:	f06f 0707 	mvn.w	r7, #7
 8003e74:	f8d9 2000 	ldr.w	r2, [r9]
 8003e78:	f8d8 6000 	ldr.w	r6, [r8]
 8003e7c:	1ab6      	subs	r6, r6, r2
 8003e7e:	b2b6      	uxth	r6, r6
 8003e80:	4286      	cmp	r6, r0
 8003e82:	d2ea      	bcs.n	8003e5a <mem_malloc+0x1a>
 8003e84:	1994      	adds	r4, r2, r6
 8003e86:	5b91      	ldrh	r1, [r2, r6]
 8003e88:	7923      	ldrb	r3, [r4, #4]
 8003e8a:	2b00      	cmp	r3, #0
 8003e8c:	d164      	bne.n	8003f58 <mem_malloc+0x118>
 8003e8e:	1bbb      	subs	r3, r7, r6
 8003e90:	440b      	add	r3, r1
 8003e92:	42ab      	cmp	r3, r5
 8003e94:	d360      	bcc.n	8003f58 <mem_malloc+0x118>
 8003e96:	f105 0214 	add.w	r2, r5, #20
 8003e9a:	4293      	cmp	r3, r2
 8003e9c:	d356      	bcc.n	8003f4c <mem_malloc+0x10c>
 8003e9e:	f105 0708 	add.w	r7, r5, #8
 8003ea2:	4437      	add	r7, r6
 8003ea4:	b2bf      	uxth	r7, r7
 8003ea6:	f5b7 5f20 	cmp.w	r7, #10240	; 0x2800
 8003eaa:	d106      	bne.n	8003eba <mem_malloc+0x7a>
 8003eac:	4b2b      	ldr	r3, [pc, #172]	; (8003f5c <mem_malloc+0x11c>)
 8003eae:	f240 3287 	movw	r2, #903	; 0x387
 8003eb2:	492b      	ldr	r1, [pc, #172]	; (8003f60 <mem_malloc+0x120>)
 8003eb4:	482b      	ldr	r0, [pc, #172]	; (8003f64 <mem_malloc+0x124>)
 8003eb6:	f005 fe05 	bl	8009ac4 <iprintf>
 8003eba:	f8d9 3000 	ldr.w	r3, [r9]
 8003ebe:	2100      	movs	r1, #0
 8003ec0:	19da      	adds	r2, r3, r7
 8003ec2:	7111      	strb	r1, [r2, #4]
 8003ec4:	8821      	ldrh	r1, [r4, #0]
 8003ec6:	53d9      	strh	r1, [r3, r7]
 8003ec8:	8056      	strh	r6, [r2, #2]
 8003eca:	2201      	movs	r2, #1
 8003ecc:	8027      	strh	r7, [r4, #0]
 8003ece:	7122      	strb	r2, [r4, #4]
 8003ed0:	5bda      	ldrh	r2, [r3, r7]
 8003ed2:	f5b2 5f20 	cmp.w	r2, #10240	; 0x2800
 8003ed6:	d001      	beq.n	8003edc <mem_malloc+0x9c>
 8003ed8:	4413      	add	r3, r2
 8003eda:	805f      	strh	r7, [r3, #2]
 8003edc:	f8d8 3000 	ldr.w	r3, [r8]
 8003ee0:	4e21      	ldr	r6, [pc, #132]	; (8003f68 <mem_malloc+0x128>)
 8003ee2:	42a3      	cmp	r3, r4
 8003ee4:	6831      	ldr	r1, [r6, #0]
 8003ee6:	d111      	bne.n	8003f0c <mem_malloc+0xcc>
 8003ee8:	f8d9 0000 	ldr.w	r0, [r9]
 8003eec:	791a      	ldrb	r2, [r3, #4]
 8003eee:	b10a      	cbz	r2, 8003ef4 <mem_malloc+0xb4>
 8003ef0:	4299      	cmp	r1, r3
 8003ef2:	d12e      	bne.n	8003f52 <mem_malloc+0x112>
 8003ef4:	4299      	cmp	r1, r3
 8003ef6:	f8c8 3000 	str.w	r3, [r8]
 8003efa:	d007      	beq.n	8003f0c <mem_malloc+0xcc>
 8003efc:	b132      	cbz	r2, 8003f0c <mem_malloc+0xcc>
 8003efe:	4b17      	ldr	r3, [pc, #92]	; (8003f5c <mem_malloc+0x11c>)
 8003f00:	f240 32b5 	movw	r2, #949	; 0x3b5
 8003f04:	4919      	ldr	r1, [pc, #100]	; (8003f6c <mem_malloc+0x12c>)
 8003f06:	4817      	ldr	r0, [pc, #92]	; (8003f64 <mem_malloc+0x124>)
 8003f08:	f005 fddc 	bl	8009ac4 <iprintf>
 8003f0c:	3508      	adds	r5, #8
 8003f0e:	6833      	ldr	r3, [r6, #0]
 8003f10:	4425      	add	r5, r4
 8003f12:	42ab      	cmp	r3, r5
 8003f14:	d206      	bcs.n	8003f24 <mem_malloc+0xe4>
 8003f16:	4b11      	ldr	r3, [pc, #68]	; (8003f5c <mem_malloc+0x11c>)
 8003f18:	f240 32b9 	movw	r2, #953	; 0x3b9
 8003f1c:	4914      	ldr	r1, [pc, #80]	; (8003f70 <mem_malloc+0x130>)
 8003f1e:	4811      	ldr	r0, [pc, #68]	; (8003f64 <mem_malloc+0x124>)
 8003f20:	f005 fdd0 	bl	8009ac4 <iprintf>
 8003f24:	07a3      	lsls	r3, r4, #30
 8003f26:	d00d      	beq.n	8003f44 <mem_malloc+0x104>
 8003f28:	4b0c      	ldr	r3, [pc, #48]	; (8003f5c <mem_malloc+0x11c>)
 8003f2a:	f240 32bb 	movw	r2, #955	; 0x3bb
 8003f2e:	4911      	ldr	r1, [pc, #68]	; (8003f74 <mem_malloc+0x134>)
 8003f30:	480c      	ldr	r0, [pc, #48]	; (8003f64 <mem_malloc+0x124>)
 8003f32:	f005 fdc7 	bl	8009ac4 <iprintf>
 8003f36:	4b09      	ldr	r3, [pc, #36]	; (8003f5c <mem_malloc+0x11c>)
 8003f38:	f240 32bd 	movw	r2, #957	; 0x3bd
 8003f3c:	490e      	ldr	r1, [pc, #56]	; (8003f78 <mem_malloc+0x138>)
 8003f3e:	4809      	ldr	r0, [pc, #36]	; (8003f64 <mem_malloc+0x124>)
 8003f40:	f005 fdc0 	bl	8009ac4 <iprintf>
 8003f44:	f104 0008 	add.w	r0, r4, #8
 8003f48:	e8bd 83f8 	ldmia.w	sp!, {r3, r4, r5, r6, r7, r8, r9, pc}
 8003f4c:	2301      	movs	r3, #1
 8003f4e:	7123      	strb	r3, [r4, #4]
 8003f50:	e7c4      	b.n	8003edc <mem_malloc+0x9c>
 8003f52:	881b      	ldrh	r3, [r3, #0]
 8003f54:	4403      	add	r3, r0
 8003f56:	e7c9      	b.n	8003eec <mem_malloc+0xac>
 8003f58:	460e      	mov	r6, r1
 8003f5a:	e791      	b.n	8003e80 <mem_malloc+0x40>
 8003f5c:	0800beff 	.word	0x0800beff
 8003f60:	0800c056 	.word	0x0800c056
 8003f64:	0800be06 	.word	0x0800be06
 8003f68:	20005314 	.word	0x20005314
 8003f6c:	0800c067 	.word	0x0800c067
 8003f70:	0800c080 	.word	0x0800c080
 8003f74:	0800c0b0 	.word	0x0800c0b0
 8003f78:	0800c0df 	.word	0x0800c0df
 8003f7c:	20005310 	.word	0x20005310
 8003f80:	2000530c 	.word	0x2000530c

08003f84 <do_memp_free_pool>:
 8003f84:	b538      	push	{r3, r4, r5, lr}
 8003f86:	078b      	lsls	r3, r1, #30
 8003f88:	4605      	mov	r5, r0
 8003f8a:	460c      	mov	r4, r1
 8003f8c:	d006      	beq.n	8003f9c <do_memp_free_pool+0x18>
 8003f8e:	4b06      	ldr	r3, [pc, #24]	; (8003fa8 <do_memp_free_pool+0x24>)
 8003f90:	f44f 72b6 	mov.w	r2, #364	; 0x16c
 8003f94:	4905      	ldr	r1, [pc, #20]	; (8003fac <do_memp_free_pool+0x28>)
 8003f96:	4806      	ldr	r0, [pc, #24]	; (8003fb0 <do_memp_free_pool+0x2c>)
 8003f98:	f005 fd94 	bl	8009ac4 <iprintf>
 8003f9c:	68ab      	ldr	r3, [r5, #8]
 8003f9e:	681a      	ldr	r2, [r3, #0]
 8003fa0:	6022      	str	r2, [r4, #0]
 8003fa2:	601c      	str	r4, [r3, #0]
 8003fa4:	bd38      	pop	{r3, r4, r5, pc}
 8003fa6:	bf00      	nop
 8003fa8:	0800c102 	.word	0x0800c102
 8003fac:	0800c132 	.word	0x0800c132
 8003fb0:	0800be06 	.word	0x0800be06

08003fb4 <do_memp_malloc_pool.isra.0>:
 8003fb4:	b510      	push	{r4, lr}
 8003fb6:	6804      	ldr	r4, [r0, #0]
 8003fb8:	b154      	cbz	r4, 8003fd0 <do_memp_malloc_pool.isra.0+0x1c>
 8003fba:	6823      	ldr	r3, [r4, #0]
 8003fbc:	6003      	str	r3, [r0, #0]
 8003fbe:	07a3      	lsls	r3, r4, #30
 8003fc0:	d006      	beq.n	8003fd0 <do_memp_malloc_pool.isra.0+0x1c>
 8003fc2:	4b04      	ldr	r3, [pc, #16]	; (8003fd4 <do_memp_malloc_pool.isra.0+0x20>)
 8003fc4:	f44f 728c 	mov.w	r2, #280	; 0x118
 8003fc8:	4903      	ldr	r1, [pc, #12]	; (8003fd8 <do_memp_malloc_pool.isra.0+0x24>)
 8003fca:	4804      	ldr	r0, [pc, #16]	; (8003fdc <do_memp_malloc_pool.isra.0+0x28>)
 8003fcc:	f005 fd7a 	bl	8009ac4 <iprintf>
 8003fd0:	4620      	mov	r0, r4
 8003fd2:	bd10      	pop	{r4, pc}
 8003fd4:	0800c102 	.word	0x0800c102
 8003fd8:	0800c152 	.word	0x0800c152
 8003fdc:	0800be06 	.word	0x0800be06

08003fe0 <memp_init_pool>:
 8003fe0:	6843      	ldr	r3, [r0, #4]
 8003fe2:	2200      	movs	r2, #0
 8003fe4:	6881      	ldr	r1, [r0, #8]
 8003fe6:	3303      	adds	r3, #3
 8003fe8:	b530      	push	{r4, r5, lr}
 8003fea:	f023 0303 	bic.w	r3, r3, #3
 8003fee:	8844      	ldrh	r4, [r0, #2]
 8003ff0:	600a      	str	r2, [r1, #0]
 8003ff2:	4294      	cmp	r4, r2
 8003ff4:	dc00      	bgt.n	8003ff8 <memp_init_pool+0x18>
 8003ff6:	bd30      	pop	{r4, r5, pc}
 8003ff8:	680d      	ldr	r5, [r1, #0]
 8003ffa:	3201      	adds	r2, #1
 8003ffc:	601d      	str	r5, [r3, #0]
 8003ffe:	8805      	ldrh	r5, [r0, #0]
 8004000:	600b      	str	r3, [r1, #0]
 8004002:	442b      	add	r3, r5
 8004004:	e7f5      	b.n	8003ff2 <memp_init_pool+0x12>
	...

08004008 <memp_init>:
 8004008:	b538      	push	{r3, r4, r5, lr}
 800400a:	4d05      	ldr	r5, [pc, #20]	; (8004020 <memp_init+0x18>)
 800400c:	2409      	movs	r4, #9
 800400e:	3c01      	subs	r4, #1
 8004010:	f855 0b04 	ldr.w	r0, [r5], #4
 8004014:	f7ff ffe4 	bl	8003fe0 <memp_init_pool>
 8004018:	b2a4      	uxth	r4, r4
 800401a:	2c00      	cmp	r4, #0
 800401c:	d1f7      	bne.n	800400e <memp_init+0x6>
 800401e:	bd38      	pop	{r3, r4, r5, pc}
 8004020:	0800c22c 	.word	0x0800c22c

08004024 <memp_malloc_pool>:
 8004024:	b510      	push	{r4, lr}
 8004026:	4604      	mov	r4, r0
 8004028:	b120      	cbz	r0, 8004034 <memp_malloc_pool+0x10>
 800402a:	6880      	ldr	r0, [r0, #8]
 800402c:	e8bd 4010 	ldmia.w	sp!, {r4, lr}
 8004030:	f7ff bfc0 	b.w	8003fb4 <do_memp_malloc_pool.isra.0>
 8004034:	4b04      	ldr	r3, [pc, #16]	; (8004048 <memp_malloc_pool+0x24>)
 8004036:	f44f 729e 	mov.w	r2, #316	; 0x13c
 800403a:	4904      	ldr	r1, [pc, #16]	; (800404c <memp_malloc_pool+0x28>)
 800403c:	4804      	ldr	r0, [pc, #16]	; (8004050 <memp_malloc_pool+0x2c>)
 800403e:	f005 fd41 	bl	8009ac4 <iprintf>
 8004042:	4620      	mov	r0, r4
 8004044:	bd10      	pop	{r4, pc}
 8004046:	bf00      	nop
 8004048:	0800c102 	.word	0x0800c102
 800404c:	0800c175 	.word	0x0800c175
 8004050:	0800be06 	.word	0x0800be06

08004054 <memp_malloc>:
 8004054:	2808      	cmp	r0, #8
 8004056:	b508      	push	{r3, lr}
 8004058:	d807      	bhi.n	800406a <memp_malloc+0x16>
 800405a:	4b08      	ldr	r3, [pc, #32]	; (800407c <memp_malloc+0x28>)
 800405c:	f853 3020 	ldr.w	r3, [r3, r0, lsl #2]
 8004060:	6898      	ldr	r0, [r3, #8]
 8004062:	e8bd 4008 	ldmia.w	sp!, {r3, lr}
 8004066:	f7ff bfa5 	b.w	8003fb4 <do_memp_malloc_pool.isra.0>
 800406a:	4b05      	ldr	r3, [pc, #20]	; (8004080 <memp_malloc+0x2c>)
 800406c:	f240 1257 	movw	r2, #343	; 0x157
 8004070:	4904      	ldr	r1, [pc, #16]	; (8004084 <memp_malloc+0x30>)
 8004072:	4805      	ldr	r0, [pc, #20]	; (8004088 <memp_malloc+0x34>)
 8004074:	f005 fd26 	bl	8009ac4 <iprintf>
 8004078:	2000      	movs	r0, #0
 800407a:	bd08      	pop	{r3, pc}
 800407c:	0800c22c 	.word	0x0800c22c
 8004080:	0800c102 	.word	0x0800c102
 8004084:	0800c187 	.word	0x0800c187
 8004088:	0800be06 	.word	0x0800be06

0800408c <memp_free_pool>:
 800408c:	b940      	cbnz	r0, 80040a0 <memp_free_pool+0x14>
 800408e:	4b06      	ldr	r3, [pc, #24]	; (80040a8 <memp_free_pool+0x1c>)
 8004090:	f240 1295 	movw	r2, #405	; 0x195
 8004094:	4905      	ldr	r1, [pc, #20]	; (80040ac <memp_free_pool+0x20>)
 8004096:	4806      	ldr	r0, [pc, #24]	; (80040b0 <memp_free_pool+0x24>)
 8004098:	f005 bd14 	b.w	8009ac4 <iprintf>
 800409c:	f7ff bf72 	b.w	8003f84 <do_memp_free_pool>
 80040a0:	2900      	cmp	r1, #0
 80040a2:	d1fb      	bne.n	800409c <memp_free_pool+0x10>
 80040a4:	4770      	bx	lr
 80040a6:	bf00      	nop
 80040a8:	0800c102 	.word	0x0800c102
 80040ac:	0800c175 	.word	0x0800c175
 80040b0:	0800be06 	.word	0x0800be06

080040b4 <memp_free>:
 80040b4:	2808      	cmp	r0, #8
 80040b6:	d906      	bls.n	80040c6 <memp_free+0x12>
 80040b8:	4b06      	ldr	r3, [pc, #24]	; (80040d4 <memp_free+0x20>)
 80040ba:	f44f 72d5 	mov.w	r2, #426	; 0x1aa
 80040be:	4906      	ldr	r1, [pc, #24]	; (80040d8 <memp_free+0x24>)
 80040c0:	4806      	ldr	r0, [pc, #24]	; (80040dc <memp_free+0x28>)
 80040c2:	f005 bcff 	b.w	8009ac4 <iprintf>
 80040c6:	b121      	cbz	r1, 80040d2 <memp_free+0x1e>
 80040c8:	4b05      	ldr	r3, [pc, #20]	; (80040e0 <memp_free+0x2c>)
 80040ca:	f853 0020 	ldr.w	r0, [r3, r0, lsl #2]
 80040ce:	f7ff bf59 	b.w	8003f84 <do_memp_free_pool>
 80040d2:	4770      	bx	lr
 80040d4:	0800c102 	.word	0x0800c102
 80040d8:	0800c1a4 	.word	0x0800c1a4
 80040dc:	0800be06 	.word	0x0800be06
 80040e0:	0800c22c 	.word	0x0800c22c

080040e4 <netif_null_output_ip4>:
 80040e4:	f06f 000b 	mvn.w	r0, #11
 80040e8:	4770      	bx	lr
	...

080040ec <netif_issue_reports>:
 80040ec:	b510      	push	{r4, lr}
 80040ee:	4604      	mov	r4, r0
 80040f0:	b930      	cbnz	r0, 8004100 <netif_issue_reports+0x14>
 80040f2:	4b0c      	ldr	r3, [pc, #48]	; (8004124 <netif_issue_reports+0x38>)
 80040f4:	f240 326d 	movw	r2, #877	; 0x36d
 80040f8:	490b      	ldr	r1, [pc, #44]	; (8004128 <netif_issue_reports+0x3c>)
 80040fa:	480c      	ldr	r0, [pc, #48]	; (800412c <netif_issue_reports+0x40>)
 80040fc:	f005 fce2 	bl	8009ac4 <iprintf>
 8004100:	f894 302d 	ldrb.w	r3, [r4, #45]	; 0x2d
 8004104:	f003 0205 	and.w	r2, r3, #5
 8004108:	2a05      	cmp	r2, #5
 800410a:	d109      	bne.n	8004120 <netif_issue_reports+0x34>
 800410c:	6862      	ldr	r2, [r4, #4]
 800410e:	b13a      	cbz	r2, 8004120 <netif_issue_reports+0x34>
 8004110:	071b      	lsls	r3, r3, #28
 8004112:	d505      	bpl.n	8004120 <netif_issue_reports+0x34>
 8004114:	1d21      	adds	r1, r4, #4
 8004116:	4620      	mov	r0, r4
 8004118:	e8bd 4010 	ldmia.w	sp!, {r4, lr}
 800411c:	f004 ba92 	b.w	8008644 <etharp_request>
 8004120:	bd10      	pop	{r4, pc}
 8004122:	bf00      	nop
 8004124:	0800c250 	.word	0x0800c250
 8004128:	0800c281 	.word	0x0800c281
 800412c:	0800be06 	.word	0x0800be06

08004130 <netif_do_set_ipaddr.isra.0>:
 8004130:	b573      	push	{r0, r1, r4, r5, r6, lr}
 8004132:	4605      	mov	r5, r0
 8004134:	4616      	mov	r6, r2
 8004136:	460c      	mov	r4, r1
 8004138:	b931      	cbnz	r1, 8004148 <netif_do_set_ipaddr.isra.0+0x18>
 800413a:	4b0e      	ldr	r3, [pc, #56]	; (8004174 <netif_do_set_ipaddr.isra.0+0x44>)
 800413c:	f240 12cb 	movw	r2, #459	; 0x1cb
 8004140:	490d      	ldr	r1, [pc, #52]	; (8004178 <netif_do_set_ipaddr.isra.0+0x48>)
 8004142:	480e      	ldr	r0, [pc, #56]	; (800417c <netif_do_set_ipaddr.isra.0+0x4c>)
 8004144:	f005 fcbe 	bl	8009ac4 <iprintf>
 8004148:	686b      	ldr	r3, [r5, #4]
 800414a:	6822      	ldr	r2, [r4, #0]
 800414c:	429a      	cmp	r2, r3
 800414e:	d00f      	beq.n	8004170 <netif_do_set_ipaddr.isra.0+0x40>
 8004150:	6033      	str	r3, [r6, #0]
 8004152:	a901      	add	r1, sp, #4
 8004154:	4630      	mov	r0, r6
 8004156:	9201      	str	r2, [sp, #4]
 8004158:	f000 ff44 	bl	8004fe4 <tcp_netif_ip_addr_changed>
 800415c:	a901      	add	r1, sp, #4
 800415e:	4630      	mov	r0, r6
 8004160:	f004 f88e 	bl	8008280 <udp_netif_ip_addr_changed>
 8004164:	6823      	ldr	r3, [r4, #0]
 8004166:	2101      	movs	r1, #1
 8004168:	4628      	mov	r0, r5
 800416a:	606b      	str	r3, [r5, #4]
 800416c:	f7ff ffbe 	bl	80040ec <netif_issue_reports>
 8004170:	b002      	add	sp, #8
 8004172:	bd70      	pop	{r4, r5, r6, pc}
 8004174:	0800c250 	.word	0x0800c250
 8004178:	0800c2a4 	.word	0x0800c2a4
 800417c:	0800be06 	.word	0x0800be06

08004180 <netif_init>:
 8004180:	4770      	bx	lr
	...

08004184 <netif_set_addr>:
 8004184:	b5f7      	push	{r0, r1, r2, r4, r5, r6, r7, lr}
 8004186:	4d14      	ldr	r5, [pc, #80]	; (80041d8 <netif_set_addr+0x54>)
 8004188:	4604      	mov	r4, r0
 800418a:	2900      	cmp	r1, #0
 800418c:	bf14      	ite	ne
 800418e:	460e      	movne	r6, r1
 8004190:	462e      	moveq	r6, r5
 8004192:	2a00      	cmp	r2, #0
 8004194:	bf14      	ite	ne
 8004196:	4617      	movne	r7, r2
 8004198:	462f      	moveq	r7, r5
 800419a:	2b00      	cmp	r3, #0
 800419c:	bf18      	it	ne
 800419e:	461d      	movne	r5, r3
 80041a0:	6833      	ldr	r3, [r6, #0]
 80041a2:	b9b3      	cbnz	r3, 80041d2 <netif_set_addr+0x4e>
 80041a4:	aa01      	add	r2, sp, #4
 80041a6:	4631      	mov	r1, r6
 80041a8:	f7ff ffc2 	bl	8004130 <netif_do_set_ipaddr.isra.0>
 80041ac:	2301      	movs	r3, #1
 80041ae:	683a      	ldr	r2, [r7, #0]
 80041b0:	68a1      	ldr	r1, [r4, #8]
 80041b2:	428a      	cmp	r2, r1
 80041b4:	68e1      	ldr	r1, [r4, #12]
 80041b6:	bf18      	it	ne
 80041b8:	60a2      	strne	r2, [r4, #8]
 80041ba:	682a      	ldr	r2, [r5, #0]
 80041bc:	428a      	cmp	r2, r1
 80041be:	bf18      	it	ne
 80041c0:	60e2      	strne	r2, [r4, #12]
 80041c2:	b923      	cbnz	r3, 80041ce <netif_set_addr+0x4a>
 80041c4:	aa01      	add	r2, sp, #4
 80041c6:	4631      	mov	r1, r6
 80041c8:	4620      	mov	r0, r4
 80041ca:	f7ff ffb1 	bl	8004130 <netif_do_set_ipaddr.isra.0>
 80041ce:	b003      	add	sp, #12
 80041d0:	bdf0      	pop	{r4, r5, r6, r7, pc}
 80041d2:	2300      	movs	r3, #0
 80041d4:	e7eb      	b.n	80041ae <netif_set_addr+0x2a>
 80041d6:	bf00      	nop
 80041d8:	0800d904 	.word	0x0800d904

080041dc <netif_add>:
 80041dc:	e92d 4ff8 	stmdb	sp!, {r3, r4, r5, r6, r7, r8, r9, sl, fp, lr}
 80041e0:	f8dd 802c 	ldr.w	r8, [sp, #44]	; 0x2c
 80041e4:	4604      	mov	r4, r0
 80041e6:	b948      	cbnz	r0, 80041fc <netif_add+0x20>
 80041e8:	4b3d      	ldr	r3, [pc, #244]	; (80042e0 <netif_add+0x104>)
 80041ea:	f240 1227 	movw	r2, #295	; 0x127
 80041ee:	493d      	ldr	r1, [pc, #244]	; (80042e4 <netif_add+0x108>)
 80041f0:	483d      	ldr	r0, [pc, #244]	; (80042e8 <netif_add+0x10c>)
 80041f2:	f005 fc67 	bl	8009ac4 <iprintf>
 80041f6:	4620      	mov	r0, r4
 80041f8:	e8bd 8ff8 	ldmia.w	sp!, {r3, r4, r5, r6, r7, r8, r9, sl, fp, pc}
 80041fc:	f1b8 0f00 	cmp.w	r8, #0
 8004200:	d108      	bne.n	8004214 <netif_add+0x38>
 8004202:	4b37      	ldr	r3, [pc, #220]	; (80042e0 <netif_add+0x104>)
 8004204:	f44f 7294 	mov.w	r2, #296	; 0x128
 8004208:	4938      	ldr	r1, [pc, #224]	; (80042ec <netif_add+0x110>)
 800420a:	4644      	mov	r4, r8
 800420c:	4836      	ldr	r0, [pc, #216]	; (80042e8 <netif_add+0x10c>)
 800420e:	f005 fc59 	bl	8009ac4 <iprintf>
 8004212:	e7f0      	b.n	80041f6 <netif_add+0x1a>
 8004214:	4e36      	ldr	r6, [pc, #216]	; (80042f0 <netif_add+0x114>)
 8004216:	2500      	movs	r5, #0
 8004218:	f8df c0e4 	ldr.w	ip, [pc, #228]	; 8004300 <netif_add+0x124>
 800421c:	6146      	str	r6, [r0, #20]
 800421e:	9e0a      	ldr	r6, [sp, #40]	; 0x28
 8004220:	42ab      	cmp	r3, r5
 8004222:	bf08      	it	eq
 8004224:	4663      	moveq	r3, ip
 8004226:	60c5      	str	r5, [r0, #12]
 8004228:	42aa      	cmp	r2, r5
 800422a:	bf08      	it	eq
 800422c:	4662      	moveq	r2, ip
 800422e:	6206      	str	r6, [r0, #32]
 8004230:	42a9      	cmp	r1, r5
 8004232:	bf08      	it	eq
 8004234:	4661      	moveq	r1, ip
 8004236:	4e2f      	ldr	r6, [pc, #188]	; (80042f4 <netif_add+0x118>)
 8004238:	8485      	strh	r5, [r0, #36]	; 0x24
 800423a:	7837      	ldrb	r7, [r6, #0]
 800423c:	f880 502d 	strb.w	r5, [r0, #45]	; 0x2d
 8004240:	f880 7030 	strb.w	r7, [r0, #48]	; 0x30
 8004244:	9f0c      	ldr	r7, [sp, #48]	; 0x30
 8004246:	61c5      	str	r5, [r0, #28]
 8004248:	6107      	str	r7, [r0, #16]
 800424a:	e9c0 5501 	strd	r5, r5, [r0, #4]
 800424e:	f7ff ff99 	bl	8004184 <netif_set_addr>
 8004252:	4620      	mov	r0, r4
 8004254:	47c0      	blx	r8
 8004256:	2800      	cmp	r0, #0
 8004258:	d13f      	bne.n	80042da <netif_add+0xfe>
 800425a:	4f27      	ldr	r7, [pc, #156]	; (80042f8 <netif_add+0x11c>)
 800425c:	f8df b080 	ldr.w	fp, [pc, #128]	; 80042e0 <netif_add+0x104>
 8004260:	f894 3030 	ldrb.w	r3, [r4, #48]	; 0x30
 8004264:	f04f 0800 	mov.w	r8, #0
 8004268:	683d      	ldr	r5, [r7, #0]
 800426a:	2bff      	cmp	r3, #255	; 0xff
 800426c:	f8df a094 	ldr.w	sl, [pc, #148]	; 8004304 <netif_add+0x128>
 8004270:	f8df 9074 	ldr.w	r9, [pc, #116]	; 80042e8 <netif_add+0x10c>
 8004274:	bf04      	itt	eq
 8004276:	2300      	moveq	r3, #0
 8004278:	f884 3030 	strbeq.w	r3, [r4, #48]	; 0x30
 800427c:	b92d      	cbnz	r5, 800428a <netif_add+0xae>
 800427e:	f894 3030 	ldrb.w	r3, [r4, #48]	; 0x30
 8004282:	2bfe      	cmp	r3, #254	; 0xfe
 8004284:	d122      	bne.n	80042cc <netif_add+0xf0>
 8004286:	462b      	mov	r3, r5
 8004288:	e022      	b.n	80042d0 <netif_add+0xf4>
 800428a:	42a5      	cmp	r5, r4
 800428c:	d106      	bne.n	800429c <netif_add+0xc0>
 800428e:	465b      	mov	r3, fp
 8004290:	f240 128b 	movw	r2, #395	; 0x18b
 8004294:	4651      	mov	r1, sl
 8004296:	4648      	mov	r0, r9
 8004298:	f005 fc14 	bl	8009ac4 <iprintf>
 800429c:	f108 0801 	add.w	r8, r8, #1
 80042a0:	f1b8 0fff 	cmp.w	r8, #255	; 0xff
 80042a4:	dd06      	ble.n	80042b4 <netif_add+0xd8>
 80042a6:	465b      	mov	r3, fp
 80042a8:	f240 128d 	movw	r2, #397	; 0x18d
 80042ac:	4913      	ldr	r1, [pc, #76]	; (80042fc <netif_add+0x120>)
 80042ae:	4648      	mov	r0, r9
 80042b0:	f005 fc08 	bl	8009ac4 <iprintf>
 80042b4:	f894 3030 	ldrb.w	r3, [r4, #48]	; 0x30
 80042b8:	f895 2030 	ldrb.w	r2, [r5, #48]	; 0x30
 80042bc:	429a      	cmp	r2, r3
 80042be:	d103      	bne.n	80042c8 <netif_add+0xec>
 80042c0:	3201      	adds	r2, #1
 80042c2:	f884 2030 	strb.w	r2, [r4, #48]	; 0x30
 80042c6:	e7cb      	b.n	8004260 <netif_add+0x84>
 80042c8:	682d      	ldr	r5, [r5, #0]
 80042ca:	e7d7      	b.n	800427c <netif_add+0xa0>
 80042cc:	3301      	adds	r3, #1
 80042ce:	b2db      	uxtb	r3, r3
 80042d0:	7033      	strb	r3, [r6, #0]
 80042d2:	683b      	ldr	r3, [r7, #0]
 80042d4:	6023      	str	r3, [r4, #0]
 80042d6:	603c      	str	r4, [r7, #0]
 80042d8:	e78d      	b.n	80041f6 <netif_add+0x1a>
 80042da:	462c      	mov	r4, r5
 80042dc:	e78b      	b.n	80041f6 <netif_add+0x1a>
 80042de:	bf00      	nop
 80042e0:	0800c250 	.word	0x0800c250
 80042e4:	0800c2b4 	.word	0x0800c2b4
 80042e8:	0800be06 	.word	0x0800be06
 80042ec:	0800c2cd 	.word	0x0800c2cd
 80042f0:	080040e5 	.word	0x080040e5
 80042f4:	2000aa18 	.word	0x2000aa18
 80042f8:	2000aa14 	.word	0x2000aa14
 80042fc:	0800c303 	.word	0x0800c303
 8004300:	0800d904 	.word	0x0800d904
 8004304:	0800c2ef 	.word	0x0800c2ef

08004308 <netif_set_default>:
 8004308:	4b01      	ldr	r3, [pc, #4]	; (8004310 <netif_set_default+0x8>)
 800430a:	6018      	str	r0, [r3, #0]
 800430c:	4770      	bx	lr
 800430e:	bf00      	nop
 8004310:	2000aa10 	.word	0x2000aa10

08004314 <netif_set_up>:
 8004314:	b930      	cbnz	r0, 8004324 <netif_set_up+0x10>
 8004316:	4b09      	ldr	r3, [pc, #36]	; (800433c <netif_set_up+0x28>)
 8004318:	f44f 7254 	mov.w	r2, #848	; 0x350
 800431c:	4908      	ldr	r1, [pc, #32]	; (8004340 <netif_set_up+0x2c>)
 800431e:	4809      	ldr	r0, [pc, #36]	; (8004344 <netif_set_up+0x30>)
 8004320:	f005 bbd0 	b.w	8009ac4 <iprintf>
 8004324:	f890 202d 	ldrb.w	r2, [r0, #45]	; 0x2d
 8004328:	07d1      	lsls	r1, r2, #31
 800432a:	d406      	bmi.n	800433a <netif_set_up+0x26>
 800432c:	f042 0201 	orr.w	r2, r2, #1
 8004330:	2103      	movs	r1, #3
 8004332:	f880 202d 	strb.w	r2, [r0, #45]	; 0x2d
 8004336:	f7ff bed9 	b.w	80040ec <netif_issue_reports>
 800433a:	4770      	bx	lr
 800433c:	0800c250 	.word	0x0800c250
 8004340:	0800c331 	.word	0x0800c331
 8004344:	0800be06 	.word	0x0800be06

08004348 <netif_set_down>:
 8004348:	b930      	cbnz	r0, 8004358 <netif_set_down+0x10>
 800434a:	4b0a      	ldr	r3, [pc, #40]	; (8004374 <netif_set_down+0x2c>)
 800434c:	f240 329b 	movw	r2, #923	; 0x39b
 8004350:	4909      	ldr	r1, [pc, #36]	; (8004378 <netif_set_down+0x30>)
 8004352:	480a      	ldr	r0, [pc, #40]	; (800437c <netif_set_down+0x34>)
 8004354:	f005 bbb6 	b.w	8009ac4 <iprintf>
 8004358:	f890 202d 	ldrb.w	r2, [r0, #45]	; 0x2d
 800435c:	07d1      	lsls	r1, r2, #31
 800435e:	d507      	bpl.n	8004370 <netif_set_down+0x28>
 8004360:	f022 0101 	bic.w	r1, r2, #1
 8004364:	0713      	lsls	r3, r2, #28
 8004366:	f880 102d 	strb.w	r1, [r0, #45]	; 0x2d
 800436a:	d501      	bpl.n	8004370 <netif_set_down+0x28>
 800436c:	f004 b8b4 	b.w	80084d8 <etharp_cleanup_netif>
 8004370:	4770      	bx	lr
 8004372:	bf00      	nop
 8004374:	0800c250 	.word	0x0800c250
 8004378:	0800c34d 	.word	0x0800c34d
 800437c:	0800be06 	.word	0x0800be06

08004380 <netif_set_link_up>:
 8004380:	b510      	push	{r4, lr}
 8004382:	4604      	mov	r4, r0
 8004384:	b940      	cbnz	r0, 8004398 <netif_set_link_up+0x18>
 8004386:	4b0d      	ldr	r3, [pc, #52]	; (80043bc <netif_set_link_up+0x3c>)
 8004388:	f44f 7278 	mov.w	r2, #992	; 0x3e0
 800438c:	490c      	ldr	r1, [pc, #48]	; (80043c0 <netif_set_link_up+0x40>)
 800438e:	480d      	ldr	r0, [pc, #52]	; (80043c4 <netif_set_link_up+0x44>)
 8004390:	e8bd 4010 	ldmia.w	sp!, {r4, lr}
 8004394:	f005 bb96 	b.w	8009ac4 <iprintf>
 8004398:	f890 302d 	ldrb.w	r3, [r0, #45]	; 0x2d
 800439c:	075a      	lsls	r2, r3, #29
 800439e:	d40c      	bmi.n	80043ba <netif_set_link_up+0x3a>
 80043a0:	f043 0304 	orr.w	r3, r3, #4
 80043a4:	2103      	movs	r1, #3
 80043a6:	f880 302d 	strb.w	r3, [r0, #45]	; 0x2d
 80043aa:	f7ff fe9f 	bl	80040ec <netif_issue_reports>
 80043ae:	69e3      	ldr	r3, [r4, #28]
 80043b0:	b11b      	cbz	r3, 80043ba <netif_set_link_up+0x3a>
 80043b2:	4620      	mov	r0, r4
 80043b4:	e8bd 4010 	ldmia.w	sp!, {r4, lr}
 80043b8:	4718      	bx	r3
 80043ba:	bd10      	pop	{r4, pc}
 80043bc:	0800c250 	.word	0x0800c250
 80043c0:	0800c36b 	.word	0x0800c36b
 80043c4:	0800be06 	.word	0x0800be06

080043c8 <netif_set_link_down>:
 80043c8:	b930      	cbnz	r0, 80043d8 <netif_set_link_down+0x10>
 80043ca:	4b09      	ldr	r3, [pc, #36]	; (80043f0 <netif_set_link_down+0x28>)
 80043cc:	f240 4206 	movw	r2, #1030	; 0x406
 80043d0:	4908      	ldr	r1, [pc, #32]	; (80043f4 <netif_set_link_down+0x2c>)
 80043d2:	4809      	ldr	r0, [pc, #36]	; (80043f8 <netif_set_link_down+0x30>)
 80043d4:	f005 bb76 	b.w	8009ac4 <iprintf>
 80043d8:	f890 202d 	ldrb.w	r2, [r0, #45]	; 0x2d
 80043dc:	0751      	lsls	r1, r2, #29
 80043de:	d506      	bpl.n	80043ee <netif_set_link_down+0x26>
 80043e0:	f022 0204 	bic.w	r2, r2, #4
 80043e4:	69c3      	ldr	r3, [r0, #28]
 80043e6:	f880 202d 	strb.w	r2, [r0, #45]	; 0x2d
 80043ea:	b103      	cbz	r3, 80043ee <netif_set_link_down+0x26>
 80043ec:	4718      	bx	r3
 80043ee:	4770      	bx	lr
 80043f0:	0800c250 	.word	0x0800c250
 80043f4:	0800c38c 	.word	0x0800c38c
 80043f8:	0800be06 	.word	0x0800be06

080043fc <netif_set_link_callback>:
 80043fc:	b100      	cbz	r0, 8004400 <netif_set_link_callback+0x4>
 80043fe:	61c1      	str	r1, [r0, #28]
 8004400:	4770      	bx	lr
	...

08004404 <netif_get_by_index>:
 8004404:	b150      	cbz	r0, 800441c <netif_get_by_index+0x18>
 8004406:	4b06      	ldr	r3, [pc, #24]	; (8004420 <netif_get_by_index+0x1c>)
 8004408:	681b      	ldr	r3, [r3, #0]
 800440a:	b12b      	cbz	r3, 8004418 <netif_get_by_index+0x14>
 800440c:	f893 2030 	ldrb.w	r2, [r3, #48]	; 0x30
 8004410:	3201      	adds	r2, #1
 8004412:	b2d2      	uxtb	r2, r2
 8004414:	4282      	cmp	r2, r0
 8004416:	d1f7      	bne.n	8004408 <netif_get_by_index+0x4>
 8004418:	4618      	mov	r0, r3
 800441a:	4770      	bx	lr
 800441c:	4603      	mov	r3, r0
 800441e:	e7fb      	b.n	8004418 <netif_get_by_index+0x14>
 8004420:	2000aa14 	.word	0x2000aa14

08004424 <pbuf_skip_const>:
 8004424:	b110      	cbz	r0, 800442c <pbuf_skip_const+0x8>
 8004426:	8943      	ldrh	r3, [r0, #10]
 8004428:	428b      	cmp	r3, r1
 800442a:	d902      	bls.n	8004432 <pbuf_skip_const+0xe>
 800442c:	b102      	cbz	r2, 8004430 <pbuf_skip_const+0xc>
 800442e:	8011      	strh	r1, [r2, #0]
 8004430:	4770      	bx	lr
 8004432:	1ac9      	subs	r1, r1, r3
 8004434:	6800      	ldr	r0, [r0, #0]
 8004436:	b289      	uxth	r1, r1
 8004438:	e7f4      	b.n	8004424 <pbuf_skip_const>
	...

0800443c <pbuf_add_header_impl>:
 800443c:	b538      	push	{r3, r4, r5, lr}
 800443e:	b968      	cbnz	r0, 800445c <pbuf_add_header_impl+0x20>
 8004440:	4b14      	ldr	r3, [pc, #80]	; (8004494 <pbuf_add_header_impl+0x58>)
 8004442:	f240 12df 	movw	r2, #479	; 0x1df
 8004446:	4914      	ldr	r1, [pc, #80]	; (8004498 <pbuf_add_header_impl+0x5c>)
 8004448:	4814      	ldr	r0, [pc, #80]	; (800449c <pbuf_add_header_impl+0x60>)
 800444a:	f005 fb3b 	bl	8009ac4 <iprintf>
 800444e:	2001      	movs	r0, #1
 8004450:	e01f      	b.n	8004492 <pbuf_add_header_impl+0x56>
 8004452:	2a00      	cmp	r2, #0
 8004454:	d0fb      	beq.n	800444e <pbuf_add_header_impl+0x12>
 8004456:	6842      	ldr	r2, [r0, #4]
 8004458:	1a51      	subs	r1, r2, r1
 800445a:	e014      	b.n	8004486 <pbuf_add_header_impl+0x4a>
 800445c:	f5b1 3f80 	cmp.w	r1, #65536	; 0x10000
 8004460:	d2f5      	bcs.n	800444e <pbuf_add_header_impl+0x12>
 8004462:	b1a9      	cbz	r1, 8004490 <pbuf_add_header_impl+0x54>
 8004464:	8903      	ldrh	r3, [r0, #8]
 8004466:	b28c      	uxth	r4, r1
 8004468:	fa13 f381 	uxtah	r3, r3, r1
 800446c:	b29b      	uxth	r3, r3
 800446e:	429c      	cmp	r4, r3
 8004470:	d8ed      	bhi.n	800444e <pbuf_add_header_impl+0x12>
 8004472:	f990 500c 	ldrsb.w	r5, [r0, #12]
 8004476:	2d00      	cmp	r5, #0
 8004478:	daeb      	bge.n	8004452 <pbuf_add_header_impl+0x16>
 800447a:	6842      	ldr	r2, [r0, #4]
 800447c:	1a51      	subs	r1, r2, r1
 800447e:	f100 0210 	add.w	r2, r0, #16
 8004482:	4291      	cmp	r1, r2
 8004484:	d3e3      	bcc.n	800444e <pbuf_add_header_impl+0x12>
 8004486:	8942      	ldrh	r2, [r0, #10]
 8004488:	6041      	str	r1, [r0, #4]
 800448a:	4414      	add	r4, r2
 800448c:	8103      	strh	r3, [r0, #8]
 800448e:	8144      	strh	r4, [r0, #10]
 8004490:	2000      	movs	r0, #0
 8004492:	bd38      	pop	{r3, r4, r5, pc}
 8004494:	0800c3af 	.word	0x0800c3af
 8004498:	0800c481 	.word	0x0800c481
 800449c:	0800be06 	.word	0x0800be06

080044a0 <pbuf_free_ooseq>:
 80044a0:	4b06      	ldr	r3, [pc, #24]	; (80044bc <pbuf_free_ooseq+0x1c>)
 80044a2:	2200      	movs	r2, #0
 80044a4:	701a      	strb	r2, [r3, #0]
 80044a6:	4b06      	ldr	r3, [pc, #24]	; (80044c0 <pbuf_free_ooseq+0x20>)
 80044a8:	6818      	ldr	r0, [r3, #0]
 80044aa:	b900      	cbnz	r0, 80044ae <pbuf_free_ooseq+0xe>
 80044ac:	4770      	bx	lr
 80044ae:	6f43      	ldr	r3, [r0, #116]	; 0x74
 80044b0:	b10b      	cbz	r3, 80044b6 <pbuf_free_ooseq+0x16>
 80044b2:	f000 bc51 	b.w	8004d58 <tcp_free_ooseq>
 80044b6:	68c0      	ldr	r0, [r0, #12]
 80044b8:	e7f7      	b.n	80044aa <pbuf_free_ooseq+0xa>
 80044ba:	bf00      	nop
 80044bc:	2000aa19 	.word	0x2000aa19
 80044c0:	2000aa1c 	.word	0x2000aa1c

080044c4 <pbuf_alloc_reference>:
 80044c4:	f022 0340 	bic.w	r3, r2, #64	; 0x40
 80044c8:	2b01      	cmp	r3, #1
 80044ca:	b570      	push	{r4, r5, r6, lr}
 80044cc:	4606      	mov	r6, r0
 80044ce:	460d      	mov	r5, r1
 80044d0:	4614      	mov	r4, r2
 80044d2:	d006      	beq.n	80044e2 <pbuf_alloc_reference+0x1e>
 80044d4:	4b0a      	ldr	r3, [pc, #40]	; (8004500 <pbuf_alloc_reference+0x3c>)
 80044d6:	f44f 72a5 	mov.w	r2, #330	; 0x14a
 80044da:	490a      	ldr	r1, [pc, #40]	; (8004504 <pbuf_alloc_reference+0x40>)
 80044dc:	480a      	ldr	r0, [pc, #40]	; (8004508 <pbuf_alloc_reference+0x44>)
 80044de:	f005 faf1 	bl	8009ac4 <iprintf>
 80044e2:	2007      	movs	r0, #7
 80044e4:	f7ff fdb6 	bl	8004054 <memp_malloc>
 80044e8:	b140      	cbz	r0, 80044fc <pbuf_alloc_reference+0x38>
 80044ea:	2300      	movs	r3, #0
 80044ec:	8105      	strh	r5, [r0, #8]
 80044ee:	8145      	strh	r5, [r0, #10]
 80044f0:	7343      	strb	r3, [r0, #13]
 80044f2:	7304      	strb	r4, [r0, #12]
 80044f4:	e9c0 3600 	strd	r3, r6, [r0]
 80044f8:	2301      	movs	r3, #1
 80044fa:	81c3      	strh	r3, [r0, #14]
 80044fc:	bd70      	pop	{r4, r5, r6, pc}
 80044fe:	bf00      	nop
 8004500:	0800c3af 	.word	0x0800c3af
 8004504:	0800c3df 	.word	0x0800c3df
 8004508:	0800be06 	.word	0x0800be06

0800450c <pbuf_alloced_custom>:
 800450c:	3003      	adds	r0, #3
 800450e:	f020 0003 	bic.w	r0, r0, #3
 8004512:	b570      	push	{r4, r5, r6, lr}
 8004514:	180e      	adds	r6, r1, r0
 8004516:	f8bd 5014 	ldrh.w	r5, [sp, #20]
 800451a:	9c04      	ldr	r4, [sp, #16]
 800451c:	42ae      	cmp	r6, r5
 800451e:	d80d      	bhi.n	800453c <pbuf_alloced_custom+0x30>
 8004520:	b104      	cbz	r4, 8004524 <pbuf_alloced_custom+0x18>
 8004522:	4404      	add	r4, r0
 8004524:	4618      	mov	r0, r3
 8004526:	2300      	movs	r3, #0
 8004528:	e9c0 3400 	strd	r3, r4, [r0]
 800452c:	2302      	movs	r3, #2
 800452e:	8101      	strh	r1, [r0, #8]
 8004530:	8141      	strh	r1, [r0, #10]
 8004532:	7343      	strb	r3, [r0, #13]
 8004534:	2301      	movs	r3, #1
 8004536:	7302      	strb	r2, [r0, #12]
 8004538:	81c3      	strh	r3, [r0, #14]
 800453a:	bd70      	pop	{r4, r5, r6, pc}
 800453c:	2000      	movs	r0, #0
 800453e:	e7fc      	b.n	800453a <pbuf_alloced_custom+0x2e>

08004540 <pbuf_add_header>:
 8004540:	2200      	movs	r2, #0
 8004542:	f7ff bf7b 	b.w	800443c <pbuf_add_header_impl>
	...

08004548 <pbuf_remove_header>:
 8004548:	b510      	push	{r4, lr}
 800454a:	b990      	cbnz	r0, 8004572 <pbuf_remove_header+0x2a>
 800454c:	4b10      	ldr	r3, [pc, #64]	; (8004590 <pbuf_remove_header+0x48>)
 800454e:	f240 224b 	movw	r2, #587	; 0x24b
 8004552:	4910      	ldr	r1, [pc, #64]	; (8004594 <pbuf_remove_header+0x4c>)
 8004554:	4810      	ldr	r0, [pc, #64]	; (8004598 <pbuf_remove_header+0x50>)
 8004556:	f005 fab5 	bl	8009ac4 <iprintf>
 800455a:	2001      	movs	r0, #1
 800455c:	e008      	b.n	8004570 <pbuf_remove_header+0x28>
 800455e:	1a9b      	subs	r3, r3, r2
 8004560:	6844      	ldr	r4, [r0, #4]
 8004562:	8143      	strh	r3, [r0, #10]
 8004564:	440c      	add	r4, r1
 8004566:	8903      	ldrh	r3, [r0, #8]
 8004568:	6044      	str	r4, [r0, #4]
 800456a:	1a9b      	subs	r3, r3, r2
 800456c:	8103      	strh	r3, [r0, #8]
 800456e:	2000      	movs	r0, #0
 8004570:	bd10      	pop	{r4, pc}
 8004572:	f5b1 3f80 	cmp.w	r1, #65536	; 0x10000
 8004576:	d2f0      	bcs.n	800455a <pbuf_remove_header+0x12>
 8004578:	2900      	cmp	r1, #0
 800457a:	d0f8      	beq.n	800456e <pbuf_remove_header+0x26>
 800457c:	b28a      	uxth	r2, r1
 800457e:	8943      	ldrh	r3, [r0, #10]
 8004580:	429a      	cmp	r2, r3
 8004582:	d9ec      	bls.n	800455e <pbuf_remove_header+0x16>
 8004584:	4b02      	ldr	r3, [pc, #8]	; (8004590 <pbuf_remove_header+0x48>)
 8004586:	f240 2255 	movw	r2, #597	; 0x255
 800458a:	4904      	ldr	r1, [pc, #16]	; (800459c <pbuf_remove_header+0x54>)
 800458c:	e7e2      	b.n	8004554 <pbuf_remove_header+0xc>
 800458e:	bf00      	nop
 8004590:	0800c3af 	.word	0x0800c3af
 8004594:	0800c481 	.word	0x0800c481
 8004598:	0800be06 	.word	0x0800be06
 800459c:	0800c3f1 	.word	0x0800c3f1

080045a0 <pbuf_header_force>:
 80045a0:	1e0b      	subs	r3, r1, #0
 80045a2:	da02      	bge.n	80045aa <pbuf_header_force+0xa>
 80045a4:	4259      	negs	r1, r3
 80045a6:	f7ff bfcf 	b.w	8004548 <pbuf_remove_header>
 80045aa:	2201      	movs	r2, #1
 80045ac:	f7ff bf46 	b.w	800443c <pbuf_add_header_impl>

080045b0 <pbuf_free>:
 80045b0:	e92d 43f8 	stmdb	sp!, {r3, r4, r5, r6, r7, r8, r9, lr}
 80045b4:	4604      	mov	r4, r0
 80045b6:	b950      	cbnz	r0, 80045ce <pbuf_free+0x1e>
 80045b8:	4625      	mov	r5, r4
 80045ba:	4b29      	ldr	r3, [pc, #164]	; (8004660 <pbuf_free+0xb0>)
 80045bc:	f44f 7237 	mov.w	r2, #732	; 0x2dc
 80045c0:	4928      	ldr	r1, [pc, #160]	; (8004664 <pbuf_free+0xb4>)
 80045c2:	4829      	ldr	r0, [pc, #164]	; (8004668 <pbuf_free+0xb8>)
 80045c4:	f005 fa7e 	bl	8009ac4 <iprintf>
 80045c8:	4628      	mov	r0, r5
 80045ca:	e8bd 83f8 	ldmia.w	sp!, {r3, r4, r5, r6, r7, r8, r9, pc}
 80045ce:	2500      	movs	r5, #0
 80045d0:	4e23      	ldr	r6, [pc, #140]	; (8004660 <pbuf_free+0xb0>)
 80045d2:	f8df 80a0 	ldr.w	r8, [pc, #160]	; 8004674 <pbuf_free+0xc4>
 80045d6:	4f24      	ldr	r7, [pc, #144]	; (8004668 <pbuf_free+0xb8>)
 80045d8:	7ba3      	ldrb	r3, [r4, #14]
 80045da:	b933      	cbnz	r3, 80045ea <pbuf_free+0x3a>
 80045dc:	4633      	mov	r3, r6
 80045de:	f240 22f1 	movw	r2, #753	; 0x2f1
 80045e2:	4641      	mov	r1, r8
 80045e4:	4638      	mov	r0, r7
 80045e6:	f005 fa6d 	bl	8009ac4 <iprintf>
 80045ea:	7ba3      	ldrb	r3, [r4, #14]
 80045ec:	3b01      	subs	r3, #1
 80045ee:	b2db      	uxtb	r3, r3
 80045f0:	73a3      	strb	r3, [r4, #14]
 80045f2:	2b00      	cmp	r3, #0
 80045f4:	d1e8      	bne.n	80045c8 <pbuf_free+0x18>
 80045f6:	7b62      	ldrb	r2, [r4, #13]
 80045f8:	f8d4 9000 	ldr.w	r9, [r4]
 80045fc:	0792      	lsls	r2, r2, #30
 80045fe:	7b23      	ldrb	r3, [r4, #12]
 8004600:	d512      	bpl.n	8004628 <pbuf_free+0x78>
 8004602:	6923      	ldr	r3, [r4, #16]
 8004604:	b933      	cbnz	r3, 8004614 <pbuf_free+0x64>
 8004606:	4633      	mov	r3, r6
 8004608:	f240 22ff 	movw	r2, #767	; 0x2ff
 800460c:	4917      	ldr	r1, [pc, #92]	; (800466c <pbuf_free+0xbc>)
 800460e:	4638      	mov	r0, r7
 8004610:	f005 fa58 	bl	8009ac4 <iprintf>
 8004614:	6923      	ldr	r3, [r4, #16]
 8004616:	4620      	mov	r0, r4
 8004618:	4798      	blx	r3
 800461a:	3501      	adds	r5, #1
 800461c:	b2ed      	uxtb	r5, r5
 800461e:	f1b9 0f00 	cmp.w	r9, #0
 8004622:	d0d1      	beq.n	80045c8 <pbuf_free+0x18>
 8004624:	464c      	mov	r4, r9
 8004626:	e7d7      	b.n	80045d8 <pbuf_free+0x28>
 8004628:	f003 030f 	and.w	r3, r3, #15
 800462c:	2b02      	cmp	r3, #2
 800462e:	d104      	bne.n	800463a <pbuf_free+0x8a>
 8004630:	4621      	mov	r1, r4
 8004632:	2008      	movs	r0, #8
 8004634:	f7ff fd3e 	bl	80040b4 <memp_free>
 8004638:	e7ef      	b.n	800461a <pbuf_free+0x6a>
 800463a:	2b01      	cmp	r3, #1
 800463c:	d102      	bne.n	8004644 <pbuf_free+0x94>
 800463e:	4621      	mov	r1, r4
 8004640:	2007      	movs	r0, #7
 8004642:	e7f7      	b.n	8004634 <pbuf_free+0x84>
 8004644:	b91b      	cbnz	r3, 800464e <pbuf_free+0x9e>
 8004646:	4620      	mov	r0, r4
 8004648:	f7ff fa9e 	bl	8003b88 <mem_free>
 800464c:	e7e5      	b.n	800461a <pbuf_free+0x6a>
 800464e:	4633      	mov	r3, r6
 8004650:	f240 320f 	movw	r2, #783	; 0x30f
 8004654:	4906      	ldr	r1, [pc, #24]	; (8004670 <pbuf_free+0xc0>)
 8004656:	4638      	mov	r0, r7
 8004658:	f005 fa34 	bl	8009ac4 <iprintf>
 800465c:	e7dd      	b.n	800461a <pbuf_free+0x6a>
 800465e:	bf00      	nop
 8004660:	0800c3af 	.word	0x0800c3af
 8004664:	0800c481 	.word	0x0800c481
 8004668:	0800be06 	.word	0x0800be06
 800466c:	0800c425 	.word	0x0800c425
 8004670:	0800c446 	.word	0x0800c446
 8004674:	0800c40f 	.word	0x0800c40f

08004678 <pbuf_alloc>:
 8004678:	f5b2 7fc1 	cmp.w	r2, #386	; 0x182
 800467c:	e92d 47f0 	stmdb	sp!, {r4, r5, r6, r7, r8, r9, sl, lr}
 8004680:	4606      	mov	r6, r0
 8004682:	460f      	mov	r7, r1
 8004684:	b284      	uxth	r4, r0
 8004686:	d014      	beq.n	80046b2 <pbuf_alloc+0x3a>
 8004688:	d808      	bhi.n	800469c <pbuf_alloc+0x24>
 800468a:	f022 0340 	bic.w	r3, r2, #64	; 0x40
 800468e:	2b01      	cmp	r3, #1
 8004690:	d107      	bne.n	80046a2 <pbuf_alloc+0x2a>
 8004692:	2000      	movs	r0, #0
 8004694:	e8bd 47f0 	ldmia.w	sp!, {r4, r5, r6, r7, r8, r9, sl, lr}
 8004698:	f7ff bf14 	b.w	80044c4 <pbuf_alloc_reference>
 800469c:	f5b2 7f20 	cmp.w	r2, #640	; 0x280
 80046a0:	d03d      	beq.n	800471e <pbuf_alloc+0xa6>
 80046a2:	4b2f      	ldr	r3, [pc, #188]	; (8004760 <pbuf_alloc+0xe8>)
 80046a4:	f240 1227 	movw	r2, #295	; 0x127
 80046a8:	492e      	ldr	r1, [pc, #184]	; (8004764 <pbuf_alloc+0xec>)
 80046aa:	482f      	ldr	r0, [pc, #188]	; (8004768 <pbuf_alloc+0xf0>)
 80046ac:	f005 fa0a 	bl	8009ac4 <iprintf>
 80046b0:	e00e      	b.n	80046d0 <pbuf_alloc+0x58>
 80046b2:	2600      	movs	r6, #0
 80046b4:	f8df 90bc 	ldr.w	r9, [pc, #188]	; 8004774 <pbuf_alloc+0xfc>
 80046b8:	4635      	mov	r5, r6
 80046ba:	46b0      	mov	r8, r6
 80046bc:	2008      	movs	r0, #8
 80046be:	46b2      	mov	sl, r6
 80046c0:	f7ff fcc8 	bl	8004054 <memp_malloc>
 80046c4:	4606      	mov	r6, r0
 80046c6:	b948      	cbnz	r0, 80046dc <pbuf_alloc+0x64>
 80046c8:	4b28      	ldr	r3, [pc, #160]	; (800476c <pbuf_alloc+0xf4>)
 80046ca:	2201      	movs	r2, #1
 80046cc:	701a      	strb	r2, [r3, #0]
 80046ce:	b90d      	cbnz	r5, 80046d4 <pbuf_alloc+0x5c>
 80046d0:	2500      	movs	r5, #0
 80046d2:	e01f      	b.n	8004714 <pbuf_alloc+0x9c>
 80046d4:	4628      	mov	r0, r5
 80046d6:	f7ff ff6b 	bl	80045b0 <pbuf_free>
 80046da:	e7f9      	b.n	80046d0 <pbuf_alloc+0x58>
 80046dc:	1ce3      	adds	r3, r4, #3
 80046de:	4404      	add	r4, r0
 80046e0:	f8c0 8000 	str.w	r8, [r0]
 80046e4:	f023 0303 	bic.w	r3, r3, #3
 80046e8:	3413      	adds	r4, #19
 80046ea:	8107      	strh	r7, [r0, #8]
 80046ec:	f5c3 7314 	rsb	r3, r3, #592	; 0x250
 80046f0:	f024 0403 	bic.w	r4, r4, #3
 80046f4:	f8c0 900c 	str.w	r9, [r0, #12]
 80046f8:	b29b      	uxth	r3, r3
 80046fa:	6044      	str	r4, [r0, #4]
 80046fc:	42bb      	cmp	r3, r7
 80046fe:	bf28      	it	cs
 8004700:	463b      	movcs	r3, r7
 8004702:	8143      	strh	r3, [r0, #10]
 8004704:	b14d      	cbz	r5, 800471a <pbuf_alloc+0xa2>
 8004706:	f8ca 0000 	str.w	r0, [sl]
 800470a:	1af9      	subs	r1, r7, r3
 800470c:	2400      	movs	r4, #0
 800470e:	b28f      	uxth	r7, r1
 8004710:	2f00      	cmp	r7, #0
 8004712:	d1d3      	bne.n	80046bc <pbuf_alloc+0x44>
 8004714:	4628      	mov	r0, r5
 8004716:	e8bd 87f0 	ldmia.w	sp!, {r4, r5, r6, r7, r8, r9, sl, pc}
 800471a:	4605      	mov	r5, r0
 800471c:	e7f5      	b.n	800470a <pbuf_alloc+0x92>
 800471e:	3403      	adds	r4, #3
 8004720:	1ccb      	adds	r3, r1, #3
 8004722:	f024 0403 	bic.w	r4, r4, #3
 8004726:	f023 0303 	bic.w	r3, r3, #3
 800472a:	441c      	add	r4, r3
 800472c:	b2a4      	uxth	r4, r4
 800472e:	f104 0010 	add.w	r0, r4, #16
 8004732:	429c      	cmp	r4, r3
 8004734:	b280      	uxth	r0, r0
 8004736:	d3cb      	bcc.n	80046d0 <pbuf_alloc+0x58>
 8004738:	4283      	cmp	r3, r0
 800473a:	d8c9      	bhi.n	80046d0 <pbuf_alloc+0x58>
 800473c:	f7ff fb80 	bl	8003e40 <mem_malloc>
 8004740:	4605      	mov	r5, r0
 8004742:	2800      	cmp	r0, #0
 8004744:	d0e6      	beq.n	8004714 <pbuf_alloc+0x9c>
 8004746:	4406      	add	r6, r0
 8004748:	2300      	movs	r3, #0
 800474a:	8107      	strh	r7, [r0, #8]
 800474c:	3613      	adds	r6, #19
 800474e:	6003      	str	r3, [r0, #0]
 8004750:	4b07      	ldr	r3, [pc, #28]	; (8004770 <pbuf_alloc+0xf8>)
 8004752:	f026 0603 	bic.w	r6, r6, #3
 8004756:	8147      	strh	r7, [r0, #10]
 8004758:	60c3      	str	r3, [r0, #12]
 800475a:	6046      	str	r6, [r0, #4]
 800475c:	e7da      	b.n	8004714 <pbuf_alloc+0x9c>
 800475e:	bf00      	nop
 8004760:	0800c3af 	.word	0x0800c3af
 8004764:	0800c458 	.word	0x0800c458
 8004768:	0800be06 	.word	0x0800be06
 800476c:	2000aa19 	.word	0x2000aa19
 8004770:	00010080 	.word	0x00010080
 8004774:	00010082 	.word	0x00010082

08004778 <pbuf_realloc>:
 8004778:	e92d 47f0 	stmdb	sp!, {r4, r5, r6, r7, r8, r9, sl, lr}
 800477c:	460e      	mov	r6, r1
 800477e:	4604      	mov	r4, r0
 8004780:	b930      	cbnz	r0, 8004790 <pbuf_realloc+0x18>
 8004782:	4b24      	ldr	r3, [pc, #144]	; (8004814 <pbuf_realloc+0x9c>)
 8004784:	f44f 72cc 	mov.w	r2, #408	; 0x198
 8004788:	4923      	ldr	r1, [pc, #140]	; (8004818 <pbuf_realloc+0xa0>)
 800478a:	4824      	ldr	r0, [pc, #144]	; (800481c <pbuf_realloc+0xa4>)
 800478c:	f005 f99a 	bl	8009ac4 <iprintf>
 8004790:	8927      	ldrh	r7, [r4, #8]
 8004792:	42b7      	cmp	r7, r6
 8004794:	d93c      	bls.n	8004810 <pbuf_realloc+0x98>
 8004796:	4635      	mov	r5, r6
 8004798:	f8df 8078 	ldr.w	r8, [pc, #120]	; 8004814 <pbuf_realloc+0x9c>
 800479c:	f8df a084 	ldr.w	sl, [pc, #132]	; 8004824 <pbuf_realloc+0xac>
 80047a0:	f8df 9078 	ldr.w	r9, [pc, #120]	; 800481c <pbuf_realloc+0xa4>
 80047a4:	8962      	ldrh	r2, [r4, #10]
 80047a6:	42aa      	cmp	r2, r5
 80047a8:	d319      	bcc.n	80047de <pbuf_realloc+0x66>
 80047aa:	7b23      	ldrb	r3, [r4, #12]
 80047ac:	0719      	lsls	r1, r3, #28
 80047ae:	d127      	bne.n	8004800 <pbuf_realloc+0x88>
 80047b0:	42aa      	cmp	r2, r5
 80047b2:	d025      	beq.n	8004800 <pbuf_realloc+0x88>
 80047b4:	7b63      	ldrb	r3, [r4, #13]
 80047b6:	079b      	lsls	r3, r3, #30
 80047b8:	d422      	bmi.n	8004800 <pbuf_realloc+0x88>
 80047ba:	6861      	ldr	r1, [r4, #4]
 80047bc:	4620      	mov	r0, r4
 80047be:	1b09      	subs	r1, r1, r4
 80047c0:	4429      	add	r1, r5
 80047c2:	b289      	uxth	r1, r1
 80047c4:	f7ff fa98 	bl	8003cf8 <mem_trim>
 80047c8:	4604      	mov	r4, r0
 80047ca:	b9c8      	cbnz	r0, 8004800 <pbuf_realloc+0x88>
 80047cc:	4b11      	ldr	r3, [pc, #68]	; (8004814 <pbuf_realloc+0x9c>)
 80047ce:	f240 12bd 	movw	r2, #445	; 0x1bd
 80047d2:	4913      	ldr	r1, [pc, #76]	; (8004820 <pbuf_realloc+0xa8>)
 80047d4:	4811      	ldr	r0, [pc, #68]	; (800481c <pbuf_realloc+0xa4>)
 80047d6:	f005 f975 	bl	8009ac4 <iprintf>
 80047da:	8164      	strh	r4, [r4, #10]
 80047dc:	deff      	udf	#255	; 0xff
 80047de:	1aaa      	subs	r2, r5, r2
 80047e0:	1bf3      	subs	r3, r6, r7
 80047e2:	b295      	uxth	r5, r2
 80047e4:	8922      	ldrh	r2, [r4, #8]
 80047e6:	4413      	add	r3, r2
 80047e8:	8123      	strh	r3, [r4, #8]
 80047ea:	6824      	ldr	r4, [r4, #0]
 80047ec:	2c00      	cmp	r4, #0
 80047ee:	d1d9      	bne.n	80047a4 <pbuf_realloc+0x2c>
 80047f0:	4643      	mov	r3, r8
 80047f2:	f240 12af 	movw	r2, #431	; 0x1af
 80047f6:	4651      	mov	r1, sl
 80047f8:	4648      	mov	r0, r9
 80047fa:	f005 f963 	bl	8009ac4 <iprintf>
 80047fe:	e7d1      	b.n	80047a4 <pbuf_realloc+0x2c>
 8004800:	6820      	ldr	r0, [r4, #0]
 8004802:	8165      	strh	r5, [r4, #10]
 8004804:	8125      	strh	r5, [r4, #8]
 8004806:	b108      	cbz	r0, 800480c <pbuf_realloc+0x94>
 8004808:	f7ff fed2 	bl	80045b0 <pbuf_free>
 800480c:	2300      	movs	r3, #0
 800480e:	6023      	str	r3, [r4, #0]
 8004810:	e8bd 87f0 	ldmia.w	sp!, {r4, r5, r6, r7, r8, r9, sl, pc}
 8004814:	0800c3af 	.word	0x0800c3af
 8004818:	0800c473 	.word	0x0800c473
 800481c:	0800be06 	.word	0x0800be06
 8004820:	0800c4a3 	.word	0x0800c4a3
 8004824:	0800c48b 	.word	0x0800c48b

08004828 <pbuf_clen>:
 8004828:	4603      	mov	r3, r0
 800482a:	2200      	movs	r2, #0
 800482c:	b290      	uxth	r0, r2
 800482e:	3201      	adds	r2, #1
 8004830:	b903      	cbnz	r3, 8004834 <pbuf_clen+0xc>
 8004832:	4770      	bx	lr
 8004834:	681b      	ldr	r3, [r3, #0]
 8004836:	e7f9      	b.n	800482c <pbuf_clen+0x4>

08004838 <pbuf_ref>:
 8004838:	b158      	cbz	r0, 8004852 <pbuf_ref+0x1a>
 800483a:	7b83      	ldrb	r3, [r0, #14]
 800483c:	3301      	adds	r3, #1
 800483e:	b2db      	uxtb	r3, r3
 8004840:	7383      	strb	r3, [r0, #14]
 8004842:	b933      	cbnz	r3, 8004852 <pbuf_ref+0x1a>
 8004844:	4b03      	ldr	r3, [pc, #12]	; (8004854 <pbuf_ref+0x1c>)
 8004846:	f240 3242 	movw	r2, #834	; 0x342
 800484a:	4903      	ldr	r1, [pc, #12]	; (8004858 <pbuf_ref+0x20>)
 800484c:	4803      	ldr	r0, [pc, #12]	; (800485c <pbuf_ref+0x24>)
 800484e:	f005 b939 	b.w	8009ac4 <iprintf>
 8004852:	4770      	bx	lr
 8004854:	0800c3af 	.word	0x0800c3af
 8004858:	0800c4bf 	.word	0x0800c4bf
 800485c:	0800be06 	.word	0x0800be06

08004860 <pbuf_cat>:
 8004860:	b570      	push	{r4, r5, r6, lr}
 8004862:	460d      	mov	r5, r1
 8004864:	4604      	mov	r4, r0
 8004866:	b100      	cbz	r0, 800486a <pbuf_cat+0xa>
 8004868:	b961      	cbnz	r1, 8004884 <pbuf_cat+0x24>
 800486a:	4b15      	ldr	r3, [pc, #84]	; (80048c0 <pbuf_cat+0x60>)
 800486c:	f240 3259 	movw	r2, #857	; 0x359
 8004870:	4914      	ldr	r1, [pc, #80]	; (80048c4 <pbuf_cat+0x64>)
 8004872:	4815      	ldr	r0, [pc, #84]	; (80048c8 <pbuf_cat+0x68>)
 8004874:	e8bd 4070 	ldmia.w	sp!, {r4, r5, r6, lr}
 8004878:	f005 b924 	b.w	8009ac4 <iprintf>
 800487c:	8929      	ldrh	r1, [r5, #8]
 800487e:	440b      	add	r3, r1
 8004880:	8123      	strh	r3, [r4, #8]
 8004882:	4614      	mov	r4, r2
 8004884:	6822      	ldr	r2, [r4, #0]
 8004886:	8923      	ldrh	r3, [r4, #8]
 8004888:	2a00      	cmp	r2, #0
 800488a:	d1f7      	bne.n	800487c <pbuf_cat+0x1c>
 800488c:	8962      	ldrh	r2, [r4, #10]
 800488e:	429a      	cmp	r2, r3
 8004890:	d00f      	beq.n	80048b2 <pbuf_cat+0x52>
 8004892:	4b0b      	ldr	r3, [pc, #44]	; (80048c0 <pbuf_cat+0x60>)
 8004894:	f240 3262 	movw	r2, #866	; 0x362
 8004898:	490c      	ldr	r1, [pc, #48]	; (80048cc <pbuf_cat+0x6c>)
 800489a:	480b      	ldr	r0, [pc, #44]	; (80048c8 <pbuf_cat+0x68>)
 800489c:	f005 f912 	bl	8009ac4 <iprintf>
 80048a0:	6823      	ldr	r3, [r4, #0]
 80048a2:	b133      	cbz	r3, 80048b2 <pbuf_cat+0x52>
 80048a4:	4b06      	ldr	r3, [pc, #24]	; (80048c0 <pbuf_cat+0x60>)
 80048a6:	f240 3263 	movw	r2, #867	; 0x363
 80048aa:	4909      	ldr	r1, [pc, #36]	; (80048d0 <pbuf_cat+0x70>)
 80048ac:	4806      	ldr	r0, [pc, #24]	; (80048c8 <pbuf_cat+0x68>)
 80048ae:	f005 f909 	bl	8009ac4 <iprintf>
 80048b2:	892a      	ldrh	r2, [r5, #8]
 80048b4:	8923      	ldrh	r3, [r4, #8]
 80048b6:	6025      	str	r5, [r4, #0]
 80048b8:	4413      	add	r3, r2
 80048ba:	8123      	strh	r3, [r4, #8]
 80048bc:	bd70      	pop	{r4, r5, r6, pc}
 80048be:	bf00      	nop
 80048c0:	0800c3af 	.word	0x0800c3af
 80048c4:	0800c4d1 	.word	0x0800c4d1
 80048c8:	0800be06 	.word	0x0800be06
 80048cc:	0800c506 	.word	0x0800c506
 80048d0:	0800c533 	.word	0x0800c533

080048d4 <pbuf_chain>:
 80048d4:	b510      	push	{r4, lr}
 80048d6:	460c      	mov	r4, r1
 80048d8:	f7ff ffc2 	bl	8004860 <pbuf_cat>
 80048dc:	4620      	mov	r0, r4
 80048de:	e8bd 4010 	ldmia.w	sp!, {r4, lr}
 80048e2:	f7ff bfa9 	b.w	8004838 <pbuf_ref>
	...

080048e8 <pbuf_copy>:
 80048e8:	e92d 4ff8 	stmdb	sp!, {r3, r4, r5, r6, r7, r8, r9, sl, fp, lr}
 80048ec:	460c      	mov	r4, r1
 80048ee:	4605      	mov	r5, r0
 80048f0:	b120      	cbz	r0, 80048fc <pbuf_copy+0x14>
 80048f2:	b119      	cbz	r1, 80048fc <pbuf_copy+0x14>
 80048f4:	8902      	ldrh	r2, [r0, #8]
 80048f6:	890b      	ldrh	r3, [r1, #8]
 80048f8:	429a      	cmp	r2, r3
 80048fa:	d20a      	bcs.n	8004912 <pbuf_copy+0x2a>
 80048fc:	4b34      	ldr	r3, [pc, #208]	; (80049d0 <pbuf_copy+0xe8>)
 80048fe:	f240 32c9 	movw	r2, #969	; 0x3c9
 8004902:	4934      	ldr	r1, [pc, #208]	; (80049d4 <pbuf_copy+0xec>)
 8004904:	4834      	ldr	r0, [pc, #208]	; (80049d8 <pbuf_copy+0xf0>)
 8004906:	f005 f8dd 	bl	8009ac4 <iprintf>
 800490a:	f06f 000f 	mvn.w	r0, #15
 800490e:	e8bd 8ff8 	ldmia.w	sp!, {r3, r4, r5, r6, r7, r8, r9, sl, fp, pc}
 8004912:	2600      	movs	r6, #0
 8004914:	f8df b0b8 	ldr.w	fp, [pc, #184]	; 80049d0 <pbuf_copy+0xe8>
 8004918:	f8df a0cc 	ldr.w	sl, [pc, #204]	; 80049e8 <pbuf_copy+0x100>
 800491c:	4637      	mov	r7, r6
 800491e:	f8df 90b8 	ldr.w	r9, [pc, #184]	; 80049d8 <pbuf_copy+0xf0>
 8004922:	f8b5 800a 	ldrh.w	r8, [r5, #10]
 8004926:	8963      	ldrh	r3, [r4, #10]
 8004928:	eba8 0807 	sub.w	r8, r8, r7
 800492c:	6868      	ldr	r0, [r5, #4]
 800492e:	1b9b      	subs	r3, r3, r6
 8004930:	6861      	ldr	r1, [r4, #4]
 8004932:	4438      	add	r0, r7
 8004934:	4598      	cmp	r8, r3
 8004936:	4431      	add	r1, r6
 8004938:	bf28      	it	cs
 800493a:	4698      	movcs	r8, r3
 800493c:	4642      	mov	r2, r8
 800493e:	4447      	add	r7, r8
 8004940:	f005 ff09 	bl	800a756 <memcpy>
 8004944:	896b      	ldrh	r3, [r5, #10]
 8004946:	4446      	add	r6, r8
 8004948:	429f      	cmp	r7, r3
 800494a:	d906      	bls.n	800495a <pbuf_copy+0x72>
 800494c:	465b      	mov	r3, fp
 800494e:	f240 32d9 	movw	r2, #985	; 0x3d9
 8004952:	4651      	mov	r1, sl
 8004954:	4648      	mov	r0, r9
 8004956:	f005 f8b5 	bl	8009ac4 <iprintf>
 800495a:	8963      	ldrh	r3, [r4, #10]
 800495c:	429e      	cmp	r6, r3
 800495e:	d906      	bls.n	800496e <pbuf_copy+0x86>
 8004960:	465b      	mov	r3, fp
 8004962:	f240 32da 	movw	r2, #986	; 0x3da
 8004966:	491d      	ldr	r1, [pc, #116]	; (80049dc <pbuf_copy+0xf4>)
 8004968:	4648      	mov	r0, r9
 800496a:	f005 f8ab 	bl	8009ac4 <iprintf>
 800496e:	8963      	ldrh	r3, [r4, #10]
 8004970:	429e      	cmp	r6, r3
 8004972:	896b      	ldrh	r3, [r5, #10]
 8004974:	bf24      	itt	cs
 8004976:	6824      	ldrcs	r4, [r4, #0]
 8004978:	2600      	movcs	r6, #0
 800497a:	429f      	cmp	r7, r3
 800497c:	d108      	bne.n	8004990 <pbuf_copy+0xa8>
 800497e:	682d      	ldr	r5, [r5, #0]
 8004980:	b92d      	cbnz	r5, 800498e <pbuf_copy+0xa6>
 8004982:	b314      	cbz	r4, 80049ca <pbuf_copy+0xe2>
 8004984:	4b12      	ldr	r3, [pc, #72]	; (80049d0 <pbuf_copy+0xe8>)
 8004986:	f44f 7279 	mov.w	r2, #996	; 0x3e4
 800498a:	4915      	ldr	r1, [pc, #84]	; (80049e0 <pbuf_copy+0xf8>)
 800498c:	e7ba      	b.n	8004904 <pbuf_copy+0x1c>
 800498e:	2700      	movs	r7, #0
 8004990:	b17c      	cbz	r4, 80049b2 <pbuf_copy+0xca>
 8004992:	8962      	ldrh	r2, [r4, #10]
 8004994:	8923      	ldrh	r3, [r4, #8]
 8004996:	429a      	cmp	r2, r3
 8004998:	d10b      	bne.n	80049b2 <pbuf_copy+0xca>
 800499a:	6823      	ldr	r3, [r4, #0]
 800499c:	b14b      	cbz	r3, 80049b2 <pbuf_copy+0xca>
 800499e:	4b0c      	ldr	r3, [pc, #48]	; (80049d0 <pbuf_copy+0xe8>)
 80049a0:	f240 32e9 	movw	r2, #1001	; 0x3e9
 80049a4:	490f      	ldr	r1, [pc, #60]	; (80049e4 <pbuf_copy+0xfc>)
 80049a6:	480c      	ldr	r0, [pc, #48]	; (80049d8 <pbuf_copy+0xf0>)
 80049a8:	f005 f88c 	bl	8009ac4 <iprintf>
 80049ac:	f06f 0005 	mvn.w	r0, #5
 80049b0:	e7ad      	b.n	800490e <pbuf_copy+0x26>
 80049b2:	896a      	ldrh	r2, [r5, #10]
 80049b4:	892b      	ldrh	r3, [r5, #8]
 80049b6:	429a      	cmp	r2, r3
 80049b8:	d105      	bne.n	80049c6 <pbuf_copy+0xde>
 80049ba:	682b      	ldr	r3, [r5, #0]
 80049bc:	b11b      	cbz	r3, 80049c6 <pbuf_copy+0xde>
 80049be:	4b04      	ldr	r3, [pc, #16]	; (80049d0 <pbuf_copy+0xe8>)
 80049c0:	f240 32ee 	movw	r2, #1006	; 0x3ee
 80049c4:	e7ee      	b.n	80049a4 <pbuf_copy+0xbc>
 80049c6:	2c00      	cmp	r4, #0
 80049c8:	d1ab      	bne.n	8004922 <pbuf_copy+0x3a>
 80049ca:	4620      	mov	r0, r4
 80049cc:	e79f      	b.n	800490e <pbuf_copy+0x26>
 80049ce:	bf00      	nop
 80049d0:	0800c3af 	.word	0x0800c3af
 80049d4:	0800c543 	.word	0x0800c543
 80049d8:	0800be06 	.word	0x0800be06
 80049dc:	0800c58a 	.word	0x0800c58a
 80049e0:	0800c5a5 	.word	0x0800c5a5
 80049e4:	0800c5b2 	.word	0x0800c5b2
 80049e8:	0800c573 	.word	0x0800c573

080049ec <pbuf_copy_partial>:
 80049ec:	e92d 41f0 	stmdb	sp!, {r4, r5, r6, r7, r8, lr}
 80049f0:	460f      	mov	r7, r1
 80049f2:	4690      	mov	r8, r2
 80049f4:	4605      	mov	r5, r0
 80049f6:	b950      	cbnz	r0, 8004a0e <pbuf_copy_partial+0x22>
 80049f8:	462e      	mov	r6, r5
 80049fa:	4b1b      	ldr	r3, [pc, #108]	; (8004a68 <pbuf_copy_partial+0x7c>)
 80049fc:	f240 420a 	movw	r2, #1034	; 0x40a
 8004a00:	491a      	ldr	r1, [pc, #104]	; (8004a6c <pbuf_copy_partial+0x80>)
 8004a02:	481b      	ldr	r0, [pc, #108]	; (8004a70 <pbuf_copy_partial+0x84>)
 8004a04:	f005 f85e 	bl	8009ac4 <iprintf>
 8004a08:	4630      	mov	r0, r6
 8004a0a:	e8bd 81f0 	ldmia.w	sp!, {r4, r5, r6, r7, r8, pc}
 8004a0e:	bb41      	cbnz	r1, 8004a62 <pbuf_copy_partial+0x76>
 8004a10:	4b15      	ldr	r3, [pc, #84]	; (8004a68 <pbuf_copy_partial+0x7c>)
 8004a12:	f240 420b 	movw	r2, #1035	; 0x40b
 8004a16:	4917      	ldr	r1, [pc, #92]	; (8004a74 <pbuf_copy_partial+0x88>)
 8004a18:	463e      	mov	r6, r7
 8004a1a:	4815      	ldr	r0, [pc, #84]	; (8004a70 <pbuf_copy_partial+0x84>)
 8004a1c:	f005 f852 	bl	8009ac4 <iprintf>
 8004a20:	e7f2      	b.n	8004a08 <pbuf_copy_partial+0x1c>
 8004a22:	896c      	ldrh	r4, [r5, #10]
 8004a24:	b153      	cbz	r3, 8004a3c <pbuf_copy_partial+0x50>
 8004a26:	42a3      	cmp	r3, r4
 8004a28:	d308      	bcc.n	8004a3c <pbuf_copy_partial+0x50>
 8004a2a:	1b1b      	subs	r3, r3, r4
 8004a2c:	b29b      	uxth	r3, r3
 8004a2e:	682d      	ldr	r5, [r5, #0]
 8004a30:	f1b8 0f00 	cmp.w	r8, #0
 8004a34:	d0e8      	beq.n	8004a08 <pbuf_copy_partial+0x1c>
 8004a36:	2d00      	cmp	r5, #0
 8004a38:	d1f3      	bne.n	8004a22 <pbuf_copy_partial+0x36>
 8004a3a:	e7e5      	b.n	8004a08 <pbuf_copy_partial+0x1c>
 8004a3c:	1ae4      	subs	r4, r4, r3
 8004a3e:	6869      	ldr	r1, [r5, #4]
 8004a40:	19b8      	adds	r0, r7, r6
 8004a42:	b2a4      	uxth	r4, r4
 8004a44:	4419      	add	r1, r3
 8004a46:	4544      	cmp	r4, r8
 8004a48:	bf28      	it	cs
 8004a4a:	4644      	movcs	r4, r8
 8004a4c:	4622      	mov	r2, r4
 8004a4e:	4426      	add	r6, r4
 8004a50:	f005 fe81 	bl	800a756 <memcpy>
 8004a54:	eba8 0204 	sub.w	r2, r8, r4
 8004a58:	b2b6      	uxth	r6, r6
 8004a5a:	2300      	movs	r3, #0
 8004a5c:	fa1f f882 	uxth.w	r8, r2
 8004a60:	e7e5      	b.n	8004a2e <pbuf_copy_partial+0x42>
 8004a62:	2600      	movs	r6, #0
 8004a64:	e7e4      	b.n	8004a30 <pbuf_copy_partial+0x44>
 8004a66:	bf00      	nop
 8004a68:	0800c3af 	.word	0x0800c3af
 8004a6c:	0800c5dc 	.word	0x0800c5dc
 8004a70:	0800be06 	.word	0x0800be06
 8004a74:	0800c5fb 	.word	0x0800c5fb

08004a78 <pbuf_clone>:
 8004a78:	b538      	push	{r3, r4, r5, lr}
 8004a7a:	4615      	mov	r5, r2
 8004a7c:	460a      	mov	r2, r1
 8004a7e:	8929      	ldrh	r1, [r5, #8]
 8004a80:	f7ff fdfa 	bl	8004678 <pbuf_alloc>
 8004a84:	4604      	mov	r4, r0
 8004a86:	b150      	cbz	r0, 8004a9e <pbuf_clone+0x26>
 8004a88:	4629      	mov	r1, r5
 8004a8a:	f7ff ff2d 	bl	80048e8 <pbuf_copy>
 8004a8e:	b130      	cbz	r0, 8004a9e <pbuf_clone+0x26>
 8004a90:	4b04      	ldr	r3, [pc, #16]	; (8004aa4 <pbuf_clone+0x2c>)
 8004a92:	f240 5224 	movw	r2, #1316	; 0x524
 8004a96:	4904      	ldr	r1, [pc, #16]	; (8004aa8 <pbuf_clone+0x30>)
 8004a98:	4804      	ldr	r0, [pc, #16]	; (8004aac <pbuf_clone+0x34>)
 8004a9a:	f005 f813 	bl	8009ac4 <iprintf>
 8004a9e:	4620      	mov	r0, r4
 8004aa0:	bd38      	pop	{r3, r4, r5, pc}
 8004aa2:	bf00      	nop
 8004aa4:	0800c3af 	.word	0x0800c3af
 8004aa8:	0800c61e 	.word	0x0800c61e
 8004aac:	0800be06 	.word	0x0800be06

08004ab0 <pbuf_try_get_at>:
 8004ab0:	b507      	push	{r0, r1, r2, lr}
 8004ab2:	f10d 0206 	add.w	r2, sp, #6
 8004ab6:	f7ff fcb5 	bl	8004424 <pbuf_skip_const>
 8004aba:	b148      	cbz	r0, 8004ad0 <pbuf_try_get_at+0x20>
 8004abc:	f8bd 3006 	ldrh.w	r3, [sp, #6]
 8004ac0:	8942      	ldrh	r2, [r0, #10]
 8004ac2:	429a      	cmp	r2, r3
 8004ac4:	d904      	bls.n	8004ad0 <pbuf_try_get_at+0x20>
 8004ac6:	6842      	ldr	r2, [r0, #4]
 8004ac8:	5cd0      	ldrb	r0, [r2, r3]
 8004aca:	b003      	add	sp, #12
 8004acc:	f85d fb04 	ldr.w	pc, [sp], #4
 8004ad0:	f04f 30ff 	mov.w	r0, #4294967295
 8004ad4:	e7f9      	b.n	8004aca <pbuf_try_get_at+0x1a>

08004ad6 <pbuf_get_at>:
 8004ad6:	b508      	push	{r3, lr}
 8004ad8:	f7ff ffea 	bl	8004ab0 <pbuf_try_get_at>
 8004adc:	ea20 70e0 	bic.w	r0, r0, r0, asr #31
 8004ae0:	b2c0      	uxtb	r0, r0
 8004ae2:	bd08      	pop	{r3, pc}

08004ae4 <tcp_close_shutdown_fin>:
 8004ae4:	b510      	push	{r4, lr}
 8004ae6:	4604      	mov	r4, r0
 8004ae8:	b930      	cbnz	r0, 8004af8 <tcp_close_shutdown_fin+0x14>
 8004aea:	4b13      	ldr	r3, [pc, #76]	; (8004b38 <tcp_close_shutdown_fin+0x54>)
 8004aec:	f44f 72ce 	mov.w	r2, #412	; 0x19c
 8004af0:	4912      	ldr	r1, [pc, #72]	; (8004b3c <tcp_close_shutdown_fin+0x58>)
 8004af2:	4813      	ldr	r0, [pc, #76]	; (8004b40 <tcp_close_shutdown_fin+0x5c>)
 8004af4:	f004 ffe6 	bl	8009ac4 <iprintf>
 8004af8:	7d23      	ldrb	r3, [r4, #20]
 8004afa:	2b04      	cmp	r3, #4
 8004afc:	d003      	beq.n	8004b06 <tcp_close_shutdown_fin+0x22>
 8004afe:	2b07      	cmp	r3, #7
 8004b00:	d00c      	beq.n	8004b1c <tcp_close_shutdown_fin+0x38>
 8004b02:	2b03      	cmp	r3, #3
 8004b04:	d108      	bne.n	8004b18 <tcp_close_shutdown_fin+0x34>
 8004b06:	4620      	mov	r0, r4
 8004b08:	f002 fc74 	bl	80073f4 <tcp_send_fin>
 8004b0c:	b960      	cbnz	r0, 8004b28 <tcp_close_shutdown_fin+0x44>
 8004b0e:	2305      	movs	r3, #5
 8004b10:	4620      	mov	r0, r4
 8004b12:	7523      	strb	r3, [r4, #20]
 8004b14:	f002 fdce 	bl	80076b4 <tcp_output>
 8004b18:	2000      	movs	r0, #0
 8004b1a:	bd10      	pop	{r4, pc}
 8004b1c:	4620      	mov	r0, r4
 8004b1e:	f002 fc69 	bl	80073f4 <tcp_send_fin>
 8004b22:	b908      	cbnz	r0, 8004b28 <tcp_close_shutdown_fin+0x44>
 8004b24:	2309      	movs	r3, #9
 8004b26:	e7f3      	b.n	8004b10 <tcp_close_shutdown_fin+0x2c>
 8004b28:	1c43      	adds	r3, r0, #1
 8004b2a:	d1f6      	bne.n	8004b1a <tcp_close_shutdown_fin+0x36>
 8004b2c:	8b63      	ldrh	r3, [r4, #26]
 8004b2e:	f043 0308 	orr.w	r3, r3, #8
 8004b32:	8363      	strh	r3, [r4, #26]
 8004b34:	e7f0      	b.n	8004b18 <tcp_close_shutdown_fin+0x34>
 8004b36:	bf00      	nop
 8004b38:	0800c62f 	.word	0x0800c62f
 8004b3c:	0800c65e 	.word	0x0800c65e
 8004b40:	0800be06 	.word	0x0800be06

08004b44 <tcp_init>:
 8004b44:	b508      	push	{r3, lr}
 8004b46:	f004 fe39 	bl	80097bc <rand>
 8004b4a:	ea6f 4080 	mvn.w	r0, r0, lsl #18
 8004b4e:	4b02      	ldr	r3, [pc, #8]	; (8004b58 <tcp_init+0x14>)
 8004b50:	ea6f 4090 	mvn.w	r0, r0, lsr #18
 8004b54:	8018      	strh	r0, [r3, #0]
 8004b56:	bd08      	pop	{r3, pc}
 8004b58:	20000028 	.word	0x20000028

08004b5c <tcp_free>:
 8004b5c:	b510      	push	{r4, lr}
 8004b5e:	7d03      	ldrb	r3, [r0, #20]
 8004b60:	4604      	mov	r4, r0
 8004b62:	2b01      	cmp	r3, #1
 8004b64:	d105      	bne.n	8004b72 <tcp_free+0x16>
 8004b66:	4b06      	ldr	r3, [pc, #24]	; (8004b80 <tcp_free+0x24>)
 8004b68:	22d4      	movs	r2, #212	; 0xd4
 8004b6a:	4906      	ldr	r1, [pc, #24]	; (8004b84 <tcp_free+0x28>)
 8004b6c:	4806      	ldr	r0, [pc, #24]	; (8004b88 <tcp_free+0x2c>)
 8004b6e:	f004 ffa9 	bl	8009ac4 <iprintf>
 8004b72:	4621      	mov	r1, r4
 8004b74:	2001      	movs	r0, #1
 8004b76:	e8bd 4010 	ldmia.w	sp!, {r4, lr}
 8004b7a:	f7ff ba9b 	b.w	80040b4 <memp_free>
 8004b7e:	bf00      	nop
 8004b80:	0800c62f 	.word	0x0800c62f
 8004b84:	0800c66a 	.word	0x0800c66a
 8004b88:	0800be06 	.word	0x0800be06

08004b8c <tcp_update_rcv_ann_wnd>:
 8004b8c:	b570      	push	{r4, r5, r6, lr}
 8004b8e:	4604      	mov	r4, r0
 8004b90:	b930      	cbnz	r0, 8004ba0 <tcp_update_rcv_ann_wnd+0x14>
 8004b92:	4b15      	ldr	r3, [pc, #84]	; (8004be8 <tcp_update_rcv_ann_wnd+0x5c>)
 8004b94:	f240 32a6 	movw	r2, #934	; 0x3a6
 8004b98:	4914      	ldr	r1, [pc, #80]	; (8004bec <tcp_update_rcv_ann_wnd+0x60>)
 8004b9a:	4815      	ldr	r0, [pc, #84]	; (8004bf0 <tcp_update_rcv_ann_wnd+0x64>)
 8004b9c:	f004 ff92 	bl	8009ac4 <iprintf>
 8004ba0:	8d23      	ldrh	r3, [r4, #40]	; 0x28
 8004ba2:	6ae1      	ldr	r1, [r4, #44]	; 0x2c
 8004ba4:	8e66      	ldrh	r6, [r4, #50]	; 0x32
 8004ba6:	6a62      	ldr	r2, [r4, #36]	; 0x24
 8004ba8:	1a58      	subs	r0, r3, r1
 8004baa:	f5b6 6f86 	cmp.w	r6, #1072	; 0x430
 8004bae:	4410      	add	r0, r2
 8004bb0:	bf94      	ite	ls
 8004bb2:	1b85      	subls	r5, r0, r6
 8004bb4:	f5a0 6586 	subhi.w	r5, r0, #1072	; 0x430
 8004bb8:	2d00      	cmp	r5, #0
 8004bba:	da0f      	bge.n	8004bdc <tcp_update_rcv_ann_wnd+0x50>
 8004bbc:	1a53      	subs	r3, r2, r1
 8004bbe:	2b00      	cmp	r3, #0
 8004bc0:	dc0e      	bgt.n	8004be0 <tcp_update_rcv_ann_wnd+0x54>
 8004bc2:	1a8d      	subs	r5, r1, r2
 8004bc4:	f5b5 3f80 	cmp.w	r5, #65536	; 0x10000
 8004bc8:	d306      	bcc.n	8004bd8 <tcp_update_rcv_ann_wnd+0x4c>
 8004bca:	4b07      	ldr	r3, [pc, #28]	; (8004be8 <tcp_update_rcv_ann_wnd+0x5c>)
 8004bcc:	f240 32b6 	movw	r2, #950	; 0x3b6
 8004bd0:	4908      	ldr	r1, [pc, #32]	; (8004bf4 <tcp_update_rcv_ann_wnd+0x68>)
 8004bd2:	4807      	ldr	r0, [pc, #28]	; (8004bf0 <tcp_update_rcv_ann_wnd+0x64>)
 8004bd4:	f004 ff76 	bl	8009ac4 <iprintf>
 8004bd8:	b2ab      	uxth	r3, r5
 8004bda:	2000      	movs	r0, #0
 8004bdc:	8563      	strh	r3, [r4, #42]	; 0x2a
 8004bde:	bd70      	pop	{r4, r5, r6, pc}
 8004be0:	2300      	movs	r3, #0
 8004be2:	4618      	mov	r0, r3
 8004be4:	e7fa      	b.n	8004bdc <tcp_update_rcv_ann_wnd+0x50>
 8004be6:	bf00      	nop
 8004be8:	0800c62f 	.word	0x0800c62f
 8004bec:	0800c67b 	.word	0x0800c67b
 8004bf0:	0800be06 	.word	0x0800be06
 8004bf4:	0800c69f 	.word	0x0800c69f

08004bf8 <tcp_recved>:
 8004bf8:	b570      	push	{r4, r5, r6, lr}
 8004bfa:	460c      	mov	r4, r1
 8004bfc:	4605      	mov	r5, r0
 8004bfe:	b940      	cbnz	r0, 8004c12 <tcp_recved+0x1a>
 8004c00:	4b18      	ldr	r3, [pc, #96]	; (8004c64 <tcp_recved+0x6c>)
 8004c02:	f240 32cf 	movw	r2, #975	; 0x3cf
 8004c06:	4918      	ldr	r1, [pc, #96]	; (8004c68 <tcp_recved+0x70>)
 8004c08:	4818      	ldr	r0, [pc, #96]	; (8004c6c <tcp_recved+0x74>)
 8004c0a:	e8bd 4070 	ldmia.w	sp!, {r4, r5, r6, lr}
 8004c0e:	f004 bf59 	b.w	8009ac4 <iprintf>
 8004c12:	7d03      	ldrb	r3, [r0, #20]
 8004c14:	2b01      	cmp	r3, #1
 8004c16:	d106      	bne.n	8004c26 <tcp_recved+0x2e>
 8004c18:	4b12      	ldr	r3, [pc, #72]	; (8004c64 <tcp_recved+0x6c>)
 8004c1a:	f240 32d2 	movw	r2, #978	; 0x3d2
 8004c1e:	4914      	ldr	r1, [pc, #80]	; (8004c70 <tcp_recved+0x78>)
 8004c20:	4812      	ldr	r0, [pc, #72]	; (8004c6c <tcp_recved+0x74>)
 8004c22:	f004 ff4f 	bl	8009ac4 <iprintf>
 8004c26:	8d2b      	ldrh	r3, [r5, #40]	; 0x28
 8004c28:	1919      	adds	r1, r3, r4
 8004c2a:	b289      	uxth	r1, r1
 8004c2c:	f5b1 6f06 	cmp.w	r1, #2144	; 0x860
 8004c30:	d813      	bhi.n	8004c5a <tcp_recved+0x62>
 8004c32:	428b      	cmp	r3, r1
 8004c34:	bf88      	it	hi
 8004c36:	f44f 6106 	movhi.w	r1, #2144	; 0x860
 8004c3a:	4628      	mov	r0, r5
 8004c3c:	8529      	strh	r1, [r5, #40]	; 0x28
 8004c3e:	f7ff ffa5 	bl	8004b8c <tcp_update_rcv_ann_wnd>
 8004c42:	f5b0 7f06 	cmp.w	r0, #536	; 0x218
 8004c46:	d30b      	bcc.n	8004c60 <tcp_recved+0x68>
 8004c48:	8b6b      	ldrh	r3, [r5, #26]
 8004c4a:	4628      	mov	r0, r5
 8004c4c:	f043 0302 	orr.w	r3, r3, #2
 8004c50:	836b      	strh	r3, [r5, #26]
 8004c52:	e8bd 4070 	ldmia.w	sp!, {r4, r5, r6, lr}
 8004c56:	f002 bd2d 	b.w	80076b4 <tcp_output>
 8004c5a:	f44f 6106 	mov.w	r1, #2144	; 0x860
 8004c5e:	e7ec      	b.n	8004c3a <tcp_recved+0x42>
 8004c60:	bd70      	pop	{r4, r5, r6, pc}
 8004c62:	bf00      	nop
 8004c64:	0800c62f 	.word	0x0800c62f
 8004c68:	0800c6b9 	.word	0x0800c6b9
 8004c6c:	0800be06 	.word	0x0800be06
 8004c70:	0800c6d1 	.word	0x0800c6d1

08004c74 <tcp_seg_free>:
 8004c74:	b510      	push	{r4, lr}
 8004c76:	4604      	mov	r4, r0
 8004c78:	b148      	cbz	r0, 8004c8e <tcp_seg_free+0x1a>
 8004c7a:	6840      	ldr	r0, [r0, #4]
 8004c7c:	b108      	cbz	r0, 8004c82 <tcp_seg_free+0xe>
 8004c7e:	f7ff fc97 	bl	80045b0 <pbuf_free>
 8004c82:	4621      	mov	r1, r4
 8004c84:	2003      	movs	r0, #3
 8004c86:	e8bd 4010 	ldmia.w	sp!, {r4, lr}
 8004c8a:	f7ff ba13 	b.w	80040b4 <memp_free>
 8004c8e:	bd10      	pop	{r4, pc}

08004c90 <tcp_segs_free>:
 8004c90:	b510      	push	{r4, lr}
 8004c92:	b900      	cbnz	r0, 8004c96 <tcp_segs_free+0x6>
 8004c94:	bd10      	pop	{r4, pc}
 8004c96:	6804      	ldr	r4, [r0, #0]
 8004c98:	f7ff ffec 	bl	8004c74 <tcp_seg_free>
 8004c9c:	4620      	mov	r0, r4
 8004c9e:	e7f8      	b.n	8004c92 <tcp_segs_free+0x2>

08004ca0 <tcp_seg_copy>:
 8004ca0:	b538      	push	{r3, r4, r5, lr}
 8004ca2:	4604      	mov	r4, r0
 8004ca4:	b930      	cbnz	r0, 8004cb4 <tcp_seg_copy+0x14>
 8004ca6:	4b0d      	ldr	r3, [pc, #52]	; (8004cdc <tcp_seg_copy+0x3c>)
 8004ca8:	f240 6282 	movw	r2, #1666	; 0x682
 8004cac:	490c      	ldr	r1, [pc, #48]	; (8004ce0 <tcp_seg_copy+0x40>)
 8004cae:	480d      	ldr	r0, [pc, #52]	; (8004ce4 <tcp_seg_copy+0x44>)
 8004cb0:	f004 ff08 	bl	8009ac4 <iprintf>
 8004cb4:	2003      	movs	r0, #3
 8004cb6:	f7ff f9cd 	bl	8004054 <memp_malloc>
 8004cba:	4605      	mov	r5, r0
 8004cbc:	b160      	cbz	r0, 8004cd8 <tcp_seg_copy+0x38>
 8004cbe:	4623      	mov	r3, r4
 8004cc0:	4602      	mov	r2, r0
 8004cc2:	f104 0110 	add.w	r1, r4, #16
 8004cc6:	f853 0b04 	ldr.w	r0, [r3], #4
 8004cca:	428b      	cmp	r3, r1
 8004ccc:	f842 0b04 	str.w	r0, [r2], #4
 8004cd0:	d1f9      	bne.n	8004cc6 <tcp_seg_copy+0x26>
 8004cd2:	6868      	ldr	r0, [r5, #4]
 8004cd4:	f7ff fdb0 	bl	8004838 <pbuf_ref>
 8004cd8:	4628      	mov	r0, r5
 8004cda:	bd38      	pop	{r3, r4, r5, pc}
 8004cdc:	0800c62f 	.word	0x0800c62f
 8004ce0:	0800c6f7 	.word	0x0800c6f7
 8004ce4:	0800be06 	.word	0x0800be06

08004ce8 <tcp_next_iss>:
 8004ce8:	b508      	push	{r3, lr}
 8004cea:	b930      	cbnz	r0, 8004cfa <tcp_next_iss+0x12>
 8004cec:	4b06      	ldr	r3, [pc, #24]	; (8004d08 <tcp_next_iss+0x20>)
 8004cee:	f640 02af 	movw	r2, #2223	; 0x8af
 8004cf2:	4906      	ldr	r1, [pc, #24]	; (8004d0c <tcp_next_iss+0x24>)
 8004cf4:	4806      	ldr	r0, [pc, #24]	; (8004d10 <tcp_next_iss+0x28>)
 8004cf6:	f004 fee5 	bl	8009ac4 <iprintf>
 8004cfa:	4b06      	ldr	r3, [pc, #24]	; (8004d14 <tcp_next_iss+0x2c>)
 8004cfc:	4a06      	ldr	r2, [pc, #24]	; (8004d18 <tcp_next_iss+0x30>)
 8004cfe:	6818      	ldr	r0, [r3, #0]
 8004d00:	6812      	ldr	r2, [r2, #0]
 8004d02:	4410      	add	r0, r2
 8004d04:	6018      	str	r0, [r3, #0]
 8004d06:	bd08      	pop	{r3, pc}
 8004d08:	0800c62f 	.word	0x0800c62f
 8004d0c:	0800c711 	.word	0x0800c711
 8004d10:	0800be06 	.word	0x0800be06
 8004d14:	20000024 	.word	0x20000024
 8004d18:	2000aa2c 	.word	0x2000aa2c

08004d1c <tcp_eff_send_mss_netif>:
 8004d1c:	b538      	push	{r3, r4, r5, lr}
 8004d1e:	4604      	mov	r4, r0
 8004d20:	460d      	mov	r5, r1
 8004d22:	b932      	cbnz	r2, 8004d32 <tcp_eff_send_mss_netif+0x16>
 8004d24:	4b09      	ldr	r3, [pc, #36]	; (8004d4c <tcp_eff_send_mss_netif+0x30>)
 8004d26:	f640 02c5 	movw	r2, #2245	; 0x8c5
 8004d2a:	4909      	ldr	r1, [pc, #36]	; (8004d50 <tcp_eff_send_mss_netif+0x34>)
 8004d2c:	4809      	ldr	r0, [pc, #36]	; (8004d54 <tcp_eff_send_mss_netif+0x38>)
 8004d2e:	f004 fec9 	bl	8009ac4 <iprintf>
 8004d32:	b14d      	cbz	r5, 8004d48 <tcp_eff_send_mss_netif+0x2c>
 8004d34:	8cab      	ldrh	r3, [r5, #36]	; 0x24
 8004d36:	b13b      	cbz	r3, 8004d48 <tcp_eff_send_mss_netif+0x2c>
 8004d38:	2b28      	cmp	r3, #40	; 0x28
 8004d3a:	bf8a      	itet	hi
 8004d3c:	3b28      	subhi	r3, #40	; 0x28
 8004d3e:	2300      	movls	r3, #0
 8004d40:	b29b      	uxthhi	r3, r3
 8004d42:	429c      	cmp	r4, r3
 8004d44:	bf28      	it	cs
 8004d46:	461c      	movcs	r4, r3
 8004d48:	4620      	mov	r0, r4
 8004d4a:	bd38      	pop	{r3, r4, r5, pc}
 8004d4c:	0800c62f 	.word	0x0800c62f
 8004d50:	0800c72b 	.word	0x0800c72b
 8004d54:	0800be06 	.word	0x0800be06

08004d58 <tcp_free_ooseq>:
 8004d58:	b510      	push	{r4, lr}
 8004d5a:	4604      	mov	r4, r0
 8004d5c:	6f40      	ldr	r0, [r0, #116]	; 0x74
 8004d5e:	b118      	cbz	r0, 8004d68 <tcp_free_ooseq+0x10>
 8004d60:	f7ff ff96 	bl	8004c90 <tcp_segs_free>
 8004d64:	2300      	movs	r3, #0
 8004d66:	6763      	str	r3, [r4, #116]	; 0x74
 8004d68:	bd10      	pop	{r4, pc}
	...

08004d6c <tcp_pcb_purge>:
 8004d6c:	b510      	push	{r4, lr}
 8004d6e:	4604      	mov	r4, r0
 8004d70:	b940      	cbnz	r0, 8004d84 <tcp_pcb_purge+0x18>
 8004d72:	4b14      	ldr	r3, [pc, #80]	; (8004dc4 <tcp_pcb_purge+0x58>)
 8004d74:	f640 0251 	movw	r2, #2129	; 0x851
 8004d78:	4913      	ldr	r1, [pc, #76]	; (8004dc8 <tcp_pcb_purge+0x5c>)
 8004d7a:	4814      	ldr	r0, [pc, #80]	; (8004dcc <tcp_pcb_purge+0x60>)
 8004d7c:	e8bd 4010 	ldmia.w	sp!, {r4, lr}
 8004d80:	f004 bea0 	b.w	8009ac4 <iprintf>
 8004d84:	7d03      	ldrb	r3, [r0, #20]
 8004d86:	2b01      	cmp	r3, #1
 8004d88:	d91a      	bls.n	8004dc0 <tcp_pcb_purge+0x54>
 8004d8a:	2b0a      	cmp	r3, #10
 8004d8c:	d018      	beq.n	8004dc0 <tcp_pcb_purge+0x54>
 8004d8e:	6f80      	ldr	r0, [r0, #120]	; 0x78
 8004d90:	b118      	cbz	r0, 8004d9a <tcp_pcb_purge+0x2e>
 8004d92:	f7ff fc0d 	bl	80045b0 <pbuf_free>
 8004d96:	2300      	movs	r3, #0
 8004d98:	67a3      	str	r3, [r4, #120]	; 0x78
 8004d9a:	6f63      	ldr	r3, [r4, #116]	; 0x74
 8004d9c:	b113      	cbz	r3, 8004da4 <tcp_pcb_purge+0x38>
 8004d9e:	4620      	mov	r0, r4
 8004da0:	f7ff ffda 	bl	8004d58 <tcp_free_ooseq>
 8004da4:	f64f 73ff 	movw	r3, #65535	; 0xffff
 8004da8:	6ee0      	ldr	r0, [r4, #108]	; 0x6c
 8004daa:	8623      	strh	r3, [r4, #48]	; 0x30
 8004dac:	f7ff ff70 	bl	8004c90 <tcp_segs_free>
 8004db0:	6f20      	ldr	r0, [r4, #112]	; 0x70
 8004db2:	f7ff ff6d 	bl	8004c90 <tcp_segs_free>
 8004db6:	2300      	movs	r3, #0
 8004db8:	e9c4 331b 	strd	r3, r3, [r4, #108]	; 0x6c
 8004dbc:	f8a4 3068 	strh.w	r3, [r4, #104]	; 0x68
 8004dc0:	bd10      	pop	{r4, pc}
 8004dc2:	bf00      	nop
 8004dc4:	0800c62f 	.word	0x0800c62f
 8004dc8:	0800c752 	.word	0x0800c752
 8004dcc:	0800be06 	.word	0x0800be06

08004dd0 <tcp_pcb_remove>:
 8004dd0:	b538      	push	{r3, r4, r5, lr}
 8004dd2:	4605      	mov	r5, r0
 8004dd4:	460c      	mov	r4, r1
 8004dd6:	b931      	cbnz	r1, 8004de6 <tcp_pcb_remove+0x16>
 8004dd8:	4b29      	ldr	r3, [pc, #164]	; (8004e80 <tcp_pcb_remove+0xb0>)
 8004dda:	f640 0283 	movw	r2, #2179	; 0x883
 8004dde:	4929      	ldr	r1, [pc, #164]	; (8004e84 <tcp_pcb_remove+0xb4>)
 8004de0:	4829      	ldr	r0, [pc, #164]	; (8004e88 <tcp_pcb_remove+0xb8>)
 8004de2:	f004 fe6f 	bl	8009ac4 <iprintf>
 8004de6:	b935      	cbnz	r5, 8004df6 <tcp_pcb_remove+0x26>
 8004de8:	4b25      	ldr	r3, [pc, #148]	; (8004e80 <tcp_pcb_remove+0xb0>)
 8004dea:	f640 0284 	movw	r2, #2180	; 0x884
 8004dee:	4927      	ldr	r1, [pc, #156]	; (8004e8c <tcp_pcb_remove+0xbc>)
 8004df0:	4825      	ldr	r0, [pc, #148]	; (8004e88 <tcp_pcb_remove+0xb8>)
 8004df2:	f004 fe67 	bl	8009ac4 <iprintf>
 8004df6:	682b      	ldr	r3, [r5, #0]
 8004df8:	42a3      	cmp	r3, r4
 8004dfa:	d11f      	bne.n	8004e3c <tcp_pcb_remove+0x6c>
 8004dfc:	68e3      	ldr	r3, [r4, #12]
 8004dfe:	602b      	str	r3, [r5, #0]
 8004e00:	2300      	movs	r3, #0
 8004e02:	4620      	mov	r0, r4
 8004e04:	60e3      	str	r3, [r4, #12]
 8004e06:	f7ff ffb1 	bl	8004d6c <tcp_pcb_purge>
 8004e0a:	7d23      	ldrb	r3, [r4, #20]
 8004e0c:	2b0a      	cmp	r3, #10
 8004e0e:	d11d      	bne.n	8004e4c <tcp_pcb_remove+0x7c>
 8004e10:	6ee3      	ldr	r3, [r4, #108]	; 0x6c
 8004e12:	bb6b      	cbnz	r3, 8004e70 <tcp_pcb_remove+0xa0>
 8004e14:	6f23      	ldr	r3, [r4, #112]	; 0x70
 8004e16:	b133      	cbz	r3, 8004e26 <tcp_pcb_remove+0x56>
 8004e18:	4b19      	ldr	r3, [pc, #100]	; (8004e80 <tcp_pcb_remove+0xb0>)
 8004e1a:	f640 0294 	movw	r2, #2196	; 0x894
 8004e1e:	491c      	ldr	r1, [pc, #112]	; (8004e90 <tcp_pcb_remove+0xc0>)
 8004e20:	4819      	ldr	r0, [pc, #100]	; (8004e88 <tcp_pcb_remove+0xb8>)
 8004e22:	f004 fe4f 	bl	8009ac4 <iprintf>
 8004e26:	6f63      	ldr	r3, [r4, #116]	; 0x74
 8004e28:	b1f3      	cbz	r3, 8004e68 <tcp_pcb_remove+0x98>
 8004e2a:	4b15      	ldr	r3, [pc, #84]	; (8004e80 <tcp_pcb_remove+0xb0>)
 8004e2c:	f640 0296 	movw	r2, #2198	; 0x896
 8004e30:	4918      	ldr	r1, [pc, #96]	; (8004e94 <tcp_pcb_remove+0xc4>)
 8004e32:	4815      	ldr	r0, [pc, #84]	; (8004e88 <tcp_pcb_remove+0xb8>)
 8004e34:	f004 fe46 	bl	8009ac4 <iprintf>
 8004e38:	e016      	b.n	8004e68 <tcp_pcb_remove+0x98>
 8004e3a:	4613      	mov	r3, r2
 8004e3c:	2b00      	cmp	r3, #0
 8004e3e:	d0df      	beq.n	8004e00 <tcp_pcb_remove+0x30>
 8004e40:	68da      	ldr	r2, [r3, #12]
 8004e42:	42a2      	cmp	r2, r4
 8004e44:	d1f9      	bne.n	8004e3a <tcp_pcb_remove+0x6a>
 8004e46:	68e2      	ldr	r2, [r4, #12]
 8004e48:	60da      	str	r2, [r3, #12]
 8004e4a:	e7d9      	b.n	8004e00 <tcp_pcb_remove+0x30>
 8004e4c:	2b01      	cmp	r3, #1
 8004e4e:	d00b      	beq.n	8004e68 <tcp_pcb_remove+0x98>
 8004e50:	8b63      	ldrh	r3, [r4, #26]
 8004e52:	07da      	lsls	r2, r3, #31
 8004e54:	d5dc      	bpl.n	8004e10 <tcp_pcb_remove+0x40>
 8004e56:	f043 0302 	orr.w	r3, r3, #2
 8004e5a:	4620      	mov	r0, r4
 8004e5c:	8363      	strh	r3, [r4, #26]
 8004e5e:	f002 fc29 	bl	80076b4 <tcp_output>
 8004e62:	7d23      	ldrb	r3, [r4, #20]
 8004e64:	2b01      	cmp	r3, #1
 8004e66:	d1d3      	bne.n	8004e10 <tcp_pcb_remove+0x40>
 8004e68:	2300      	movs	r3, #0
 8004e6a:	7523      	strb	r3, [r4, #20]
 8004e6c:	82e3      	strh	r3, [r4, #22]
 8004e6e:	bd38      	pop	{r3, r4, r5, pc}
 8004e70:	4b03      	ldr	r3, [pc, #12]	; (8004e80 <tcp_pcb_remove+0xb0>)
 8004e72:	f640 0293 	movw	r2, #2195	; 0x893
 8004e76:	4908      	ldr	r1, [pc, #32]	; (8004e98 <tcp_pcb_remove+0xc8>)
 8004e78:	4803      	ldr	r0, [pc, #12]	; (8004e88 <tcp_pcb_remove+0xb8>)
 8004e7a:	f004 fe23 	bl	8009ac4 <iprintf>
 8004e7e:	e7c9      	b.n	8004e14 <tcp_pcb_remove+0x44>
 8004e80:	0800c62f 	.word	0x0800c62f
 8004e84:	0800c76d 	.word	0x0800c76d
 8004e88:	0800be06 	.word	0x0800be06
 8004e8c:	0800c789 	.word	0x0800c789
 8004e90:	0800c7c1 	.word	0x0800c7c1
 8004e94:	0800c7da 	.word	0x0800c7da
 8004e98:	0800c7a9 	.word	0x0800c7a9

08004e9c <tcp_abandon>:
 8004e9c:	e92d 47ff 	stmdb	sp!, {r0, r1, r2, r3, r4, r5, r6, r7, r8, r9, sl, lr}
 8004ea0:	460e      	mov	r6, r1
 8004ea2:	4604      	mov	r4, r0
 8004ea4:	b948      	cbnz	r0, 8004eba <tcp_abandon+0x1e>
 8004ea6:	4b36      	ldr	r3, [pc, #216]	; (8004f80 <tcp_abandon+0xe4>)
 8004ea8:	f240 223d 	movw	r2, #573	; 0x23d
 8004eac:	4935      	ldr	r1, [pc, #212]	; (8004f84 <tcp_abandon+0xe8>)
 8004eae:	4836      	ldr	r0, [pc, #216]	; (8004f88 <tcp_abandon+0xec>)
 8004eb0:	b004      	add	sp, #16
 8004eb2:	e8bd 47f0 	ldmia.w	sp!, {r4, r5, r6, r7, r8, r9, sl, lr}
 8004eb6:	f004 be05 	b.w	8009ac4 <iprintf>
 8004eba:	7d03      	ldrb	r3, [r0, #20]
 8004ebc:	2b01      	cmp	r3, #1
 8004ebe:	d106      	bne.n	8004ece <tcp_abandon+0x32>
 8004ec0:	4b2f      	ldr	r3, [pc, #188]	; (8004f80 <tcp_abandon+0xe4>)
 8004ec2:	f44f 7210 	mov.w	r2, #576	; 0x240
 8004ec6:	4931      	ldr	r1, [pc, #196]	; (8004f8c <tcp_abandon+0xf0>)
 8004ec8:	482f      	ldr	r0, [pc, #188]	; (8004f88 <tcp_abandon+0xec>)
 8004eca:	f004 fdfb 	bl	8009ac4 <iprintf>
 8004ece:	7d23      	ldrb	r3, [r4, #20]
 8004ed0:	2b0a      	cmp	r3, #10
 8004ed2:	d109      	bne.n	8004ee8 <tcp_abandon+0x4c>
 8004ed4:	4621      	mov	r1, r4
 8004ed6:	482e      	ldr	r0, [pc, #184]	; (8004f90 <tcp_abandon+0xf4>)
 8004ed8:	f7ff ff7a 	bl	8004dd0 <tcp_pcb_remove>
 8004edc:	4620      	mov	r0, r4
 8004ede:	b004      	add	sp, #16
 8004ee0:	e8bd 47f0 	ldmia.w	sp!, {r4, r5, r6, r7, r8, r9, sl, lr}
 8004ee4:	f7ff be3a 	b.w	8004b5c <tcp_free>
 8004ee8:	f8d4 9050 	ldr.w	r9, [r4, #80]	; 0x50
 8004eec:	f8d4 a024 	ldr.w	sl, [r4, #36]	; 0x24
 8004ef0:	f8d4 7090 	ldr.w	r7, [r4, #144]	; 0x90
 8004ef4:	f8d4 8010 	ldr.w	r8, [r4, #16]
 8004ef8:	8ae5      	ldrh	r5, [r4, #22]
 8004efa:	b99b      	cbnz	r3, 8004f24 <tcp_abandon+0x88>
 8004efc:	b13d      	cbz	r5, 8004f0e <tcp_abandon+0x72>
 8004efe:	4a25      	ldr	r2, [pc, #148]	; (8004f94 <tcp_abandon+0xf8>)
 8004f00:	6813      	ldr	r3, [r2, #0]
 8004f02:	42a3      	cmp	r3, r4
 8004f04:	d106      	bne.n	8004f14 <tcp_abandon+0x78>
 8004f06:	68e3      	ldr	r3, [r4, #12]
 8004f08:	6013      	str	r3, [r2, #0]
 8004f0a:	2500      	movs	r5, #0
 8004f0c:	60e5      	str	r5, [r4, #12]
 8004f0e:	462e      	mov	r6, r5
 8004f10:	e00f      	b.n	8004f32 <tcp_abandon+0x96>
 8004f12:	4613      	mov	r3, r2
 8004f14:	2b00      	cmp	r3, #0
 8004f16:	d0f8      	beq.n	8004f0a <tcp_abandon+0x6e>
 8004f18:	68da      	ldr	r2, [r3, #12]
 8004f1a:	42a2      	cmp	r2, r4
 8004f1c:	d1f9      	bne.n	8004f12 <tcp_abandon+0x76>
 8004f1e:	68e2      	ldr	r2, [r4, #12]
 8004f20:	60da      	str	r2, [r3, #12]
 8004f22:	e7f2      	b.n	8004f0a <tcp_abandon+0x6e>
 8004f24:	4621      	mov	r1, r4
 8004f26:	481c      	ldr	r0, [pc, #112]	; (8004f98 <tcp_abandon+0xfc>)
 8004f28:	f7ff ff52 	bl	8004dd0 <tcp_pcb_remove>
 8004f2c:	4b1b      	ldr	r3, [pc, #108]	; (8004f9c <tcp_abandon+0x100>)
 8004f2e:	2201      	movs	r2, #1
 8004f30:	701a      	strb	r2, [r3, #0]
 8004f32:	6f20      	ldr	r0, [r4, #112]	; 0x70
 8004f34:	b108      	cbz	r0, 8004f3a <tcp_abandon+0x9e>
 8004f36:	f7ff feab 	bl	8004c90 <tcp_segs_free>
 8004f3a:	6ee0      	ldr	r0, [r4, #108]	; 0x6c
 8004f3c:	b108      	cbz	r0, 8004f42 <tcp_abandon+0xa6>
 8004f3e:	f7ff fea7 	bl	8004c90 <tcp_segs_free>
 8004f42:	6f60      	ldr	r0, [r4, #116]	; 0x74
 8004f44:	b108      	cbz	r0, 8004f4a <tcp_abandon+0xae>
 8004f46:	f7ff fea3 	bl	8004c90 <tcp_segs_free>
 8004f4a:	b156      	cbz	r6, 8004f62 <tcp_abandon+0xc6>
 8004f4c:	8b23      	ldrh	r3, [r4, #24]
 8004f4e:	4652      	mov	r2, sl
 8004f50:	4649      	mov	r1, r9
 8004f52:	4620      	mov	r0, r4
 8004f54:	e9cd 5301 	strd	r5, r3, [sp, #4]
 8004f58:	1d23      	adds	r3, r4, #4
 8004f5a:	9300      	str	r3, [sp, #0]
 8004f5c:	4623      	mov	r3, r4
 8004f5e:	f002 fb31 	bl	80075c4 <tcp_rst>
 8004f62:	4620      	mov	r0, r4
 8004f64:	f7ff fdfa 	bl	8004b5c <tcp_free>
 8004f68:	b13f      	cbz	r7, 8004f7a <tcp_abandon+0xde>
 8004f6a:	f06f 010c 	mvn.w	r1, #12
 8004f6e:	4640      	mov	r0, r8
 8004f70:	463b      	mov	r3, r7
 8004f72:	b004      	add	sp, #16
 8004f74:	e8bd 47f0 	ldmia.w	sp!, {r4, r5, r6, r7, r8, r9, sl, lr}
 8004f78:	4718      	bx	r3
 8004f7a:	b004      	add	sp, #16
 8004f7c:	e8bd 87f0 	ldmia.w	sp!, {r4, r5, r6, r7, r8, r9, sl, pc}
 8004f80:	0800c62f 	.word	0x0800c62f
 8004f84:	0800c7f1 	.word	0x0800c7f1
 8004f88:	0800be06 	.word	0x0800be06
 8004f8c:	0800c80a 	.word	0x0800c80a
 8004f90:	2000aa34 	.word	0x2000aa34
 8004f94:	2000aa24 	.word	0x2000aa24
 8004f98:	2000aa1c 	.word	0x2000aa1c
 8004f9c:	2000aa20 	.word	0x2000aa20

08004fa0 <tcp_abort>:
 8004fa0:	2101      	movs	r1, #1
 8004fa2:	f7ff bf7b 	b.w	8004e9c <tcp_abandon>
	...

08004fa8 <tcp_netif_ip_addr_changed_pcblist>:
 8004fa8:	b570      	push	{r4, r5, r6, lr}
 8004faa:	460c      	mov	r4, r1
 8004fac:	4605      	mov	r5, r0
 8004fae:	b930      	cbnz	r0, 8004fbe <tcp_netif_ip_addr_changed_pcblist+0x16>
 8004fb0:	4b09      	ldr	r3, [pc, #36]	; (8004fd8 <tcp_netif_ip_addr_changed_pcblist+0x30>)
 8004fb2:	f44f 6210 	mov.w	r2, #2304	; 0x900
 8004fb6:	4909      	ldr	r1, [pc, #36]	; (8004fdc <tcp_netif_ip_addr_changed_pcblist+0x34>)
 8004fb8:	4809      	ldr	r0, [pc, #36]	; (8004fe0 <tcp_netif_ip_addr_changed_pcblist+0x38>)
 8004fba:	f004 fd83 	bl	8009ac4 <iprintf>
 8004fbe:	b904      	cbnz	r4, 8004fc2 <tcp_netif_ip_addr_changed_pcblist+0x1a>
 8004fc0:	bd70      	pop	{r4, r5, r6, pc}
 8004fc2:	6822      	ldr	r2, [r4, #0]
 8004fc4:	682b      	ldr	r3, [r5, #0]
 8004fc6:	68e6      	ldr	r6, [r4, #12]
 8004fc8:	429a      	cmp	r2, r3
 8004fca:	d102      	bne.n	8004fd2 <tcp_netif_ip_addr_changed_pcblist+0x2a>
 8004fcc:	4620      	mov	r0, r4
 8004fce:	f7ff ffe7 	bl	8004fa0 <tcp_abort>
 8004fd2:	4634      	mov	r4, r6
 8004fd4:	e7f3      	b.n	8004fbe <tcp_netif_ip_addr_changed_pcblist+0x16>
 8004fd6:	bf00      	nop
 8004fd8:	0800c62f 	.word	0x0800c62f
 8004fdc:	0800c83b 	.word	0x0800c83b
 8004fe0:	0800be06 	.word	0x0800be06

08004fe4 <tcp_netif_ip_addr_changed>:
 8004fe4:	b538      	push	{r3, r4, r5, lr}
 8004fe6:	460d      	mov	r5, r1
 8004fe8:	4604      	mov	r4, r0
 8004fea:	b180      	cbz	r0, 800500e <tcp_netif_ip_addr_changed+0x2a>
 8004fec:	6803      	ldr	r3, [r0, #0]
 8004fee:	b173      	cbz	r3, 800500e <tcp_netif_ip_addr_changed+0x2a>
 8004ff0:	4b0b      	ldr	r3, [pc, #44]	; (8005020 <tcp_netif_ip_addr_changed+0x3c>)
 8004ff2:	6819      	ldr	r1, [r3, #0]
 8004ff4:	f7ff ffd8 	bl	8004fa8 <tcp_netif_ip_addr_changed_pcblist>
 8004ff8:	4b0a      	ldr	r3, [pc, #40]	; (8005024 <tcp_netif_ip_addr_changed+0x40>)
 8004ffa:	4620      	mov	r0, r4
 8004ffc:	6819      	ldr	r1, [r3, #0]
 8004ffe:	f7ff ffd3 	bl	8004fa8 <tcp_netif_ip_addr_changed_pcblist>
 8005002:	b125      	cbz	r5, 800500e <tcp_netif_ip_addr_changed+0x2a>
 8005004:	682b      	ldr	r3, [r5, #0]
 8005006:	b113      	cbz	r3, 800500e <tcp_netif_ip_addr_changed+0x2a>
 8005008:	4b07      	ldr	r3, [pc, #28]	; (8005028 <tcp_netif_ip_addr_changed+0x44>)
 800500a:	681b      	ldr	r3, [r3, #0]
 800500c:	b903      	cbnz	r3, 8005010 <tcp_netif_ip_addr_changed+0x2c>
 800500e:	bd38      	pop	{r3, r4, r5, pc}
 8005010:	6819      	ldr	r1, [r3, #0]
 8005012:	6822      	ldr	r2, [r4, #0]
 8005014:	4291      	cmp	r1, r2
 8005016:	bf04      	itt	eq
 8005018:	682a      	ldreq	r2, [r5, #0]
 800501a:	601a      	streq	r2, [r3, #0]
 800501c:	68db      	ldr	r3, [r3, #12]
 800501e:	e7f5      	b.n	800500c <tcp_netif_ip_addr_changed+0x28>
 8005020:	2000aa1c 	.word	0x2000aa1c
 8005024:	2000aa24 	.word	0x2000aa24
 8005028:	2000aa28 	.word	0x2000aa28

0800502c <tcp_kill_state>:
 800502c:	4b0c      	ldr	r3, [pc, #48]	; (8005060 <tcp_kill_state+0x34>)
 800502e:	b430      	push	{r4, r5}
 8005030:	6819      	ldr	r1, [r3, #0]
 8005032:	2400      	movs	r4, #0
 8005034:	4b0b      	ldr	r3, [pc, #44]	; (8005064 <tcp_kill_state+0x38>)
 8005036:	4622      	mov	r2, r4
 8005038:	681d      	ldr	r5, [r3, #0]
 800503a:	b921      	cbnz	r1, 8005046 <tcp_kill_state+0x1a>
 800503c:	b172      	cbz	r2, 800505c <tcp_kill_state+0x30>
 800503e:	4610      	mov	r0, r2
 8005040:	bc30      	pop	{r4, r5}
 8005042:	f7ff bf2b 	b.w	8004e9c <tcp_abandon>
 8005046:	7d0b      	ldrb	r3, [r1, #20]
 8005048:	4283      	cmp	r3, r0
 800504a:	d105      	bne.n	8005058 <tcp_kill_state+0x2c>
 800504c:	6a0b      	ldr	r3, [r1, #32]
 800504e:	1aeb      	subs	r3, r5, r3
 8005050:	42a3      	cmp	r3, r4
 8005052:	bf24      	itt	cs
 8005054:	461c      	movcs	r4, r3
 8005056:	460a      	movcs	r2, r1
 8005058:	68c9      	ldr	r1, [r1, #12]
 800505a:	e7ee      	b.n	800503a <tcp_kill_state+0xe>
 800505c:	bc30      	pop	{r4, r5}
 800505e:	4770      	bx	lr
 8005060:	2000aa1c 	.word	0x2000aa1c
 8005064:	2000aa2c 	.word	0x2000aa2c

08005068 <tcp_alloc>:
 8005068:	b5f8      	push	{r3, r4, r5, r6, r7, lr}
 800506a:	4604      	mov	r4, r0
 800506c:	2001      	movs	r0, #1
 800506e:	f7fe fff1 	bl	8004054 <memp_malloc>
 8005072:	4603      	mov	r3, r0
 8005074:	2800      	cmp	r0, #0
 8005076:	d136      	bne.n	80050e6 <tcp_alloc+0x7e>
 8005078:	4e3f      	ldr	r6, [pc, #252]	; (8005178 <tcp_alloc+0x110>)
 800507a:	6830      	ldr	r0, [r6, #0]
 800507c:	2800      	cmp	r0, #0
 800507e:	d157      	bne.n	8005130 <tcp_alloc+0xc8>
 8005080:	4b3e      	ldr	r3, [pc, #248]	; (800517c <tcp_alloc+0x114>)
 8005082:	4601      	mov	r1, r0
 8005084:	4d3e      	ldr	r5, [pc, #248]	; (8005180 <tcp_alloc+0x118>)
 8005086:	681b      	ldr	r3, [r3, #0]
 8005088:	682f      	ldr	r7, [r5, #0]
 800508a:	2b00      	cmp	r3, #0
 800508c:	d15b      	bne.n	8005146 <tcp_alloc+0xde>
 800508e:	b108      	cbz	r0, 8005094 <tcp_alloc+0x2c>
 8005090:	f7ff ff86 	bl	8004fa0 <tcp_abort>
 8005094:	2001      	movs	r0, #1
 8005096:	f7fe ffdd 	bl	8004054 <memp_malloc>
 800509a:	4603      	mov	r3, r0
 800509c:	bb18      	cbnz	r0, 80050e6 <tcp_alloc+0x7e>
 800509e:	2009      	movs	r0, #9
 80050a0:	f7ff ffc4 	bl	800502c <tcp_kill_state>
 80050a4:	2001      	movs	r0, #1
 80050a6:	f7fe ffd5 	bl	8004054 <memp_malloc>
 80050aa:	4603      	mov	r3, r0
 80050ac:	b9d8      	cbnz	r0, 80050e6 <tcp_alloc+0x7e>
 80050ae:	2008      	movs	r0, #8
 80050b0:	f7ff ffbc 	bl	800502c <tcp_kill_state>
 80050b4:	2001      	movs	r0, #1
 80050b6:	f7fe ffcd 	bl	8004054 <memp_malloc>
 80050ba:	4603      	mov	r3, r0
 80050bc:	b998      	cbnz	r0, 80050e6 <tcp_alloc+0x7e>
 80050be:	0622      	lsls	r2, r4, #24
 80050c0:	d449      	bmi.n	8005156 <tcp_alloc+0xee>
 80050c2:	b15c      	cbz	r4, 80050dc <tcp_alloc+0x74>
 80050c4:	4621      	mov	r1, r4
 80050c6:	3901      	subs	r1, #1
 80050c8:	6832      	ldr	r2, [r6, #0]
 80050ca:	2000      	movs	r0, #0
 80050cc:	682e      	ldr	r6, [r5, #0]
 80050ce:	b2c9      	uxtb	r1, r1
 80050d0:	2a00      	cmp	r2, #0
 80050d2:	d142      	bne.n	800515a <tcp_alloc+0xf2>
 80050d4:	b113      	cbz	r3, 80050dc <tcp_alloc+0x74>
 80050d6:	4618      	mov	r0, r3
 80050d8:	f7ff ff62 	bl	8004fa0 <tcp_abort>
 80050dc:	2001      	movs	r0, #1
 80050de:	f7fe ffb9 	bl	8004054 <memp_malloc>
 80050e2:	4603      	mov	r3, r0
 80050e4:	b310      	cbz	r0, 800512c <tcp_alloc+0xc4>
 80050e6:	229c      	movs	r2, #156	; 0x9c
 80050e8:	4618      	mov	r0, r3
 80050ea:	2100      	movs	r1, #0
 80050ec:	f004 fd51 	bl	8009b92 <memset>
 80050f0:	f44f 6286 	mov.w	r2, #1072	; 0x430
 80050f4:	4603      	mov	r3, r0
 80050f6:	7544      	strb	r4, [r0, #21]
 80050f8:	f8a0 2064 	strh.w	r2, [r0, #100]	; 0x64
 80050fc:	4a21      	ldr	r2, [pc, #132]	; (8005184 <tcp_alloc+0x11c>)
 80050fe:	6282      	str	r2, [r0, #40]	; 0x28
 8005100:	22ff      	movs	r2, #255	; 0xff
 8005102:	72c2      	strb	r2, [r0, #11]
 8005104:	2206      	movs	r2, #6
 8005106:	f8a0 2040 	strh.w	r2, [r0, #64]	; 0x40
 800510a:	87c2      	strh	r2, [r0, #62]	; 0x3e
 800510c:	4a1e      	ldr	r2, [pc, #120]	; (8005188 <tcp_alloc+0x120>)
 800510e:	6302      	str	r2, [r0, #48]	; 0x30
 8005110:	4a1b      	ldr	r2, [pc, #108]	; (8005180 <tcp_alloc+0x118>)
 8005112:	6812      	ldr	r2, [r2, #0]
 8005114:	6202      	str	r2, [r0, #32]
 8005116:	4a1d      	ldr	r2, [pc, #116]	; (800518c <tcp_alloc+0x124>)
 8005118:	7812      	ldrb	r2, [r2, #0]
 800511a:	7782      	strb	r2, [r0, #30]
 800511c:	4a1c      	ldr	r2, [pc, #112]	; (8005190 <tcp_alloc+0x128>)
 800511e:	6482      	str	r2, [r0, #72]	; 0x48
 8005120:	4a1c      	ldr	r2, [pc, #112]	; (8005194 <tcp_alloc+0x12c>)
 8005122:	f8c0 2084 	str.w	r2, [r0, #132]	; 0x84
 8005126:	4a1c      	ldr	r2, [pc, #112]	; (8005198 <tcp_alloc+0x130>)
 8005128:	f8c0 2094 	str.w	r2, [r0, #148]	; 0x94
 800512c:	4618      	mov	r0, r3
 800512e:	bdf8      	pop	{r3, r4, r5, r6, r7, pc}
 8005130:	8b43      	ldrh	r3, [r0, #26]
 8005132:	68c5      	ldr	r5, [r0, #12]
 8005134:	0719      	lsls	r1, r3, #28
 8005136:	d504      	bpl.n	8005142 <tcp_alloc+0xda>
 8005138:	f023 0308 	bic.w	r3, r3, #8
 800513c:	8343      	strh	r3, [r0, #26]
 800513e:	f7ff fcd1 	bl	8004ae4 <tcp_close_shutdown_fin>
 8005142:	4628      	mov	r0, r5
 8005144:	e79a      	b.n	800507c <tcp_alloc+0x14>
 8005146:	6a1a      	ldr	r2, [r3, #32]
 8005148:	1aba      	subs	r2, r7, r2
 800514a:	428a      	cmp	r2, r1
 800514c:	bf24      	itt	cs
 800514e:	4618      	movcs	r0, r3
 8005150:	4611      	movcs	r1, r2
 8005152:	68db      	ldr	r3, [r3, #12]
 8005154:	e799      	b.n	800508a <tcp_alloc+0x22>
 8005156:	217f      	movs	r1, #127	; 0x7f
 8005158:	e7b5      	b.n	80050c6 <tcp_alloc+0x5e>
 800515a:	7d57      	ldrb	r7, [r2, #21]
 800515c:	428f      	cmp	r7, r1
 800515e:	d304      	bcc.n	800516a <tcp_alloc+0x102>
 8005160:	d107      	bne.n	8005172 <tcp_alloc+0x10a>
 8005162:	6a15      	ldr	r5, [r2, #32]
 8005164:	1b75      	subs	r5, r6, r5
 8005166:	4285      	cmp	r5, r0
 8005168:	d303      	bcc.n	8005172 <tcp_alloc+0x10a>
 800516a:	6a10      	ldr	r0, [r2, #32]
 800516c:	4639      	mov	r1, r7
 800516e:	4613      	mov	r3, r2
 8005170:	1a30      	subs	r0, r6, r0
 8005172:	68d2      	ldr	r2, [r2, #12]
 8005174:	e7ac      	b.n	80050d0 <tcp_alloc+0x68>
 8005176:	bf00      	nop
 8005178:	2000aa1c 	.word	0x2000aa1c
 800517c:	2000aa34 	.word	0x2000aa34
 8005180:	2000aa2c 	.word	0x2000aa2c
 8005184:	08600860 	.word	0x08600860
 8005188:	0218ffff 	.word	0x0218ffff
 800518c:	2000aa31 	.word	0x2000aa31
 8005190:	04300001 	.word	0x04300001
 8005194:	0800533d 	.word	0x0800533d
 8005198:	006ddd00 	.word	0x006ddd00

0800519c <tcp_close_shutdown>:
 800519c:	b530      	push	{r4, r5, lr}
 800519e:	460d      	mov	r5, r1
 80051a0:	b085      	sub	sp, #20
 80051a2:	4604      	mov	r4, r0
 80051a4:	b930      	cbnz	r0, 80051b4 <tcp_close_shutdown+0x18>
 80051a6:	4b4b      	ldr	r3, [pc, #300]	; (80052d4 <tcp_close_shutdown+0x138>)
 80051a8:	f44f 72af 	mov.w	r2, #350	; 0x15e
 80051ac:	494a      	ldr	r1, [pc, #296]	; (80052d8 <tcp_close_shutdown+0x13c>)
 80051ae:	484b      	ldr	r0, [pc, #300]	; (80052dc <tcp_close_shutdown+0x140>)
 80051b0:	f004 fc88 	bl	8009ac4 <iprintf>
 80051b4:	7d23      	ldrb	r3, [r4, #20]
 80051b6:	2d00      	cmp	r5, #0
 80051b8:	d03f      	beq.n	800523a <tcp_close_shutdown+0x9e>
 80051ba:	2b04      	cmp	r3, #4
 80051bc:	d001      	beq.n	80051c2 <tcp_close_shutdown+0x26>
 80051be:	2b07      	cmp	r3, #7
 80051c0:	d13b      	bne.n	800523a <tcp_close_shutdown+0x9e>
 80051c2:	6fa2      	ldr	r2, [r4, #120]	; 0x78
 80051c4:	b91a      	cbnz	r2, 80051ce <tcp_close_shutdown+0x32>
 80051c6:	8d22      	ldrh	r2, [r4, #40]	; 0x28
 80051c8:	f5b2 6f06 	cmp.w	r2, #2144	; 0x860
 80051cc:	d035      	beq.n	800523a <tcp_close_shutdown+0x9e>
 80051ce:	8b63      	ldrh	r3, [r4, #26]
 80051d0:	06db      	lsls	r3, r3, #27
 80051d2:	d406      	bmi.n	80051e2 <tcp_close_shutdown+0x46>
 80051d4:	4b3f      	ldr	r3, [pc, #252]	; (80052d4 <tcp_close_shutdown+0x138>)
 80051d6:	f44f 72b2 	mov.w	r2, #356	; 0x164
 80051da:	4941      	ldr	r1, [pc, #260]	; (80052e0 <tcp_close_shutdown+0x144>)
 80051dc:	483f      	ldr	r0, [pc, #252]	; (80052dc <tcp_close_shutdown+0x140>)
 80051de:	f004 fc71 	bl	8009ac4 <iprintf>
 80051e2:	8b23      	ldrh	r3, [r4, #24]
 80051e4:	4620      	mov	r0, r4
 80051e6:	9302      	str	r3, [sp, #8]
 80051e8:	8ae3      	ldrh	r3, [r4, #22]
 80051ea:	9301      	str	r3, [sp, #4]
 80051ec:	1d23      	adds	r3, r4, #4
 80051ee:	9300      	str	r3, [sp, #0]
 80051f0:	4623      	mov	r3, r4
 80051f2:	6a62      	ldr	r2, [r4, #36]	; 0x24
 80051f4:	6d21      	ldr	r1, [r4, #80]	; 0x50
 80051f6:	f002 f9e5 	bl	80075c4 <tcp_rst>
 80051fa:	4620      	mov	r0, r4
 80051fc:	f7ff fdb6 	bl	8004d6c <tcp_pcb_purge>
 8005200:	4a38      	ldr	r2, [pc, #224]	; (80052e4 <tcp_close_shutdown+0x148>)
 8005202:	6813      	ldr	r3, [r2, #0]
 8005204:	42a3      	cmp	r3, r4
 8005206:	d110      	bne.n	800522a <tcp_close_shutdown+0x8e>
 8005208:	68e3      	ldr	r3, [r4, #12]
 800520a:	6013      	str	r3, [r2, #0]
 800520c:	2300      	movs	r3, #0
 800520e:	2201      	movs	r2, #1
 8005210:	60e3      	str	r3, [r4, #12]
 8005212:	4b35      	ldr	r3, [pc, #212]	; (80052e8 <tcp_close_shutdown+0x14c>)
 8005214:	701a      	strb	r2, [r3, #0]
 8005216:	4b35      	ldr	r3, [pc, #212]	; (80052ec <tcp_close_shutdown+0x150>)
 8005218:	681b      	ldr	r3, [r3, #0]
 800521a:	42a3      	cmp	r3, r4
 800521c:	d11d      	bne.n	800525a <tcp_close_shutdown+0xbe>
 800521e:	f001 fe49 	bl	8006eb4 <tcp_trigger_input_pcb_close>
 8005222:	2000      	movs	r0, #0
 8005224:	b005      	add	sp, #20
 8005226:	bd30      	pop	{r4, r5, pc}
 8005228:	4613      	mov	r3, r2
 800522a:	2b00      	cmp	r3, #0
 800522c:	d0ee      	beq.n	800520c <tcp_close_shutdown+0x70>
 800522e:	68da      	ldr	r2, [r3, #12]
 8005230:	42a2      	cmp	r2, r4
 8005232:	d1f9      	bne.n	8005228 <tcp_close_shutdown+0x8c>
 8005234:	68e2      	ldr	r2, [r4, #12]
 8005236:	60da      	str	r2, [r3, #12]
 8005238:	e7e8      	b.n	800520c <tcp_close_shutdown+0x70>
 800523a:	2b01      	cmp	r3, #1
 800523c:	d01a      	beq.n	8005274 <tcp_close_shutdown+0xd8>
 800523e:	2b02      	cmp	r3, #2
 8005240:	d039      	beq.n	80052b6 <tcp_close_shutdown+0x11a>
 8005242:	2b00      	cmp	r3, #0
 8005244:	d13f      	bne.n	80052c6 <tcp_close_shutdown+0x12a>
 8005246:	8ae3      	ldrh	r3, [r4, #22]
 8005248:	b13b      	cbz	r3, 800525a <tcp_close_shutdown+0xbe>
 800524a:	4a29      	ldr	r2, [pc, #164]	; (80052f0 <tcp_close_shutdown+0x154>)
 800524c:	6813      	ldr	r3, [r2, #0]
 800524e:	42a3      	cmp	r3, r4
 8005250:	d108      	bne.n	8005264 <tcp_close_shutdown+0xc8>
 8005252:	68e3      	ldr	r3, [r4, #12]
 8005254:	6013      	str	r3, [r2, #0]
 8005256:	2300      	movs	r3, #0
 8005258:	60e3      	str	r3, [r4, #12]
 800525a:	4620      	mov	r0, r4
 800525c:	f7ff fc7e 	bl	8004b5c <tcp_free>
 8005260:	e7df      	b.n	8005222 <tcp_close_shutdown+0x86>
 8005262:	4613      	mov	r3, r2
 8005264:	2b00      	cmp	r3, #0
 8005266:	d0f6      	beq.n	8005256 <tcp_close_shutdown+0xba>
 8005268:	68da      	ldr	r2, [r3, #12]
 800526a:	42a2      	cmp	r2, r4
 800526c:	d1f9      	bne.n	8005262 <tcp_close_shutdown+0xc6>
 800526e:	68e2      	ldr	r2, [r4, #12]
 8005270:	60da      	str	r2, [r3, #12]
 8005272:	e7f0      	b.n	8005256 <tcp_close_shutdown+0xba>
 8005274:	491f      	ldr	r1, [pc, #124]	; (80052f4 <tcp_close_shutdown+0x158>)
 8005276:	2000      	movs	r0, #0
 8005278:	f851 2f04 	ldr.w	r2, [r1, #4]!
 800527c:	6812      	ldr	r2, [r2, #0]
 800527e:	b9a2      	cbnz	r2, 80052aa <tcp_close_shutdown+0x10e>
 8005280:	3301      	adds	r3, #1
 8005282:	2b04      	cmp	r3, #4
 8005284:	d1f8      	bne.n	8005278 <tcp_close_shutdown+0xdc>
 8005286:	4621      	mov	r1, r4
 8005288:	481b      	ldr	r0, [pc, #108]	; (80052f8 <tcp_close_shutdown+0x15c>)
 800528a:	f7ff fda1 	bl	8004dd0 <tcp_pcb_remove>
 800528e:	7d23      	ldrb	r3, [r4, #20]
 8005290:	2b01      	cmp	r3, #1
 8005292:	d105      	bne.n	80052a0 <tcp_close_shutdown+0x104>
 8005294:	4b0f      	ldr	r3, [pc, #60]	; (80052d4 <tcp_close_shutdown+0x138>)
 8005296:	22df      	movs	r2, #223	; 0xdf
 8005298:	4918      	ldr	r1, [pc, #96]	; (80052fc <tcp_close_shutdown+0x160>)
 800529a:	4810      	ldr	r0, [pc, #64]	; (80052dc <tcp_close_shutdown+0x140>)
 800529c:	f004 fc12 	bl	8009ac4 <iprintf>
 80052a0:	4621      	mov	r1, r4
 80052a2:	2002      	movs	r0, #2
 80052a4:	f7fe ff06 	bl	80040b4 <memp_free>
 80052a8:	e7bb      	b.n	8005222 <tcp_close_shutdown+0x86>
 80052aa:	6fd5      	ldr	r5, [r2, #124]	; 0x7c
 80052ac:	42ac      	cmp	r4, r5
 80052ae:	bf08      	it	eq
 80052b0:	67d0      	streq	r0, [r2, #124]	; 0x7c
 80052b2:	68d2      	ldr	r2, [r2, #12]
 80052b4:	e7e3      	b.n	800527e <tcp_close_shutdown+0xe2>
 80052b6:	4621      	mov	r1, r4
 80052b8:	480a      	ldr	r0, [pc, #40]	; (80052e4 <tcp_close_shutdown+0x148>)
 80052ba:	f7ff fd89 	bl	8004dd0 <tcp_pcb_remove>
 80052be:	4b0a      	ldr	r3, [pc, #40]	; (80052e8 <tcp_close_shutdown+0x14c>)
 80052c0:	2201      	movs	r2, #1
 80052c2:	701a      	strb	r2, [r3, #0]
 80052c4:	e7c9      	b.n	800525a <tcp_close_shutdown+0xbe>
 80052c6:	4620      	mov	r0, r4
 80052c8:	b005      	add	sp, #20
 80052ca:	e8bd 4030 	ldmia.w	sp!, {r4, r5, lr}
 80052ce:	f7ff bc09 	b.w	8004ae4 <tcp_close_shutdown_fin>
 80052d2:	bf00      	nop
 80052d4:	0800c62f 	.word	0x0800c62f
 80052d8:	0800c86f 	.word	0x0800c86f
 80052dc:	0800be06 	.word	0x0800be06
 80052e0:	0800c88f 	.word	0x0800c88f
 80052e4:	2000aa1c 	.word	0x2000aa1c
 80052e8:	2000aa20 	.word	0x2000aa20
 80052ec:	2000aa60 	.word	0x2000aa60
 80052f0:	2000aa24 	.word	0x2000aa24
 80052f4:	0800cae0 	.word	0x0800cae0
 80052f8:	2000aa28 	.word	0x2000aa28
 80052fc:	0800c8a8 	.word	0x0800c8a8

08005300 <tcp_close>:
 8005300:	b508      	push	{r3, lr}
 8005302:	b158      	cbz	r0, 800531c <tcp_close+0x1c>
 8005304:	7d03      	ldrb	r3, [r0, #20]
 8005306:	2101      	movs	r1, #1
 8005308:	2b01      	cmp	r3, #1
 800530a:	bf1e      	ittt	ne
 800530c:	8b43      	ldrhne	r3, [r0, #26]
 800530e:	f043 0310 	orrne.w	r3, r3, #16
 8005312:	8343      	strhne	r3, [r0, #26]
 8005314:	e8bd 4008 	ldmia.w	sp!, {r3, lr}
 8005318:	f7ff bf40 	b.w	800519c <tcp_close_shutdown>
 800531c:	4b04      	ldr	r3, [pc, #16]	; (8005330 <tcp_close+0x30>)
 800531e:	f44f 72f4 	mov.w	r2, #488	; 0x1e8
 8005322:	4904      	ldr	r1, [pc, #16]	; (8005334 <tcp_close+0x34>)
 8005324:	4804      	ldr	r0, [pc, #16]	; (8005338 <tcp_close+0x38>)
 8005326:	f004 fbcd 	bl	8009ac4 <iprintf>
 800532a:	f06f 000f 	mvn.w	r0, #15
 800532e:	bd08      	pop	{r3, pc}
 8005330:	0800c62f 	.word	0x0800c62f
 8005334:	0800c8c1 	.word	0x0800c8c1
 8005338:	0800be06 	.word	0x0800be06

0800533c <tcp_recv_null>:
 800533c:	b510      	push	{r4, lr}
 800533e:	4608      	mov	r0, r1
 8005340:	4614      	mov	r4, r2
 8005342:	b949      	cbnz	r1, 8005358 <tcp_recv_null+0x1c>
 8005344:	4b0c      	ldr	r3, [pc, #48]	; (8005378 <tcp_recv_null+0x3c>)
 8005346:	f44f 62d3 	mov.w	r2, #1688	; 0x698
 800534a:	490c      	ldr	r1, [pc, #48]	; (800537c <tcp_recv_null+0x40>)
 800534c:	480c      	ldr	r0, [pc, #48]	; (8005380 <tcp_recv_null+0x44>)
 800534e:	f004 fbb9 	bl	8009ac4 <iprintf>
 8005352:	f06f 000f 	mvn.w	r0, #15
 8005356:	bd10      	pop	{r4, pc}
 8005358:	b13a      	cbz	r2, 800536a <tcp_recv_null+0x2e>
 800535a:	8911      	ldrh	r1, [r2, #8]
 800535c:	f7ff fc4c 	bl	8004bf8 <tcp_recved>
 8005360:	4620      	mov	r0, r4
 8005362:	f7ff f925 	bl	80045b0 <pbuf_free>
 8005366:	2000      	movs	r0, #0
 8005368:	e7f5      	b.n	8005356 <tcp_recv_null+0x1a>
 800536a:	b91b      	cbnz	r3, 8005374 <tcp_recv_null+0x38>
 800536c:	e8bd 4010 	ldmia.w	sp!, {r4, lr}
 8005370:	f7ff bfc6 	b.w	8005300 <tcp_close>
 8005374:	4610      	mov	r0, r2
 8005376:	e7ee      	b.n	8005356 <tcp_recv_null+0x1a>
 8005378:	0800c62f 	.word	0x0800c62f
 800537c:	0800c8d8 	.word	0x0800c8d8
 8005380:	0800be06 	.word	0x0800be06

08005384 <tcp_process_refused_data>:
 8005384:	b5f8      	push	{r3, r4, r5, r6, r7, lr}
 8005386:	4604      	mov	r4, r0
 8005388:	b950      	cbnz	r0, 80053a0 <tcp_process_refused_data+0x1c>
 800538a:	f06f 050f 	mvn.w	r5, #15
 800538e:	4b1c      	ldr	r3, [pc, #112]	; (8005400 <tcp_process_refused_data+0x7c>)
 8005390:	f240 6209 	movw	r2, #1545	; 0x609
 8005394:	491b      	ldr	r1, [pc, #108]	; (8005404 <tcp_process_refused_data+0x80>)
 8005396:	481c      	ldr	r0, [pc, #112]	; (8005408 <tcp_process_refused_data+0x84>)
 8005398:	f004 fb94 	bl	8009ac4 <iprintf>
 800539c:	4628      	mov	r0, r5
 800539e:	bdf8      	pop	{r3, r4, r5, r6, r7, pc}
 80053a0:	6f86      	ldr	r6, [r0, #120]	; 0x78
 80053a2:	2300      	movs	r3, #0
 80053a4:	f8d0 5084 	ldr.w	r5, [r0, #132]	; 0x84
 80053a8:	7b77      	ldrb	r7, [r6, #13]
 80053aa:	6783      	str	r3, [r0, #120]	; 0x78
 80053ac:	b1dd      	cbz	r5, 80053e6 <tcp_process_refused_data+0x62>
 80053ae:	4601      	mov	r1, r0
 80053b0:	4632      	mov	r2, r6
 80053b2:	6900      	ldr	r0, [r0, #16]
 80053b4:	47a8      	blx	r5
 80053b6:	4605      	mov	r5, r0
 80053b8:	b9e0      	cbnz	r0, 80053f4 <tcp_process_refused_data+0x70>
 80053ba:	06bb      	lsls	r3, r7, #26
 80053bc:	d5ee      	bpl.n	800539c <tcp_process_refused_data+0x18>
 80053be:	8d23      	ldrh	r3, [r4, #40]	; 0x28
 80053c0:	f8d4 6084 	ldr.w	r6, [r4, #132]	; 0x84
 80053c4:	f5b3 6f06 	cmp.w	r3, #2144	; 0x860
 80053c8:	bf1c      	itt	ne
 80053ca:	3301      	addne	r3, #1
 80053cc:	8523      	strhne	r3, [r4, #40]	; 0x28
 80053ce:	2e00      	cmp	r6, #0
 80053d0:	d0e4      	beq.n	800539c <tcp_process_refused_data+0x18>
 80053d2:	2300      	movs	r3, #0
 80053d4:	4621      	mov	r1, r4
 80053d6:	6920      	ldr	r0, [r4, #16]
 80053d8:	461a      	mov	r2, r3
 80053da:	47b0      	blx	r6
 80053dc:	300d      	adds	r0, #13
 80053de:	d1dd      	bne.n	800539c <tcp_process_refused_data+0x18>
 80053e0:	f06f 050c 	mvn.w	r5, #12
 80053e4:	e7da      	b.n	800539c <tcp_process_refused_data+0x18>
 80053e6:	4601      	mov	r1, r0
 80053e8:	462b      	mov	r3, r5
 80053ea:	4632      	mov	r2, r6
 80053ec:	4628      	mov	r0, r5
 80053ee:	f7ff ffa5 	bl	800533c <tcp_recv_null>
 80053f2:	e7e0      	b.n	80053b6 <tcp_process_refused_data+0x32>
 80053f4:	350d      	adds	r5, #13
 80053f6:	d0f3      	beq.n	80053e0 <tcp_process_refused_data+0x5c>
 80053f8:	f06f 0504 	mvn.w	r5, #4
 80053fc:	67a6      	str	r6, [r4, #120]	; 0x78
 80053fe:	e7cd      	b.n	800539c <tcp_process_refused_data+0x18>
 8005400:	0800c62f 	.word	0x0800c62f
 8005404:	0800c8f3 	.word	0x0800c8f3
 8005408:	0800be06 	.word	0x0800be06

0800540c <tcp_fasttmr>:
 800540c:	e92d 43f8 	stmdb	sp!, {r3, r4, r5, r6, r7, r8, r9, lr}
 8005410:	4d1b      	ldr	r5, [pc, #108]	; (8005480 <tcp_fasttmr+0x74>)
 8005412:	4f1c      	ldr	r7, [pc, #112]	; (8005484 <tcp_fasttmr+0x78>)
 8005414:	782b      	ldrb	r3, [r5, #0]
 8005416:	4e1c      	ldr	r6, [pc, #112]	; (8005488 <tcp_fasttmr+0x7c>)
 8005418:	3301      	adds	r3, #1
 800541a:	702b      	strb	r3, [r5, #0]
 800541c:	683c      	ldr	r4, [r7, #0]
 800541e:	f04f 0800 	mov.w	r8, #0
 8005422:	b90c      	cbnz	r4, 8005428 <tcp_fasttmr+0x1c>
 8005424:	e8bd 83f8 	ldmia.w	sp!, {r3, r4, r5, r6, r7, r8, r9, pc}
 8005428:	782b      	ldrb	r3, [r5, #0]
 800542a:	7fa2      	ldrb	r2, [r4, #30]
 800542c:	429a      	cmp	r2, r3
 800542e:	d024      	beq.n	800547a <tcp_fasttmr+0x6e>
 8005430:	77a3      	strb	r3, [r4, #30]
 8005432:	8b63      	ldrh	r3, [r4, #26]
 8005434:	07d9      	lsls	r1, r3, #31
 8005436:	d509      	bpl.n	800544c <tcp_fasttmr+0x40>
 8005438:	f043 0302 	orr.w	r3, r3, #2
 800543c:	4620      	mov	r0, r4
 800543e:	8363      	strh	r3, [r4, #26]
 8005440:	f002 f938 	bl	80076b4 <tcp_output>
 8005444:	8b63      	ldrh	r3, [r4, #26]
 8005446:	f023 0303 	bic.w	r3, r3, #3
 800544a:	8363      	strh	r3, [r4, #26]
 800544c:	8b63      	ldrh	r3, [r4, #26]
 800544e:	071a      	lsls	r2, r3, #28
 8005450:	d505      	bpl.n	800545e <tcp_fasttmr+0x52>
 8005452:	f023 0308 	bic.w	r3, r3, #8
 8005456:	4620      	mov	r0, r4
 8005458:	8363      	strh	r3, [r4, #26]
 800545a:	f7ff fb43 	bl	8004ae4 <tcp_close_shutdown_fin>
 800545e:	6fa3      	ldr	r3, [r4, #120]	; 0x78
 8005460:	f8d4 900c 	ldr.w	r9, [r4, #12]
 8005464:	b13b      	cbz	r3, 8005476 <tcp_fasttmr+0x6a>
 8005466:	4620      	mov	r0, r4
 8005468:	f886 8000 	strb.w	r8, [r6]
 800546c:	f7ff ff8a 	bl	8005384 <tcp_process_refused_data>
 8005470:	7833      	ldrb	r3, [r6, #0]
 8005472:	2b00      	cmp	r3, #0
 8005474:	d1d2      	bne.n	800541c <tcp_fasttmr+0x10>
 8005476:	464c      	mov	r4, r9
 8005478:	e7d3      	b.n	8005422 <tcp_fasttmr+0x16>
 800547a:	f8d4 900c 	ldr.w	r9, [r4, #12]
 800547e:	e7fa      	b.n	8005476 <tcp_fasttmr+0x6a>
 8005480:	2000aa31 	.word	0x2000aa31
 8005484:	2000aa1c 	.word	0x2000aa1c
 8005488:	2000aa20 	.word	0x2000aa20

0800548c <tcp_slowtmr>:
 800548c:	e92d 4ff0 	stmdb	sp!, {r4, r5, r6, r7, r8, r9, sl, fp, lr}
 8005490:	4e91      	ldr	r6, [pc, #580]	; (80056d8 <tcp_slowtmr+0x24c>)
 8005492:	b087      	sub	sp, #28
 8005494:	4a91      	ldr	r2, [pc, #580]	; (80056dc <tcp_slowtmr+0x250>)
 8005496:	6833      	ldr	r3, [r6, #0]
 8005498:	f8df a26c 	ldr.w	sl, [pc, #620]	; 8005708 <tcp_slowtmr+0x27c>
 800549c:	3301      	adds	r3, #1
 800549e:	4f90      	ldr	r7, [pc, #576]	; (80056e0 <tcp_slowtmr+0x254>)
 80054a0:	6033      	str	r3, [r6, #0]
 80054a2:	7813      	ldrb	r3, [r2, #0]
 80054a4:	3301      	adds	r3, #1
 80054a6:	7013      	strb	r3, [r2, #0]
 80054a8:	f8da 4000 	ldr.w	r4, [sl]
 80054ac:	f04f 0900 	mov.w	r9, #0
 80054b0:	f8df 8258 	ldr.w	r8, [pc, #600]	; 800570c <tcp_slowtmr+0x280>
 80054b4:	b96c      	cbnz	r4, 80054d2 <tcp_slowtmr+0x46>
 80054b6:	4f8b      	ldr	r7, [pc, #556]	; (80056e4 <tcp_slowtmr+0x258>)
 80054b8:	f8df 8224 	ldr.w	r8, [pc, #548]	; 80056e0 <tcp_slowtmr+0x254>
 80054bc:	683d      	ldr	r5, [r7, #0]
 80054be:	f8df a250 	ldr.w	sl, [pc, #592]	; 8005710 <tcp_slowtmr+0x284>
 80054c2:	f8df 9248 	ldr.w	r9, [pc, #584]	; 800570c <tcp_slowtmr+0x280>
 80054c6:	2d00      	cmp	r5, #0
 80054c8:	f040 81b8 	bne.w	800583c <tcp_slowtmr+0x3b0>
 80054cc:	b007      	add	sp, #28
 80054ce:	e8bd 8ff0 	ldmia.w	sp!, {r4, r5, r6, r7, r8, r9, sl, fp, pc}
 80054d2:	7d23      	ldrb	r3, [r4, #20]
 80054d4:	b933      	cbnz	r3, 80054e4 <tcp_slowtmr+0x58>
 80054d6:	463b      	mov	r3, r7
 80054d8:	f240 42be 	movw	r2, #1214	; 0x4be
 80054dc:	4982      	ldr	r1, [pc, #520]	; (80056e8 <tcp_slowtmr+0x25c>)
 80054de:	4640      	mov	r0, r8
 80054e0:	f004 faf0 	bl	8009ac4 <iprintf>
 80054e4:	7d23      	ldrb	r3, [r4, #20]
 80054e6:	2b01      	cmp	r3, #1
 80054e8:	d106      	bne.n	80054f8 <tcp_slowtmr+0x6c>
 80054ea:	463b      	mov	r3, r7
 80054ec:	f240 42bf 	movw	r2, #1215	; 0x4bf
 80054f0:	497e      	ldr	r1, [pc, #504]	; (80056ec <tcp_slowtmr+0x260>)
 80054f2:	4640      	mov	r0, r8
 80054f4:	f004 fae6 	bl	8009ac4 <iprintf>
 80054f8:	7d23      	ldrb	r3, [r4, #20]
 80054fa:	2b0a      	cmp	r3, #10
 80054fc:	d106      	bne.n	800550c <tcp_slowtmr+0x80>
 80054fe:	463b      	mov	r3, r7
 8005500:	f44f 6298 	mov.w	r2, #1216	; 0x4c0
 8005504:	497a      	ldr	r1, [pc, #488]	; (80056f0 <tcp_slowtmr+0x264>)
 8005506:	4640      	mov	r0, r8
 8005508:	f004 fadc 	bl	8009ac4 <iprintf>
 800550c:	4b73      	ldr	r3, [pc, #460]	; (80056dc <tcp_slowtmr+0x250>)
 800550e:	7fa2      	ldrb	r2, [r4, #30]
 8005510:	781b      	ldrb	r3, [r3, #0]
 8005512:	429a      	cmp	r2, r3
 8005514:	d103      	bne.n	800551e <tcp_slowtmr+0x92>
 8005516:	68e5      	ldr	r5, [r4, #12]
 8005518:	46a1      	mov	r9, r4
 800551a:	462c      	mov	r4, r5
 800551c:	e7ca      	b.n	80054b4 <tcp_slowtmr+0x28>
 800551e:	7d22      	ldrb	r2, [r4, #20]
 8005520:	77a3      	strb	r3, [r4, #30]
 8005522:	2a02      	cmp	r2, #2
 8005524:	f894 3042 	ldrb.w	r3, [r4, #66]	; 0x42
 8005528:	f040 8089 	bne.w	800563e <tcp_slowtmr+0x1b2>
 800552c:	2b05      	cmp	r3, #5
 800552e:	f240 8088 	bls.w	8005642 <tcp_slowtmr+0x1b6>
 8005532:	f04f 0b01 	mov.w	fp, #1
 8005536:	7d22      	ldrb	r2, [r4, #20]
 8005538:	2a06      	cmp	r2, #6
 800553a:	d10b      	bne.n	8005554 <tcp_slowtmr+0xc8>
 800553c:	8b61      	ldrh	r1, [r4, #26]
 800553e:	06cb      	lsls	r3, r1, #27
 8005540:	d508      	bpl.n	8005554 <tcp_slowtmr+0xc8>
 8005542:	6831      	ldr	r1, [r6, #0]
 8005544:	6a20      	ldr	r0, [r4, #32]
 8005546:	1a09      	subs	r1, r1, r0
 8005548:	2928      	cmp	r1, #40	; 0x28
 800554a:	bf84      	itt	hi
 800554c:	f10b 0301 	addhi.w	r3, fp, #1
 8005550:	fa5f fb83 	uxtbhi.w	fp, r3
 8005554:	7a65      	ldrb	r5, [r4, #9]
 8005556:	f015 0508 	ands.w	r5, r5, #8
 800555a:	d019      	beq.n	8005590 <tcp_slowtmr+0x104>
 800555c:	2a04      	cmp	r2, #4
 800555e:	d002      	beq.n	8005566 <tcp_slowtmr+0xda>
 8005560:	2a07      	cmp	r2, #7
 8005562:	f040 8132 	bne.w	80057ca <tcp_slowtmr+0x33e>
 8005566:	6a22      	ldr	r2, [r4, #32]
 8005568:	f44f 75fa 	mov.w	r5, #500	; 0x1f4
 800556c:	6830      	ldr	r0, [r6, #0]
 800556e:	1a80      	subs	r0, r0, r2
 8005570:	f8d4 2094 	ldr.w	r2, [r4, #148]	; 0x94
 8005574:	f502 2124 	add.w	r1, r2, #671744	; 0xa4000
 8005578:	f601 41b8 	addw	r1, r1, #3256	; 0xcb8
 800557c:	fbb1 f1f5 	udiv	r1, r1, r5
 8005580:	4288      	cmp	r0, r1
 8005582:	f240 8110 	bls.w	80057a6 <tcp_slowtmr+0x31a>
 8005586:	f10b 0301 	add.w	r3, fp, #1
 800558a:	2501      	movs	r5, #1
 800558c:	fa5f fb83 	uxtb.w	fp, r3
 8005590:	6f62      	ldr	r2, [r4, #116]	; 0x74
 8005592:	b162      	cbz	r2, 80055ae <tcp_slowtmr+0x122>
 8005594:	6832      	ldr	r2, [r6, #0]
 8005596:	6a21      	ldr	r1, [r4, #32]
 8005598:	1a51      	subs	r1, r2, r1
 800559a:	f9b4 2040 	ldrsh.w	r2, [r4, #64]	; 0x40
 800559e:	eb02 0242 	add.w	r2, r2, r2, lsl #1
 80055a2:	ebb1 0f42 	cmp.w	r1, r2, lsl #1
 80055a6:	d302      	bcc.n	80055ae <tcp_slowtmr+0x122>
 80055a8:	4620      	mov	r0, r4
 80055aa:	f7ff fbd5 	bl	8004d58 <tcp_free_ooseq>
 80055ae:	7d22      	ldrb	r2, [r4, #20]
 80055b0:	2a03      	cmp	r2, #3
 80055b2:	f040 810c 	bne.w	80057ce <tcp_slowtmr+0x342>
 80055b6:	6832      	ldr	r2, [r6, #0]
 80055b8:	6a21      	ldr	r1, [r4, #32]
 80055ba:	1a52      	subs	r2, r2, r1
 80055bc:	2a28      	cmp	r2, #40	; 0x28
 80055be:	d803      	bhi.n	80055c8 <tcp_slowtmr+0x13c>
 80055c0:	f1bb 0f00 	cmp.w	fp, #0
 80055c4:	f000 8118 	beq.w	80057f8 <tcp_slowtmr+0x36c>
 80055c8:	4620      	mov	r0, r4
 80055ca:	f8d4 b090 	ldr.w	fp, [r4, #144]	; 0x90
 80055ce:	f7ff fbcd 	bl	8004d6c <tcp_pcb_purge>
 80055d2:	f8da 3000 	ldr.w	r3, [sl]
 80055d6:	f1b9 0f00 	cmp.w	r9, #0
 80055da:	f000 8100 	beq.w	80057de <tcp_slowtmr+0x352>
 80055de:	42a3      	cmp	r3, r4
 80055e0:	d106      	bne.n	80055f0 <tcp_slowtmr+0x164>
 80055e2:	463b      	mov	r3, r7
 80055e4:	f240 526d 	movw	r2, #1389	; 0x56d
 80055e8:	4942      	ldr	r1, [pc, #264]	; (80056f4 <tcp_slowtmr+0x268>)
 80055ea:	4640      	mov	r0, r8
 80055ec:	f004 fa6a 	bl	8009ac4 <iprintf>
 80055f0:	68e3      	ldr	r3, [r4, #12]
 80055f2:	f8c9 300c 	str.w	r3, [r9, #12]
 80055f6:	b15d      	cbz	r5, 8005610 <tcp_slowtmr+0x184>
 80055f8:	8b23      	ldrh	r3, [r4, #24]
 80055fa:	4620      	mov	r0, r4
 80055fc:	9302      	str	r3, [sp, #8]
 80055fe:	8ae3      	ldrh	r3, [r4, #22]
 8005600:	9301      	str	r3, [sp, #4]
 8005602:	1d23      	adds	r3, r4, #4
 8005604:	9300      	str	r3, [sp, #0]
 8005606:	4623      	mov	r3, r4
 8005608:	6a62      	ldr	r2, [r4, #36]	; 0x24
 800560a:	6d21      	ldr	r1, [r4, #80]	; 0x50
 800560c:	f001 ffda 	bl	80075c4 <tcp_rst>
 8005610:	6923      	ldr	r3, [r4, #16]
 8005612:	4620      	mov	r0, r4
 8005614:	68e5      	ldr	r5, [r4, #12]
 8005616:	9305      	str	r3, [sp, #20]
 8005618:	f7ff faa0 	bl	8004b5c <tcp_free>
 800561c:	4c36      	ldr	r4, [pc, #216]	; (80056f8 <tcp_slowtmr+0x26c>)
 800561e:	2200      	movs	r2, #0
 8005620:	7022      	strb	r2, [r4, #0]
 8005622:	f1bb 0f00 	cmp.w	fp, #0
 8005626:	d008      	beq.n	800563a <tcp_slowtmr+0x1ae>
 8005628:	9b05      	ldr	r3, [sp, #20]
 800562a:	f06f 010c 	mvn.w	r1, #12
 800562e:	4618      	mov	r0, r3
 8005630:	47d8      	blx	fp
 8005632:	7823      	ldrb	r3, [r4, #0]
 8005634:	2b00      	cmp	r3, #0
 8005636:	f47f af37 	bne.w	80054a8 <tcp_slowtmr+0x1c>
 800563a:	464c      	mov	r4, r9
 800563c:	e76c      	b.n	8005518 <tcp_slowtmr+0x8c>
 800563e:	2b0b      	cmp	r3, #11
 8005640:	e775      	b.n	800552e <tcp_slowtmr+0xa2>
 8005642:	f894 b099 	ldrb.w	fp, [r4, #153]	; 0x99
 8005646:	f1bb 0f00 	cmp.w	fp, #0
 800564a:	d063      	beq.n	8005714 <tcp_slowtmr+0x288>
 800564c:	6f23      	ldr	r3, [r4, #112]	; 0x70
 800564e:	b133      	cbz	r3, 800565e <tcp_slowtmr+0x1d2>
 8005650:	463b      	mov	r3, r7
 8005652:	f240 42d4 	movw	r2, #1236	; 0x4d4
 8005656:	4929      	ldr	r1, [pc, #164]	; (80056fc <tcp_slowtmr+0x270>)
 8005658:	4640      	mov	r0, r8
 800565a:	f004 fa33 	bl	8009ac4 <iprintf>
 800565e:	6ee3      	ldr	r3, [r4, #108]	; 0x6c
 8005660:	b933      	cbnz	r3, 8005670 <tcp_slowtmr+0x1e4>
 8005662:	463b      	mov	r3, r7
 8005664:	f240 42d5 	movw	r2, #1237	; 0x4d5
 8005668:	4925      	ldr	r1, [pc, #148]	; (8005700 <tcp_slowtmr+0x274>)
 800566a:	4640      	mov	r0, r8
 800566c:	f004 fa2a 	bl	8009ac4 <iprintf>
 8005670:	f894 309a 	ldrb.w	r3, [r4, #154]	; 0x9a
 8005674:	2b0b      	cmp	r3, #11
 8005676:	f63f af5c 	bhi.w	8005532 <tcp_slowtmr+0xa6>
 800567a:	f894 2099 	ldrb.w	r2, [r4, #153]	; 0x99
 800567e:	4b21      	ldr	r3, [pc, #132]	; (8005704 <tcp_slowtmr+0x278>)
 8005680:	4413      	add	r3, r2
 8005682:	f813 2c01 	ldrb.w	r2, [r3, #-1]
 8005686:	f894 3098 	ldrb.w	r3, [r4, #152]	; 0x98
 800568a:	4293      	cmp	r3, r2
 800568c:	d30b      	bcc.n	80056a6 <tcp_slowtmr+0x21a>
 800568e:	f8b4 1060 	ldrh.w	r1, [r4, #96]	; 0x60
 8005692:	b189      	cbz	r1, 80056b8 <tcp_slowtmr+0x22c>
 8005694:	4620      	mov	r0, r4
 8005696:	f001 fd4d 	bl	8007134 <tcp_split_unsent_seg>
 800569a:	b990      	cbnz	r0, 80056c2 <tcp_slowtmr+0x236>
 800569c:	4620      	mov	r0, r4
 800569e:	f002 f809 	bl	80076b4 <tcp_output>
 80056a2:	b130      	cbz	r0, 80056b2 <tcp_slowtmr+0x226>
 80056a4:	e00d      	b.n	80056c2 <tcp_slowtmr+0x236>
 80056a6:	3301      	adds	r3, #1
 80056a8:	b2db      	uxtb	r3, r3
 80056aa:	4293      	cmp	r3, r2
 80056ac:	f884 3098 	strb.w	r3, [r4, #152]	; 0x98
 80056b0:	d2ed      	bcs.n	800568e <tcp_slowtmr+0x202>
 80056b2:	f04f 0b00 	mov.w	fp, #0
 80056b6:	e73e      	b.n	8005536 <tcp_slowtmr+0xaa>
 80056b8:	4620      	mov	r0, r4
 80056ba:	f002 fa03 	bl	8007ac4 <tcp_zero_window_probe>
 80056be:	2800      	cmp	r0, #0
 80056c0:	d1f7      	bne.n	80056b2 <tcp_slowtmr+0x226>
 80056c2:	f894 2099 	ldrb.w	r2, [r4, #153]	; 0x99
 80056c6:	2300      	movs	r3, #0
 80056c8:	2a06      	cmp	r2, #6
 80056ca:	f884 3098 	strb.w	r3, [r4, #152]	; 0x98
 80056ce:	d8f0      	bhi.n	80056b2 <tcp_slowtmr+0x226>
 80056d0:	3201      	adds	r2, #1
 80056d2:	f884 2099 	strb.w	r2, [r4, #153]	; 0x99
 80056d6:	e7ec      	b.n	80056b2 <tcp_slowtmr+0x226>
 80056d8:	2000aa2c 	.word	0x2000aa2c
 80056dc:	2000aa31 	.word	0x2000aa31
 80056e0:	0800c62f 	.word	0x0800c62f
 80056e4:	2000aa34 	.word	0x2000aa34
 80056e8:	0800c919 	.word	0x0800c919
 80056ec:	0800c943 	.word	0x0800c943
 80056f0:	0800c96d 	.word	0x0800c96d
 80056f4:	0800ca01 	.word	0x0800ca01
 80056f8:	2000aa20 	.word	0x2000aa20
 80056fc:	0800c99a 	.word	0x0800c99a
 8005700:	0800c9cc 	.word	0x0800c9cc
 8005704:	0800caf0 	.word	0x0800caf0
 8005708:	2000aa1c 	.word	0x2000aa1c
 800570c:	0800be06 	.word	0x0800be06
 8005710:	0800ca56 	.word	0x0800ca56
 8005714:	8e22      	ldrh	r2, [r4, #48]	; 0x30
 8005716:	f647 71fe 	movw	r1, #32766	; 0x7ffe
 800571a:	428a      	cmp	r2, r1
 800571c:	bf9c      	itt	ls
 800571e:	3201      	addls	r2, #1
 8005720:	8622      	strhls	r2, [r4, #48]	; 0x30
 8005722:	f9b4 2040 	ldrsh.w	r2, [r4, #64]	; 0x40
 8005726:	f9b4 1030 	ldrsh.w	r1, [r4, #48]	; 0x30
 800572a:	4291      	cmp	r1, r2
 800572c:	dbc1      	blt.n	80056b2 <tcp_slowtmr+0x226>
 800572e:	4620      	mov	r0, r4
 8005730:	f001 fe90 	bl	8007454 <tcp_rexmit_rto_prepare>
 8005734:	b128      	cbz	r0, 8005742 <tcp_slowtmr+0x2b6>
 8005736:	6f22      	ldr	r2, [r4, #112]	; 0x70
 8005738:	2a00      	cmp	r2, #0
 800573a:	d1ba      	bne.n	80056b2 <tcp_slowtmr+0x226>
 800573c:	6ee2      	ldr	r2, [r4, #108]	; 0x6c
 800573e:	2a00      	cmp	r2, #0
 8005740:	d0b7      	beq.n	80056b2 <tcp_slowtmr+0x226>
 8005742:	7d22      	ldrb	r2, [r4, #20]
 8005744:	2a02      	cmp	r2, #2
 8005746:	d014      	beq.n	8005772 <tcp_slowtmr+0x2e6>
 8005748:	f9b4 103c 	ldrsh.w	r1, [r4, #60]	; 0x3c
 800574c:	f9b4 203e 	ldrsh.w	r2, [r4, #62]	; 0x3e
 8005750:	4855      	ldr	r0, [pc, #340]	; (80058a8 <tcp_slowtmr+0x41c>)
 8005752:	eb02 02e1 	add.w	r2, r2, r1, asr #3
 8005756:	f894 1042 	ldrb.w	r1, [r4, #66]	; 0x42
 800575a:	290c      	cmp	r1, #12
 800575c:	bf28      	it	cs
 800575e:	210c      	movcs	r1, #12
 8005760:	5c41      	ldrb	r1, [r0, r1]
 8005762:	408a      	lsls	r2, r1
 8005764:	f647 71ff 	movw	r1, #32767	; 0x7fff
 8005768:	428a      	cmp	r2, r1
 800576a:	bfa8      	it	ge
 800576c:	460a      	movge	r2, r1
 800576e:	f8a4 2040 	strh.w	r2, [r4, #64]	; 0x40
 8005772:	f8b4 5048 	ldrh.w	r5, [r4, #72]	; 0x48
 8005776:	2100      	movs	r1, #0
 8005778:	f8b4 2060 	ldrh.w	r2, [r4, #96]	; 0x60
 800577c:	8e60      	ldrh	r0, [r4, #50]	; 0x32
 800577e:	42aa      	cmp	r2, r5
 8005780:	8621      	strh	r1, [r4, #48]	; 0x30
 8005782:	f8a4 0048 	strh.w	r0, [r4, #72]	; 0x48
 8005786:	bf28      	it	cs
 8005788:	462a      	movcs	r2, r5
 800578a:	0045      	lsls	r5, r0, #1
 800578c:	f8a4 106a 	strh.w	r1, [r4, #106]	; 0x6a
 8005790:	4620      	mov	r0, r4
 8005792:	0852      	lsrs	r2, r2, #1
 8005794:	b2ad      	uxth	r5, r5
 8005796:	42aa      	cmp	r2, r5
 8005798:	bf38      	it	cc
 800579a:	462a      	movcc	r2, r5
 800579c:	f8a4 204a 	strh.w	r2, [r4, #74]	; 0x4a
 80057a0:	f002 f932 	bl	8007a08 <tcp_rexmit_rto_commit>
 80057a4:	e6c7      	b.n	8005536 <tcp_slowtmr+0xaa>
 80057a6:	f894 109b 	ldrb.w	r1, [r4, #155]	; 0x9b
 80057aa:	4b40      	ldr	r3, [pc, #256]	; (80058ac <tcp_slowtmr+0x420>)
 80057ac:	fb03 2201 	mla	r2, r3, r1, r2
 80057b0:	fbb2 f2f5 	udiv	r2, r2, r5
 80057b4:	4290      	cmp	r0, r2
 80057b6:	d908      	bls.n	80057ca <tcp_slowtmr+0x33e>
 80057b8:	4620      	mov	r0, r4
 80057ba:	f002 f95b 	bl	8007a74 <tcp_keepalive>
 80057be:	b920      	cbnz	r0, 80057ca <tcp_slowtmr+0x33e>
 80057c0:	f894 209b 	ldrb.w	r2, [r4, #155]	; 0x9b
 80057c4:	3201      	adds	r2, #1
 80057c6:	f884 209b 	strb.w	r2, [r4, #155]	; 0x9b
 80057ca:	2500      	movs	r5, #0
 80057cc:	e6e0      	b.n	8005590 <tcp_slowtmr+0x104>
 80057ce:	2a09      	cmp	r2, #9
 80057d0:	f47f aef6 	bne.w	80055c0 <tcp_slowtmr+0x134>
 80057d4:	6832      	ldr	r2, [r6, #0]
 80057d6:	6a21      	ldr	r1, [r4, #32]
 80057d8:	1a52      	subs	r2, r2, r1
 80057da:	2af0      	cmp	r2, #240	; 0xf0
 80057dc:	e6ef      	b.n	80055be <tcp_slowtmr+0x132>
 80057de:	42a3      	cmp	r3, r4
 80057e0:	d006      	beq.n	80057f0 <tcp_slowtmr+0x364>
 80057e2:	463b      	mov	r3, r7
 80057e4:	f240 5271 	movw	r2, #1393	; 0x571
 80057e8:	4931      	ldr	r1, [pc, #196]	; (80058b0 <tcp_slowtmr+0x424>)
 80057ea:	4640      	mov	r0, r8
 80057ec:	f004 f96a 	bl	8009ac4 <iprintf>
 80057f0:	68e3      	ldr	r3, [r4, #12]
 80057f2:	f8ca 3000 	str.w	r3, [sl]
 80057f6:	e6fe      	b.n	80055f6 <tcp_slowtmr+0x16a>
 80057f8:	7f22      	ldrb	r2, [r4, #28]
 80057fa:	7f61      	ldrb	r1, [r4, #29]
 80057fc:	3201      	adds	r2, #1
 80057fe:	68e5      	ldr	r5, [r4, #12]
 8005800:	b2d2      	uxtb	r2, r2
 8005802:	4291      	cmp	r1, r2
 8005804:	7722      	strb	r2, [r4, #28]
 8005806:	f63f ae87 	bhi.w	8005518 <tcp_slowtmr+0x8c>
 800580a:	f8df 90b0 	ldr.w	r9, [pc, #176]	; 80058bc <tcp_slowtmr+0x430>
 800580e:	f8d4 308c 	ldr.w	r3, [r4, #140]	; 0x8c
 8005812:	f884 b01c 	strb.w	fp, [r4, #28]
 8005816:	f889 b000 	strb.w	fp, [r9]
 800581a:	b91b      	cbnz	r3, 8005824 <tcp_slowtmr+0x398>
 800581c:	4620      	mov	r0, r4
 800581e:	f001 ff49 	bl	80076b4 <tcp_output>
 8005822:	e679      	b.n	8005518 <tcp_slowtmr+0x8c>
 8005824:	4621      	mov	r1, r4
 8005826:	6920      	ldr	r0, [r4, #16]
 8005828:	4798      	blx	r3
 800582a:	f899 3000 	ldrb.w	r3, [r9]
 800582e:	2b00      	cmp	r3, #0
 8005830:	f47f ae3a 	bne.w	80054a8 <tcp_slowtmr+0x1c>
 8005834:	2800      	cmp	r0, #0
 8005836:	f47f ae6f 	bne.w	8005518 <tcp_slowtmr+0x8c>
 800583a:	e7ef      	b.n	800581c <tcp_slowtmr+0x390>
 800583c:	7d2b      	ldrb	r3, [r5, #20]
 800583e:	2b0a      	cmp	r3, #10
 8005840:	d006      	beq.n	8005850 <tcp_slowtmr+0x3c4>
 8005842:	4643      	mov	r3, r8
 8005844:	f240 52a1 	movw	r2, #1441	; 0x5a1
 8005848:	4651      	mov	r1, sl
 800584a:	4648      	mov	r0, r9
 800584c:	f004 f93a 	bl	8009ac4 <iprintf>
 8005850:	6833      	ldr	r3, [r6, #0]
 8005852:	6a2a      	ldr	r2, [r5, #32]
 8005854:	1a9b      	subs	r3, r3, r2
 8005856:	2bf0      	cmp	r3, #240	; 0xf0
 8005858:	d910      	bls.n	800587c <tcp_slowtmr+0x3f0>
 800585a:	4628      	mov	r0, r5
 800585c:	f7ff fa86 	bl	8004d6c <tcp_pcb_purge>
 8005860:	b97c      	cbnz	r4, 8005882 <tcp_slowtmr+0x3f6>
 8005862:	683b      	ldr	r3, [r7, #0]
 8005864:	42ab      	cmp	r3, r5
 8005866:	d006      	beq.n	8005876 <tcp_slowtmr+0x3ea>
 8005868:	4643      	mov	r3, r8
 800586a:	f240 52b3 	movw	r2, #1459	; 0x5b3
 800586e:	4911      	ldr	r1, [pc, #68]	; (80058b4 <tcp_slowtmr+0x428>)
 8005870:	4648      	mov	r0, r9
 8005872:	f004 f927 	bl	8009ac4 <iprintf>
 8005876:	68eb      	ldr	r3, [r5, #12]
 8005878:	603b      	str	r3, [r7, #0]
 800587a:	e00e      	b.n	800589a <tcp_slowtmr+0x40e>
 800587c:	462c      	mov	r4, r5
 800587e:	68ed      	ldr	r5, [r5, #12]
 8005880:	e621      	b.n	80054c6 <tcp_slowtmr+0x3a>
 8005882:	683b      	ldr	r3, [r7, #0]
 8005884:	42ab      	cmp	r3, r5
 8005886:	d106      	bne.n	8005896 <tcp_slowtmr+0x40a>
 8005888:	4643      	mov	r3, r8
 800588a:	f240 52af 	movw	r2, #1455	; 0x5af
 800588e:	490a      	ldr	r1, [pc, #40]	; (80058b8 <tcp_slowtmr+0x42c>)
 8005890:	4648      	mov	r0, r9
 8005892:	f004 f917 	bl	8009ac4 <iprintf>
 8005896:	68eb      	ldr	r3, [r5, #12]
 8005898:	60e3      	str	r3, [r4, #12]
 800589a:	f8d5 b00c 	ldr.w	fp, [r5, #12]
 800589e:	4628      	mov	r0, r5
 80058a0:	f7ff f95c 	bl	8004b5c <tcp_free>
 80058a4:	465d      	mov	r5, fp
 80058a6:	e60e      	b.n	80054c6 <tcp_slowtmr+0x3a>
 80058a8:	0800cad2 	.word	0x0800cad2
 80058ac:	000124f8 	.word	0x000124f8
 80058b0:	0800ca2c 	.word	0x0800ca2c
 80058b4:	0800caac 	.word	0x0800caac
 80058b8:	0800ca85 	.word	0x0800ca85
 80058bc:	2000aa20 	.word	0x2000aa20

080058c0 <tcp_tmr>:
 80058c0:	b508      	push	{r3, lr}
 80058c2:	f7ff fda3 	bl	800540c <tcp_fasttmr>
 80058c6:	4a06      	ldr	r2, [pc, #24]	; (80058e0 <tcp_tmr+0x20>)
 80058c8:	7813      	ldrb	r3, [r2, #0]
 80058ca:	3301      	adds	r3, #1
 80058cc:	b2db      	uxtb	r3, r3
 80058ce:	7013      	strb	r3, [r2, #0]
 80058d0:	07db      	lsls	r3, r3, #31
 80058d2:	d503      	bpl.n	80058dc <tcp_tmr+0x1c>
 80058d4:	e8bd 4008 	ldmia.w	sp!, {r3, lr}
 80058d8:	f7ff bdd8 	b.w	800548c <tcp_slowtmr>
 80058dc:	bd08      	pop	{r3, pc}
 80058de:	bf00      	nop
 80058e0:	2000aa30 	.word	0x2000aa30

080058e4 <tcp_get_next_optbyte>:
 80058e4:	4a09      	ldr	r2, [pc, #36]	; (800590c <tcp_get_next_optbyte+0x28>)
 80058e6:	8813      	ldrh	r3, [r2, #0]
 80058e8:	1c59      	adds	r1, r3, #1
 80058ea:	8011      	strh	r1, [r2, #0]
 80058ec:	4a08      	ldr	r2, [pc, #32]	; (8005910 <tcp_get_next_optbyte+0x2c>)
 80058ee:	6812      	ldr	r2, [r2, #0]
 80058f0:	b11a      	cbz	r2, 80058fa <tcp_get_next_optbyte+0x16>
 80058f2:	4908      	ldr	r1, [pc, #32]	; (8005914 <tcp_get_next_optbyte+0x30>)
 80058f4:	8809      	ldrh	r1, [r1, #0]
 80058f6:	428b      	cmp	r3, r1
 80058f8:	d204      	bcs.n	8005904 <tcp_get_next_optbyte+0x20>
 80058fa:	4a07      	ldr	r2, [pc, #28]	; (8005918 <tcp_get_next_optbyte+0x34>)
 80058fc:	6812      	ldr	r2, [r2, #0]
 80058fe:	4413      	add	r3, r2
 8005900:	7d18      	ldrb	r0, [r3, #20]
 8005902:	4770      	bx	lr
 8005904:	1a5b      	subs	r3, r3, r1
 8005906:	b2db      	uxtb	r3, r3
 8005908:	5cd0      	ldrb	r0, [r2, r3]
 800590a:	4770      	bx	lr
 800590c:	2000aa64 	.word	0x2000aa64
 8005910:	2000aa70 	.word	0x2000aa70
 8005914:	2000aa6c 	.word	0x2000aa6c
 8005918:	2000aa68 	.word	0x2000aa68

0800591c <tcp_oos_insert_segment>:
 800591c:	b5f8      	push	{r3, r4, r5, r6, r7, lr}
 800591e:	460c      	mov	r4, r1
 8005920:	4605      	mov	r5, r0
 8005922:	b930      	cbnz	r0, 8005932 <tcp_oos_insert_segment+0x16>
 8005924:	4b1e      	ldr	r3, [pc, #120]	; (80059a0 <tcp_oos_insert_segment+0x84>)
 8005926:	f240 421f 	movw	r2, #1055	; 0x41f
 800592a:	491e      	ldr	r1, [pc, #120]	; (80059a4 <tcp_oos_insert_segment+0x88>)
 800592c:	481e      	ldr	r0, [pc, #120]	; (80059a8 <tcp_oos_insert_segment+0x8c>)
 800592e:	f004 f8c9 	bl	8009ac4 <iprintf>
 8005932:	68eb      	ldr	r3, [r5, #12]
 8005934:	8998      	ldrh	r0, [r3, #12]
 8005936:	f7fe f8f1 	bl	8003b1c <lwip_htons>
 800593a:	07c2      	lsls	r2, r0, #31
 800593c:	d414      	bmi.n	8005968 <tcp_oos_insert_segment+0x4c>
 800593e:	4e1b      	ldr	r6, [pc, #108]	; (80059ac <tcp_oos_insert_segment+0x90>)
 8005940:	68e7      	ldr	r7, [r4, #12]
 8005942:	6830      	ldr	r0, [r6, #0]
 8005944:	892b      	ldrh	r3, [r5, #8]
 8005946:	6879      	ldr	r1, [r7, #4]
 8005948:	8922      	ldrh	r2, [r4, #8]
 800594a:	4403      	add	r3, r0
 800594c:	440a      	add	r2, r1
 800594e:	1a9a      	subs	r2, r3, r2
 8005950:	2a00      	cmp	r2, #0
 8005952:	da0f      	bge.n	8005974 <tcp_oos_insert_segment+0x58>
 8005954:	1a5b      	subs	r3, r3, r1
 8005956:	2b00      	cmp	r3, #0
 8005958:	dd0a      	ble.n	8005970 <tcp_oos_insert_segment+0x54>
 800595a:	1a09      	subs	r1, r1, r0
 800595c:	6868      	ldr	r0, [r5, #4]
 800595e:	b289      	uxth	r1, r1
 8005960:	8129      	strh	r1, [r5, #8]
 8005962:	f7fe ff09 	bl	8004778 <pbuf_realloc>
 8005966:	e003      	b.n	8005970 <tcp_oos_insert_segment+0x54>
 8005968:	4620      	mov	r0, r4
 800596a:	2400      	movs	r4, #0
 800596c:	f7ff f990 	bl	8004c90 <tcp_segs_free>
 8005970:	602c      	str	r4, [r5, #0]
 8005972:	bdf8      	pop	{r3, r4, r5, r6, r7, pc}
 8005974:	89b8      	ldrh	r0, [r7, #12]
 8005976:	f7fe f8d1 	bl	8003b1c <lwip_htons>
 800597a:	07c3      	lsls	r3, r0, #31
 800597c:	d507      	bpl.n	800598e <tcp_oos_insert_segment+0x72>
 800597e:	68eb      	ldr	r3, [r5, #12]
 8005980:	2001      	movs	r0, #1
 8005982:	899f      	ldrh	r7, [r3, #12]
 8005984:	f7fe f8ca 	bl	8003b1c <lwip_htons>
 8005988:	68eb      	ldr	r3, [r5, #12]
 800598a:	4338      	orrs	r0, r7
 800598c:	8198      	strh	r0, [r3, #12]
 800598e:	6827      	ldr	r7, [r4, #0]
 8005990:	4620      	mov	r0, r4
 8005992:	f7ff f96f 	bl	8004c74 <tcp_seg_free>
 8005996:	463c      	mov	r4, r7
 8005998:	2f00      	cmp	r7, #0
 800599a:	d1d1      	bne.n	8005940 <tcp_oos_insert_segment+0x24>
 800599c:	e7e8      	b.n	8005970 <tcp_oos_insert_segment+0x54>
 800599e:	bf00      	nop
 80059a0:	0800caf7 	.word	0x0800caf7
 80059a4:	0800cb29 	.word	0x0800cb29
 80059a8:	0800be06 	.word	0x0800be06
 80059ac:	2000aa5c 	.word	0x2000aa5c

080059b0 <tcp_parseopt>:
 80059b0:	b5f8      	push	{r3, r4, r5, r6, r7, lr}
 80059b2:	4606      	mov	r6, r0
 80059b4:	b930      	cbnz	r0, 80059c4 <tcp_parseopt+0x14>
 80059b6:	4b1d      	ldr	r3, [pc, #116]	; (8005a2c <tcp_parseopt+0x7c>)
 80059b8:	f240 727d 	movw	r2, #1917	; 0x77d
 80059bc:	491c      	ldr	r1, [pc, #112]	; (8005a30 <tcp_parseopt+0x80>)
 80059be:	481d      	ldr	r0, [pc, #116]	; (8005a34 <tcp_parseopt+0x84>)
 80059c0:	f004 f880 	bl	8009ac4 <iprintf>
 80059c4:	4b1c      	ldr	r3, [pc, #112]	; (8005a38 <tcp_parseopt+0x88>)
 80059c6:	881f      	ldrh	r7, [r3, #0]
 80059c8:	b167      	cbz	r7, 80059e4 <tcp_parseopt+0x34>
 80059ca:	4d1c      	ldr	r5, [pc, #112]	; (8005a3c <tcp_parseopt+0x8c>)
 80059cc:	2300      	movs	r3, #0
 80059ce:	802b      	strh	r3, [r5, #0]
 80059d0:	882b      	ldrh	r3, [r5, #0]
 80059d2:	42bb      	cmp	r3, r7
 80059d4:	d206      	bcs.n	80059e4 <tcp_parseopt+0x34>
 80059d6:	f7ff ff85 	bl	80058e4 <tcp_get_next_optbyte>
 80059da:	2801      	cmp	r0, #1
 80059dc:	d0f8      	beq.n	80059d0 <tcp_parseopt+0x20>
 80059de:	2802      	cmp	r0, #2
 80059e0:	d001      	beq.n	80059e6 <tcp_parseopt+0x36>
 80059e2:	b9c8      	cbnz	r0, 8005a18 <tcp_parseopt+0x68>
 80059e4:	bdf8      	pop	{r3, r4, r5, r6, r7, pc}
 80059e6:	f7ff ff7d 	bl	80058e4 <tcp_get_next_optbyte>
 80059ea:	2804      	cmp	r0, #4
 80059ec:	d1fa      	bne.n	80059e4 <tcp_parseopt+0x34>
 80059ee:	882b      	ldrh	r3, [r5, #0]
 80059f0:	3301      	adds	r3, #1
 80059f2:	42bb      	cmp	r3, r7
 80059f4:	daf6      	bge.n	80059e4 <tcp_parseopt+0x34>
 80059f6:	f7ff ff75 	bl	80058e4 <tcp_get_next_optbyte>
 80059fa:	0204      	lsls	r4, r0, #8
 80059fc:	f7ff ff72 	bl	80058e4 <tcp_get_next_optbyte>
 8005a00:	b2a4      	uxth	r4, r4
 8005a02:	ea44 0300 	orr.w	r3, r4, r0
 8005a06:	b29b      	uxth	r3, r3
 8005a08:	1e5a      	subs	r2, r3, #1
 8005a0a:	f5b2 7f06 	cmp.w	r2, #536	; 0x218
 8005a0e:	bf28      	it	cs
 8005a10:	f44f 7306 	movcs.w	r3, #536	; 0x218
 8005a14:	8673      	strh	r3, [r6, #50]	; 0x32
 8005a16:	e7db      	b.n	80059d0 <tcp_parseopt+0x20>
 8005a18:	f7ff ff64 	bl	80058e4 <tcp_get_next_optbyte>
 8005a1c:	2801      	cmp	r0, #1
 8005a1e:	d9e1      	bls.n	80059e4 <tcp_parseopt+0x34>
 8005a20:	882b      	ldrh	r3, [r5, #0]
 8005a22:	3b02      	subs	r3, #2
 8005a24:	4418      	add	r0, r3
 8005a26:	8028      	strh	r0, [r5, #0]
 8005a28:	e7d2      	b.n	80059d0 <tcp_parseopt+0x20>
 8005a2a:	bf00      	nop
 8005a2c:	0800caf7 	.word	0x0800caf7
 8005a30:	0800cb4e 	.word	0x0800cb4e
 8005a34:	0800be06 	.word	0x0800be06
 8005a38:	2000aa74 	.word	0x2000aa74
 8005a3c:	2000aa64 	.word	0x2000aa64

08005a40 <tcp_input_delayed_close>:
 8005a40:	b510      	push	{r4, lr}
 8005a42:	4604      	mov	r4, r0
 8005a44:	b930      	cbnz	r0, 8005a54 <tcp_input_delayed_close+0x14>
 8005a46:	4b0f      	ldr	r3, [pc, #60]	; (8005a84 <tcp_input_delayed_close+0x44>)
 8005a48:	f240 225a 	movw	r2, #602	; 0x25a
 8005a4c:	490e      	ldr	r1, [pc, #56]	; (8005a88 <tcp_input_delayed_close+0x48>)
 8005a4e:	480f      	ldr	r0, [pc, #60]	; (8005a8c <tcp_input_delayed_close+0x4c>)
 8005a50:	f004 f838 	bl	8009ac4 <iprintf>
 8005a54:	4b0e      	ldr	r3, [pc, #56]	; (8005a90 <tcp_input_delayed_close+0x50>)
 8005a56:	7818      	ldrb	r0, [r3, #0]
 8005a58:	f010 0010 	ands.w	r0, r0, #16
 8005a5c:	d011      	beq.n	8005a82 <tcp_input_delayed_close+0x42>
 8005a5e:	8b63      	ldrh	r3, [r4, #26]
 8005a60:	06db      	lsls	r3, r3, #27
 8005a62:	d406      	bmi.n	8005a72 <tcp_input_delayed_close+0x32>
 8005a64:	f8d4 3090 	ldr.w	r3, [r4, #144]	; 0x90
 8005a68:	b11b      	cbz	r3, 8005a72 <tcp_input_delayed_close+0x32>
 8005a6a:	f06f 010e 	mvn.w	r1, #14
 8005a6e:	6920      	ldr	r0, [r4, #16]
 8005a70:	4798      	blx	r3
 8005a72:	4621      	mov	r1, r4
 8005a74:	4807      	ldr	r0, [pc, #28]	; (8005a94 <tcp_input_delayed_close+0x54>)
 8005a76:	f7ff f9ab 	bl	8004dd0 <tcp_pcb_remove>
 8005a7a:	4620      	mov	r0, r4
 8005a7c:	f7ff f86e 	bl	8004b5c <tcp_free>
 8005a80:	2001      	movs	r0, #1
 8005a82:	bd10      	pop	{r4, pc}
 8005a84:	0800caf7 	.word	0x0800caf7
 8005a88:	0800cb68 	.word	0x0800cb68
 8005a8c:	0800be06 	.word	0x0800be06
 8005a90:	2000aa58 	.word	0x2000aa58
 8005a94:	2000aa1c 	.word	0x2000aa1c

08005a98 <tcp_free_acked_segments.constprop.0>:
 8005a98:	e92d 4ff8 	stmdb	sp!, {r3, r4, r5, r6, r7, r8, r9, sl, fp, lr}
 8005a9c:	4606      	mov	r6, r0
 8005a9e:	4617      	mov	r7, r2
 8005aa0:	460c      	mov	r4, r1
 8005aa2:	f8df 80b0 	ldr.w	r8, [pc, #176]	; 8005b54 <tcp_free_acked_segments.constprop.0+0xbc>
 8005aa6:	f8df 90a4 	ldr.w	r9, [pc, #164]	; 8005b4c <tcp_free_acked_segments.constprop.0+0xb4>
 8005aaa:	f8df a0ac 	ldr.w	sl, [pc, #172]	; 8005b58 <tcp_free_acked_segments.constprop.0+0xc0>
 8005aae:	2c00      	cmp	r4, #0
 8005ab0:	d039      	beq.n	8005b26 <tcp_free_acked_segments.constprop.0+0x8e>
 8005ab2:	68e3      	ldr	r3, [r4, #12]
 8005ab4:	6858      	ldr	r0, [r3, #4]
 8005ab6:	f7fe f834 	bl	8003b22 <lwip_htonl>
 8005aba:	68e3      	ldr	r3, [r4, #12]
 8005abc:	4683      	mov	fp, r0
 8005abe:	8925      	ldrh	r5, [r4, #8]
 8005ac0:	8998      	ldrh	r0, [r3, #12]
 8005ac2:	f7fe f82b 	bl	8003b1c <lwip_htons>
 8005ac6:	f8d8 3000 	ldr.w	r3, [r8]
 8005aca:	f010 0003 	ands.w	r0, r0, #3
 8005ace:	eba5 0503 	sub.w	r5, r5, r3
 8005ad2:	bf18      	it	ne
 8005ad4:	2001      	movne	r0, #1
 8005ad6:	445d      	add	r5, fp
 8005ad8:	4405      	add	r5, r0
 8005ada:	2d00      	cmp	r5, #0
 8005adc:	dc24      	bgt.n	8005b28 <tcp_free_acked_segments.constprop.0+0x90>
 8005ade:	e9d4 b000 	ldrd	fp, r0, [r4]
 8005ae2:	f7fe fea1 	bl	8004828 <pbuf_clen>
 8005ae6:	f8b6 3066 	ldrh.w	r3, [r6, #102]	; 0x66
 8005aea:	4605      	mov	r5, r0
 8005aec:	4283      	cmp	r3, r0
 8005aee:	d206      	bcs.n	8005afe <tcp_free_acked_segments.constprop.0+0x66>
 8005af0:	464b      	mov	r3, r9
 8005af2:	f240 4257 	movw	r2, #1111	; 0x457
 8005af6:	4651      	mov	r1, sl
 8005af8:	4812      	ldr	r0, [pc, #72]	; (8005b44 <tcp_free_acked_segments.constprop.0+0xac>)
 8005afa:	f003 ffe3 	bl	8009ac4 <iprintf>
 8005afe:	f8b6 3066 	ldrh.w	r3, [r6, #102]	; 0x66
 8005b02:	4620      	mov	r0, r4
 8005b04:	4a10      	ldr	r2, [pc, #64]	; (8005b48 <tcp_free_acked_segments.constprop.0+0xb0>)
 8005b06:	1b5b      	subs	r3, r3, r5
 8005b08:	8811      	ldrh	r1, [r2, #0]
 8005b0a:	f8a6 3066 	strh.w	r3, [r6, #102]	; 0x66
 8005b0e:	8923      	ldrh	r3, [r4, #8]
 8005b10:	440b      	add	r3, r1
 8005b12:	8013      	strh	r3, [r2, #0]
 8005b14:	f7ff f8ae 	bl	8004c74 <tcp_seg_free>
 8005b18:	f8b6 3066 	ldrh.w	r3, [r6, #102]	; 0x66
 8005b1c:	b17b      	cbz	r3, 8005b3e <tcp_free_acked_segments.constprop.0+0xa6>
 8005b1e:	f1bb 0f00 	cmp.w	fp, #0
 8005b22:	d10c      	bne.n	8005b3e <tcp_free_acked_segments.constprop.0+0xa6>
 8005b24:	b11f      	cbz	r7, 8005b2e <tcp_free_acked_segments.constprop.0+0x96>
 8005b26:	2400      	movs	r4, #0
 8005b28:	4620      	mov	r0, r4
 8005b2a:	e8bd 8ff8 	ldmia.w	sp!, {r3, r4, r5, r6, r7, r8, r9, sl, fp, pc}
 8005b2e:	4b07      	ldr	r3, [pc, #28]	; (8005b4c <tcp_free_acked_segments.constprop.0+0xb4>)
 8005b30:	f240 4261 	movw	r2, #1121	; 0x461
 8005b34:	4906      	ldr	r1, [pc, #24]	; (8005b50 <tcp_free_acked_segments.constprop.0+0xb8>)
 8005b36:	4803      	ldr	r0, [pc, #12]	; (8005b44 <tcp_free_acked_segments.constprop.0+0xac>)
 8005b38:	f003 ffc4 	bl	8009ac4 <iprintf>
 8005b3c:	e7f3      	b.n	8005b26 <tcp_free_acked_segments.constprop.0+0x8e>
 8005b3e:	465c      	mov	r4, fp
 8005b40:	e7b5      	b.n	8005aae <tcp_free_acked_segments.constprop.0+0x16>
 8005b42:	bf00      	nop
 8005b44:	0800be06 	.word	0x0800be06
 8005b48:	2000aa50 	.word	0x2000aa50
 8005b4c:	0800caf7 	.word	0x0800caf7
 8005b50:	0800cbb5 	.word	0x0800cbb5
 8005b54:	2000aa38 	.word	0x2000aa38
 8005b58:	0800cb8d 	.word	0x0800cb8d

08005b5c <tcp_receive>:
 8005b5c:	e92d 4ff8 	stmdb	sp!, {r3, r4, r5, r6, r7, r8, r9, sl, fp, lr}
 8005b60:	4604      	mov	r4, r0
 8005b62:	b930      	cbnz	r0, 8005b72 <tcp_receive+0x16>
 8005b64:	4b3b      	ldr	r3, [pc, #236]	; (8005c54 <tcp_receive+0xf8>)
 8005b66:	f240 427b 	movw	r2, #1147	; 0x47b
 8005b6a:	493b      	ldr	r1, [pc, #236]	; (8005c58 <tcp_receive+0xfc>)
 8005b6c:	483b      	ldr	r0, [pc, #236]	; (8005c5c <tcp_receive+0x100>)
 8005b6e:	f003 ffa9 	bl	8009ac4 <iprintf>
 8005b72:	7d23      	ldrb	r3, [r4, #20]
 8005b74:	2b03      	cmp	r3, #3
 8005b76:	d806      	bhi.n	8005b86 <tcp_receive+0x2a>
 8005b78:	4b36      	ldr	r3, [pc, #216]	; (8005c54 <tcp_receive+0xf8>)
 8005b7a:	f240 427c 	movw	r2, #1148	; 0x47c
 8005b7e:	4938      	ldr	r1, [pc, #224]	; (8005c60 <tcp_receive+0x104>)
 8005b80:	4836      	ldr	r0, [pc, #216]	; (8005c5c <tcp_receive+0x100>)
 8005b82:	f003 ff9f 	bl	8009ac4 <iprintf>
 8005b86:	4a37      	ldr	r2, [pc, #220]	; (8005c64 <tcp_receive+0x108>)
 8005b88:	4e37      	ldr	r6, [pc, #220]	; (8005c68 <tcp_receive+0x10c>)
 8005b8a:	7812      	ldrb	r2, [r2, #0]
 8005b8c:	6833      	ldr	r3, [r6, #0]
 8005b8e:	f012 0f10 	tst.w	r2, #16
 8005b92:	4f36      	ldr	r7, [pc, #216]	; (8005c6c <tcp_receive+0x110>)
 8005b94:	f000 809b 	beq.w	8005cce <tcp_receive+0x172>
 8005b98:	f8df 90d8 	ldr.w	r9, [pc, #216]	; 8005c74 <tcp_receive+0x118>
 8005b9c:	f8b4 1060 	ldrh.w	r1, [r4, #96]	; 0x60
 8005ba0:	f8d9 2000 	ldr.w	r2, [r9]
 8005ba4:	e9d4 0c15 	ldrd	r0, ip, [r4, #84]	; 0x54
 8005ba8:	eba0 0e03 	sub.w	lr, r0, r3
 8005bac:	f1be 0f00 	cmp.w	lr, #0
 8005bb0:	db0c      	blt.n	8005bcc <tcp_receive+0x70>
 8005bb2:	4298      	cmp	r0, r3
 8005bb4:	d103      	bne.n	8005bbe <tcp_receive+0x62>
 8005bb6:	ebac 0002 	sub.w	r0, ip, r2
 8005bba:	2800      	cmp	r0, #0
 8005bbc:	db06      	blt.n	8005bcc <tcp_receive+0x70>
 8005bbe:	4594      	cmp	ip, r2
 8005bc0:	d113      	bne.n	8005bea <tcp_receive+0x8e>
 8005bc2:	482b      	ldr	r0, [pc, #172]	; (8005c70 <tcp_receive+0x114>)
 8005bc4:	6800      	ldr	r0, [r0, #0]
 8005bc6:	89c0      	ldrh	r0, [r0, #14]
 8005bc8:	4288      	cmp	r0, r1
 8005bca:	d90e      	bls.n	8005bea <tcp_receive+0x8e>
 8005bcc:	4828      	ldr	r0, [pc, #160]	; (8005c70 <tcp_receive+0x114>)
 8005bce:	f8b4 8062 	ldrh.w	r8, [r4, #98]	; 0x62
 8005bd2:	6800      	ldr	r0, [r0, #0]
 8005bd4:	89c0      	ldrh	r0, [r0, #14]
 8005bd6:	fa1f fe80 	uxth.w	lr, r0
 8005bda:	f8a4 0060 	strh.w	r0, [r4, #96]	; 0x60
 8005bde:	45f0      	cmp	r8, lr
 8005be0:	e9c4 3215 	strd	r3, r2, [r4, #84]	; 0x54
 8005be4:	bf38      	it	cc
 8005be6:	f8a4 0062 	strhcc.w	r0, [r4, #98]	; 0x62
 8005bea:	6c60      	ldr	r0, [r4, #68]	; 0x44
 8005bec:	1a13      	subs	r3, r2, r0
 8005bee:	2b00      	cmp	r3, #0
 8005bf0:	f300 8179 	bgt.w	8005ee6 <tcp_receive+0x38a>
 8005bf4:	883b      	ldrh	r3, [r7, #0]
 8005bf6:	2b00      	cmp	r3, #0
 8005bf8:	f040 8171 	bne.w	8005ede <tcp_receive+0x382>
 8005bfc:	f8b4 3060 	ldrh.w	r3, [r4, #96]	; 0x60
 8005c00:	4461      	add	r1, ip
 8005c02:	6da5      	ldr	r5, [r4, #88]	; 0x58
 8005c04:	442b      	add	r3, r5
 8005c06:	428b      	cmp	r3, r1
 8005c08:	f040 8169 	bne.w	8005ede <tcp_receive+0x382>
 8005c0c:	f9b4 3030 	ldrsh.w	r3, [r4, #48]	; 0x30
 8005c10:	2b00      	cmp	r3, #0
 8005c12:	f2c0 8164 	blt.w	8005ede <tcp_receive+0x382>
 8005c16:	4290      	cmp	r0, r2
 8005c18:	f040 8161 	bne.w	8005ede <tcp_receive+0x382>
 8005c1c:	f894 3043 	ldrb.w	r3, [r4, #67]	; 0x43
 8005c20:	2bff      	cmp	r3, #255	; 0xff
 8005c22:	bf1c      	itt	ne
 8005c24:	3301      	addne	r3, #1
 8005c26:	f884 3043 	strbne.w	r3, [r4, #67]	; 0x43
 8005c2a:	f894 3043 	ldrb.w	r3, [r4, #67]	; 0x43
 8005c2e:	2b03      	cmp	r3, #3
 8005c30:	d922      	bls.n	8005c78 <tcp_receive+0x11c>
 8005c32:	f8b4 2048 	ldrh.w	r2, [r4, #72]	; 0x48
 8005c36:	f64f 71ff 	movw	r1, #65535	; 0xffff
 8005c3a:	8e63      	ldrh	r3, [r4, #50]	; 0x32
 8005c3c:	4413      	add	r3, r2
 8005c3e:	b29b      	uxth	r3, r3
 8005c40:	429a      	cmp	r2, r3
 8005c42:	bf88      	it	hi
 8005c44:	460b      	movhi	r3, r1
 8005c46:	f8a4 3048 	strh.w	r3, [r4, #72]	; 0x48
 8005c4a:	4620      	mov	r0, r4
 8005c4c:	f001 fc86 	bl	800755c <tcp_rexmit_fast>
 8005c50:	e013      	b.n	8005c7a <tcp_receive+0x11e>
 8005c52:	bf00      	nop
 8005c54:	0800caf7 	.word	0x0800caf7
 8005c58:	0800cbd5 	.word	0x0800cbd5
 8005c5c:	0800be06 	.word	0x0800be06
 8005c60:	0800cbee 	.word	0x0800cbee
 8005c64:	2000aa3c 	.word	0x2000aa3c
 8005c68:	2000aa5c 	.word	0x2000aa5c
 8005c6c:	2000aa76 	.word	0x2000aa76
 8005c70:	2000aa68 	.word	0x2000aa68
 8005c74:	2000aa38 	.word	0x2000aa38
 8005c78:	d0e7      	beq.n	8005c4a <tcp_receive+0xee>
 8005c7a:	6b63      	ldr	r3, [r4, #52]	; 0x34
 8005c7c:	b33b      	cbz	r3, 8005cce <tcp_receive+0x172>
 8005c7e:	6ba2      	ldr	r2, [r4, #56]	; 0x38
 8005c80:	f8d9 1000 	ldr.w	r1, [r9]
 8005c84:	1a52      	subs	r2, r2, r1
 8005c86:	2a00      	cmp	r2, #0
 8005c88:	da21      	bge.n	8005cce <tcp_receive+0x172>
 8005c8a:	4ab6      	ldr	r2, [pc, #728]	; (8005f64 <tcp_receive+0x408>)
 8005c8c:	b29b      	uxth	r3, r3
 8005c8e:	f9b4 c03c 	ldrsh.w	ip, [r4, #60]	; 0x3c
 8005c92:	8815      	ldrh	r5, [r2, #0]
 8005c94:	f3cc 01cf 	ubfx	r1, ip, #3, #16
 8005c98:	1aea      	subs	r2, r5, r3
 8005c9a:	1a52      	subs	r2, r2, r1
 8005c9c:	b210      	sxth	r0, r2
 8005c9e:	fa1c f282 	uxtah	r2, ip, r2
 8005ca2:	2800      	cmp	r0, #0
 8005ca4:	b212      	sxth	r2, r2
 8005ca6:	bfb8      	it	lt
 8005ca8:	1b5b      	sublt	r3, r3, r5
 8005caa:	87a2      	strh	r2, [r4, #60]	; 0x3c
 8005cac:	bfb8      	it	lt
 8005cae:	18c9      	addlt	r1, r1, r3
 8005cb0:	f9b4 303e 	ldrsh.w	r3, [r4, #62]	; 0x3e
 8005cb4:	bfb8      	it	lt
 8005cb6:	b208      	sxthlt	r0, r1
 8005cb8:	eba3 03a3 	sub.w	r3, r3, r3, asr #2
 8005cbc:	4403      	add	r3, r0
 8005cbe:	b29b      	uxth	r3, r3
 8005cc0:	87e3      	strh	r3, [r4, #62]	; 0x3e
 8005cc2:	eb03 03e2 	add.w	r3, r3, r2, asr #3
 8005cc6:	f8a4 3040 	strh.w	r3, [r4, #64]	; 0x40
 8005cca:	2300      	movs	r3, #0
 8005ccc:	6363      	str	r3, [r4, #52]	; 0x34
 8005cce:	8838      	ldrh	r0, [r7, #0]
 8005cd0:	6833      	ldr	r3, [r6, #0]
 8005cd2:	6a62      	ldr	r2, [r4, #36]	; 0x24
 8005cd4:	2800      	cmp	r0, #0
 8005cd6:	f000 835a 	beq.w	800638e <tcp_receive+0x832>
 8005cda:	7d21      	ldrb	r1, [r4, #20]
 8005cdc:	2906      	cmp	r1, #6
 8005cde:	f200 8356 	bhi.w	800638e <tcp_receive+0x832>
 8005ce2:	1ad5      	subs	r5, r2, r3
 8005ce4:	2d01      	cmp	r5, #1
 8005ce6:	f100 81a8 	bmi.w	800603a <tcp_receive+0x4de>
 8005cea:	f1c3 0101 	rsb	r1, r3, #1
 8005cee:	1a09      	subs	r1, r1, r0
 8005cf0:	4411      	add	r1, r2
 8005cf2:	2900      	cmp	r1, #0
 8005cf4:	f300 81a1 	bgt.w	800603a <tcp_receive+0x4de>
 8005cf8:	f8df 9280 	ldr.w	r9, [pc, #640]	; 8005f7c <tcp_receive+0x420>
 8005cfc:	f8d9 8004 	ldr.w	r8, [r9, #4]
 8005d00:	f1b8 0f00 	cmp.w	r8, #0
 8005d04:	d106      	bne.n	8005d14 <tcp_receive+0x1b8>
 8005d06:	4b98      	ldr	r3, [pc, #608]	; (8005f68 <tcp_receive+0x40c>)
 8005d08:	f240 5294 	movw	r2, #1428	; 0x594
 8005d0c:	4997      	ldr	r1, [pc, #604]	; (8005f6c <tcp_receive+0x410>)
 8005d0e:	4898      	ldr	r0, [pc, #608]	; (8005f70 <tcp_receive+0x414>)
 8005d10:	f003 fed8 	bl	8009ac4 <iprintf>
 8005d14:	f64f 73fe 	movw	r3, #65534	; 0xfffe
 8005d18:	429d      	cmp	r5, r3
 8005d1a:	d906      	bls.n	8005d2a <tcp_receive+0x1ce>
 8005d1c:	4b92      	ldr	r3, [pc, #584]	; (8005f68 <tcp_receive+0x40c>)
 8005d1e:	f240 5295 	movw	r2, #1429	; 0x595
 8005d22:	4994      	ldr	r1, [pc, #592]	; (8005f74 <tcp_receive+0x418>)
 8005d24:	4892      	ldr	r0, [pc, #584]	; (8005f70 <tcp_receive+0x414>)
 8005d26:	f003 fecd 	bl	8009ac4 <iprintf>
 8005d2a:	f8d9 3004 	ldr.w	r3, [r9, #4]
 8005d2e:	b2ad      	uxth	r5, r5
 8005d30:	891b      	ldrh	r3, [r3, #8]
 8005d32:	42ab      	cmp	r3, r5
 8005d34:	d206      	bcs.n	8005d44 <tcp_receive+0x1e8>
 8005d36:	4b8c      	ldr	r3, [pc, #560]	; (8005f68 <tcp_receive+0x40c>)
 8005d38:	f240 5297 	movw	r2, #1431	; 0x597
 8005d3c:	498e      	ldr	r1, [pc, #568]	; (8005f78 <tcp_receive+0x41c>)
 8005d3e:	488c      	ldr	r0, [pc, #560]	; (8005f70 <tcp_receive+0x414>)
 8005d40:	f003 fec0 	bl	8009ac4 <iprintf>
 8005d44:	f8b9 3008 	ldrh.w	r3, [r9, #8]
 8005d48:	2100      	movs	r1, #0
 8005d4a:	1b5b      	subs	r3, r3, r5
 8005d4c:	f8a9 3008 	strh.w	r3, [r9, #8]
 8005d50:	f8d9 3004 	ldr.w	r3, [r9, #4]
 8005d54:	891b      	ldrh	r3, [r3, #8]
 8005d56:	1b5b      	subs	r3, r3, r5
 8005d58:	b29b      	uxth	r3, r3
 8005d5a:	f8b8 200a 	ldrh.w	r2, [r8, #10]
 8005d5e:	42aa      	cmp	r2, r5
 8005d60:	f0c0 8162 	bcc.w	8006028 <tcp_receive+0x4cc>
 8005d64:	4629      	mov	r1, r5
 8005d66:	4640      	mov	r0, r8
 8005d68:	f7fe fbee 	bl	8004548 <pbuf_remove_header>
 8005d6c:	6a63      	ldr	r3, [r4, #36]	; 0x24
 8005d6e:	f8d9 200c 	ldr.w	r2, [r9, #12]
 8005d72:	6033      	str	r3, [r6, #0]
 8005d74:	6053      	str	r3, [r2, #4]
 8005d76:	6833      	ldr	r3, [r6, #0]
 8005d78:	6a62      	ldr	r2, [r4, #36]	; 0x24
 8005d7a:	1a99      	subs	r1, r3, r2
 8005d7c:	2900      	cmp	r1, #0
 8005d7e:	f2c0 8231 	blt.w	80061e4 <tcp_receive+0x688>
 8005d82:	1c58      	adds	r0, r3, #1
 8005d84:	8d25      	ldrh	r5, [r4, #40]	; 0x28
 8005d86:	1a81      	subs	r1, r0, r2
 8005d88:	1b49      	subs	r1, r1, r5
 8005d8a:	2900      	cmp	r1, #0
 8005d8c:	f300 822a 	bgt.w	80061e4 <tcp_receive+0x688>
 8005d90:	4293      	cmp	r3, r2
 8005d92:	f040 8221 	bne.w	80061d8 <tcp_receive+0x67c>
 8005d96:	4d79      	ldr	r5, [pc, #484]	; (8005f7c <tcp_receive+0x420>)
 8005d98:	68eb      	ldr	r3, [r5, #12]
 8005d9a:	f8b5 8008 	ldrh.w	r8, [r5, #8]
 8005d9e:	8998      	ldrh	r0, [r3, #12]
 8005da0:	f7fd febc 	bl	8003b1c <lwip_htons>
 8005da4:	f010 0003 	ands.w	r0, r0, #3
 8005da8:	8d22      	ldrh	r2, [r4, #40]	; 0x28
 8005daa:	bf18      	it	ne
 8005dac:	2001      	movne	r0, #1
 8005dae:	eb08 0300 	add.w	r3, r8, r0
 8005db2:	b29b      	uxth	r3, r3
 8005db4:	429a      	cmp	r2, r3
 8005db6:	803b      	strh	r3, [r7, #0]
 8005db8:	d241      	bcs.n	8005e3e <tcp_receive+0x2e2>
 8005dba:	68eb      	ldr	r3, [r5, #12]
 8005dbc:	8998      	ldrh	r0, [r3, #12]
 8005dbe:	f7fd fead 	bl	8003b1c <lwip_htons>
 8005dc2:	07c2      	lsls	r2, r0, #31
 8005dc4:	d50f      	bpl.n	8005de6 <tcp_receive+0x28a>
 8005dc6:	68eb      	ldr	r3, [r5, #12]
 8005dc8:	f8b3 800c 	ldrh.w	r8, [r3, #12]
 8005dcc:	4640      	mov	r0, r8
 8005dce:	f428 587c 	bic.w	r8, r8, #16128	; 0x3f00
 8005dd2:	f7fd fea3 	bl	8003b1c <lwip_htons>
 8005dd6:	f000 003e 	and.w	r0, r0, #62	; 0x3e
 8005dda:	f7fd fe9f 	bl	8003b1c <lwip_htons>
 8005dde:	68eb      	ldr	r3, [r5, #12]
 8005de0:	ea40 0008 	orr.w	r0, r0, r8
 8005de4:	8198      	strh	r0, [r3, #12]
 8005de6:	8d23      	ldrh	r3, [r4, #40]	; 0x28
 8005de8:	812b      	strh	r3, [r5, #8]
 8005dea:	68eb      	ldr	r3, [r5, #12]
 8005dec:	8998      	ldrh	r0, [r3, #12]
 8005dee:	f7fd fe95 	bl	8003b1c <lwip_htons>
 8005df2:	0783      	lsls	r3, r0, #30
 8005df4:	6868      	ldr	r0, [r5, #4]
 8005df6:	bf42      	ittt	mi
 8005df8:	892b      	ldrhmi	r3, [r5, #8]
 8005dfa:	f103 33ff 	addmi.w	r3, r3, #4294967295
 8005dfe:	812b      	strhmi	r3, [r5, #8]
 8005e00:	8929      	ldrh	r1, [r5, #8]
 8005e02:	f7fe fcb9 	bl	8004778 <pbuf_realloc>
 8005e06:	68eb      	ldr	r3, [r5, #12]
 8005e08:	f8b5 8008 	ldrh.w	r8, [r5, #8]
 8005e0c:	8998      	ldrh	r0, [r3, #12]
 8005e0e:	f7fd fe85 	bl	8003b1c <lwip_htons>
 8005e12:	f010 0003 	ands.w	r0, r0, #3
 8005e16:	6832      	ldr	r2, [r6, #0]
 8005e18:	bf18      	it	ne
 8005e1a:	2001      	movne	r0, #1
 8005e1c:	6a61      	ldr	r1, [r4, #36]	; 0x24
 8005e1e:	eb08 0300 	add.w	r3, r8, r0
 8005e22:	b29b      	uxth	r3, r3
 8005e24:	803b      	strh	r3, [r7, #0]
 8005e26:	4413      	add	r3, r2
 8005e28:	8d22      	ldrh	r2, [r4, #40]	; 0x28
 8005e2a:	440a      	add	r2, r1
 8005e2c:	4293      	cmp	r3, r2
 8005e2e:	d006      	beq.n	8005e3e <tcp_receive+0x2e2>
 8005e30:	4b4d      	ldr	r3, [pc, #308]	; (8005f68 <tcp_receive+0x40c>)
 8005e32:	f240 52cb 	movw	r2, #1483	; 0x5cb
 8005e36:	4952      	ldr	r1, [pc, #328]	; (8005f80 <tcp_receive+0x424>)
 8005e38:	484d      	ldr	r0, [pc, #308]	; (8005f70 <tcp_receive+0x414>)
 8005e3a:	f003 fe43 	bl	8009ac4 <iprintf>
 8005e3e:	6f63      	ldr	r3, [r4, #116]	; 0x74
 8005e40:	2b00      	cmp	r3, #0
 8005e42:	f000 8109 	beq.w	8006058 <tcp_receive+0x4fc>
 8005e46:	68eb      	ldr	r3, [r5, #12]
 8005e48:	8998      	ldrh	r0, [r3, #12]
 8005e4a:	f7fd fe67 	bl	8003b1c <lwip_htons>
 8005e4e:	07c0      	lsls	r0, r0, #31
 8005e50:	f100 80ff 	bmi.w	8006052 <tcp_receive+0x4f6>
 8005e54:	f8d4 8074 	ldr.w	r8, [r4, #116]	; 0x74
 8005e58:	6830      	ldr	r0, [r6, #0]
 8005e5a:	883b      	ldrh	r3, [r7, #0]
 8005e5c:	4403      	add	r3, r0
 8005e5e:	f1b8 0f00 	cmp.w	r8, #0
 8005e62:	d039      	beq.n	8005ed8 <tcp_receive+0x37c>
 8005e64:	f8d8 c00c 	ldr.w	ip, [r8, #12]
 8005e68:	f8b8 1008 	ldrh.w	r1, [r8, #8]
 8005e6c:	f8dc 2004 	ldr.w	r2, [ip, #4]
 8005e70:	4411      	add	r1, r2
 8005e72:	1a59      	subs	r1, r3, r1
 8005e74:	2900      	cmp	r1, #0
 8005e76:	f280 811c 	bge.w	80060b2 <tcp_receive+0x556>
 8005e7a:	1a9b      	subs	r3, r3, r2
 8005e7c:	2b00      	cmp	r3, #0
 8005e7e:	dd2b      	ble.n	8005ed8 <tcp_receive+0x37c>
 8005e80:	68eb      	ldr	r3, [r5, #12]
 8005e82:	1a12      	subs	r2, r2, r0
 8005e84:	812a      	strh	r2, [r5, #8]
 8005e86:	8998      	ldrh	r0, [r3, #12]
 8005e88:	f7fd fe48 	bl	8003b1c <lwip_htons>
 8005e8c:	0783      	lsls	r3, r0, #30
 8005e8e:	6868      	ldr	r0, [r5, #4]
 8005e90:	bf42      	ittt	mi
 8005e92:	892b      	ldrhmi	r3, [r5, #8]
 8005e94:	f103 33ff 	addmi.w	r3, r3, #4294967295
 8005e98:	812b      	strhmi	r3, [r5, #8]
 8005e9a:	8929      	ldrh	r1, [r5, #8]
 8005e9c:	f7fe fc6c 	bl	8004778 <pbuf_realloc>
 8005ea0:	68eb      	ldr	r3, [r5, #12]
 8005ea2:	f8b5 9008 	ldrh.w	r9, [r5, #8]
 8005ea6:	8998      	ldrh	r0, [r3, #12]
 8005ea8:	f7fd fe38 	bl	8003b1c <lwip_htons>
 8005eac:	f010 0003 	ands.w	r0, r0, #3
 8005eb0:	6832      	ldr	r2, [r6, #0]
 8005eb2:	bf18      	it	ne
 8005eb4:	2001      	movne	r0, #1
 8005eb6:	eb09 0300 	add.w	r3, r9, r0
 8005eba:	b29b      	uxth	r3, r3
 8005ebc:	803b      	strh	r3, [r7, #0]
 8005ebe:	4413      	add	r3, r2
 8005ec0:	f8d8 200c 	ldr.w	r2, [r8, #12]
 8005ec4:	6852      	ldr	r2, [r2, #4]
 8005ec6:	4293      	cmp	r3, r2
 8005ec8:	d006      	beq.n	8005ed8 <tcp_receive+0x37c>
 8005eca:	4b27      	ldr	r3, [pc, #156]	; (8005f68 <tcp_receive+0x40c>)
 8005ecc:	f240 52fc 	movw	r2, #1532	; 0x5fc
 8005ed0:	492c      	ldr	r1, [pc, #176]	; (8005f84 <tcp_receive+0x428>)
 8005ed2:	4827      	ldr	r0, [pc, #156]	; (8005f70 <tcp_receive+0x414>)
 8005ed4:	f003 fdf6 	bl	8009ac4 <iprintf>
 8005ed8:	f8c4 8074 	str.w	r8, [r4, #116]	; 0x74
 8005edc:	e0bc      	b.n	8006058 <tcp_receive+0x4fc>
 8005ede:	2300      	movs	r3, #0
 8005ee0:	f884 3043 	strb.w	r3, [r4, #67]	; 0x43
 8005ee4:	e6c9      	b.n	8005c7a <tcp_receive+0x11e>
 8005ee6:	6d21      	ldr	r1, [r4, #80]	; 0x50
 8005ee8:	1a51      	subs	r1, r2, r1
 8005eea:	2900      	cmp	r1, #0
 8005eec:	f300 8098 	bgt.w	8006020 <tcp_receive+0x4c4>
 8005ef0:	8b61      	ldrh	r1, [r4, #26]
 8005ef2:	0748      	lsls	r0, r1, #29
 8005ef4:	d509      	bpl.n	8005f0a <tcp_receive+0x3ae>
 8005ef6:	f021 0104 	bic.w	r1, r1, #4
 8005efa:	8361      	strh	r1, [r4, #26]
 8005efc:	f8b4 104a 	ldrh.w	r1, [r4, #74]	; 0x4a
 8005f00:	f8a4 1048 	strh.w	r1, [r4, #72]	; 0x48
 8005f04:	2100      	movs	r1, #0
 8005f06:	f8a4 106a 	strh.w	r1, [r4, #106]	; 0x6a
 8005f0a:	f9b4 003c 	ldrsh.w	r0, [r4, #60]	; 0x3c
 8005f0e:	8fe1      	ldrh	r1, [r4, #62]	; 0x3e
 8005f10:	6462      	str	r2, [r4, #68]	; 0x44
 8005f12:	eb01 01e0 	add.w	r1, r1, r0, asr #3
 8005f16:	7d22      	ldrb	r2, [r4, #20]
 8005f18:	f8a4 1040 	strh.w	r1, [r4, #64]	; 0x40
 8005f1c:	2a03      	cmp	r2, #3
 8005f1e:	f04f 0100 	mov.w	r1, #0
 8005f22:	f8a4 1042 	strh.w	r1, [r4, #66]	; 0x42
 8005f26:	d939      	bls.n	8005f9c <tcp_receive+0x440>
 8005f28:	f8b4 2048 	ldrh.w	r2, [r4, #72]	; 0x48
 8005f2c:	b29b      	uxth	r3, r3
 8005f2e:	f8b4 104a 	ldrh.w	r1, [r4, #74]	; 0x4a
 8005f32:	4291      	cmp	r1, r2
 8005f34:	d928      	bls.n	8005f88 <tcp_receive+0x42c>
 8005f36:	8b61      	ldrh	r1, [r4, #26]
 8005f38:	f411 6f00 	tst.w	r1, #2048	; 0x800
 8005f3c:	8e61      	ldrh	r1, [r4, #50]	; 0x32
 8005f3e:	bf14      	ite	ne
 8005f40:	2001      	movne	r0, #1
 8005f42:	2002      	moveq	r0, #2
 8005f44:	fb11 f100 	smulbb	r1, r1, r0
 8005f48:	b289      	uxth	r1, r1
 8005f4a:	4299      	cmp	r1, r3
 8005f4c:	bf94      	ite	ls
 8005f4e:	1850      	addls	r0, r2, r1
 8005f50:	18d0      	addhi	r0, r2, r3
 8005f52:	b283      	uxth	r3, r0
 8005f54:	429a      	cmp	r2, r3
 8005f56:	d901      	bls.n	8005f5c <tcp_receive+0x400>
 8005f58:	f64f 73ff 	movw	r3, #65535	; 0xffff
 8005f5c:	f8a4 3048 	strh.w	r3, [r4, #72]	; 0x48
 8005f60:	e01c      	b.n	8005f9c <tcp_receive+0x440>
 8005f62:	bf00      	nop
 8005f64:	2000aa2c 	.word	0x2000aa2c
 8005f68:	0800caf7 	.word	0x0800caf7
 8005f6c:	0800cc07 	.word	0x0800cc07
 8005f70:	0800be06 	.word	0x0800be06
 8005f74:	0800cc17 	.word	0x0800cc17
 8005f78:	0800cc26 	.word	0x0800cc26
 8005f7c:	2000aa40 	.word	0x2000aa40
 8005f80:	0800cc36 	.word	0x0800cc36
 8005f84:	0800cc6d 	.word	0x0800cc6d
 8005f88:	f8b4 106a 	ldrh.w	r1, [r4, #106]	; 0x6a
 8005f8c:	440b      	add	r3, r1
 8005f8e:	b29b      	uxth	r3, r3
 8005f90:	4299      	cmp	r1, r3
 8005f92:	d82c      	bhi.n	8005fee <tcp_receive+0x492>
 8005f94:	429a      	cmp	r2, r3
 8005f96:	d92c      	bls.n	8005ff2 <tcp_receive+0x496>
 8005f98:	f8a4 306a 	strh.w	r3, [r4, #106]	; 0x6a
 8005f9c:	4620      	mov	r0, r4
 8005f9e:	e9d4 211b 	ldrd	r2, r1, [r4, #108]	; 0x6c
 8005fa2:	f7ff fd79 	bl	8005a98 <tcp_free_acked_segments.constprop.0>
 8005fa6:	6ee1      	ldr	r1, [r4, #108]	; 0x6c
 8005fa8:	4602      	mov	r2, r0
 8005faa:	6720      	str	r0, [r4, #112]	; 0x70
 8005fac:	4620      	mov	r0, r4
 8005fae:	f7ff fd73 	bl	8005a98 <tcp_free_acked_segments.constprop.0>
 8005fb2:	6f22      	ldr	r2, [r4, #112]	; 0x70
 8005fb4:	66e0      	str	r0, [r4, #108]	; 0x6c
 8005fb6:	fab2 f382 	clz	r3, r2
 8005fba:	095b      	lsrs	r3, r3, #5
 8005fbc:	425b      	negs	r3, r3
 8005fbe:	8623      	strh	r3, [r4, #48]	; 0x30
 8005fc0:	2300      	movs	r3, #0
 8005fc2:	7723      	strb	r3, [r4, #28]
 8005fc4:	b908      	cbnz	r0, 8005fca <tcp_receive+0x46e>
 8005fc6:	f8a4 0068 	strh.w	r0, [r4, #104]	; 0x68
 8005fca:	499f      	ldr	r1, [pc, #636]	; (8006248 <tcp_receive+0x6ec>)
 8005fcc:	f8b4 3064 	ldrh.w	r3, [r4, #100]	; 0x64
 8005fd0:	8809      	ldrh	r1, [r1, #0]
 8005fd2:	440b      	add	r3, r1
 8005fd4:	f8a4 3064 	strh.w	r3, [r4, #100]	; 0x64
 8005fd8:	8b63      	ldrh	r3, [r4, #26]
 8005fda:	0519      	lsls	r1, r3, #20
 8005fdc:	f57f ae4d 	bpl.w	8005c7a <tcp_receive+0x11e>
 8005fe0:	b9d2      	cbnz	r2, 8006018 <tcp_receive+0x4bc>
 8005fe2:	b968      	cbnz	r0, 8006000 <tcp_receive+0x4a4>
 8005fe4:	8b63      	ldrh	r3, [r4, #26]
 8005fe6:	f423 6300 	bic.w	r3, r3, #2048	; 0x800
 8005fea:	8363      	strh	r3, [r4, #26]
 8005fec:	e645      	b.n	8005c7a <tcp_receive+0x11e>
 8005fee:	f64f 73ff 	movw	r3, #65535	; 0xffff
 8005ff2:	1a9b      	subs	r3, r3, r2
 8005ff4:	f8a4 306a 	strh.w	r3, [r4, #106]	; 0x6a
 8005ff8:	8e63      	ldrh	r3, [r4, #50]	; 0x32
 8005ffa:	4413      	add	r3, r2
 8005ffc:	b29b      	uxth	r3, r3
 8005ffe:	e7a9      	b.n	8005f54 <tcp_receive+0x3f8>
 8006000:	f8d4 804c 	ldr.w	r8, [r4, #76]	; 0x4c
 8006004:	68c3      	ldr	r3, [r0, #12]
 8006006:	6858      	ldr	r0, [r3, #4]
 8006008:	f7fd fd8b 	bl	8003b22 <lwip_htonl>
 800600c:	eba8 0000 	sub.w	r0, r8, r0
 8006010:	2800      	cmp	r0, #0
 8006012:	f73f ae32 	bgt.w	8005c7a <tcp_receive+0x11e>
 8006016:	e7e5      	b.n	8005fe4 <tcp_receive+0x488>
 8006018:	f8d4 804c 	ldr.w	r8, [r4, #76]	; 0x4c
 800601c:	68d3      	ldr	r3, [r2, #12]
 800601e:	e7f2      	b.n	8006006 <tcp_receive+0x4aa>
 8006020:	4620      	mov	r0, r4
 8006022:	f001 fb15 	bl	8007650 <tcp_send_empty_ack>
 8006026:	e628      	b.n	8005c7a <tcp_receive+0x11e>
 8006028:	1aaa      	subs	r2, r5, r2
 800602a:	f8a8 3008 	strh.w	r3, [r8, #8]
 800602e:	f8a8 100a 	strh.w	r1, [r8, #10]
 8006032:	b295      	uxth	r5, r2
 8006034:	f8d8 8000 	ldr.w	r8, [r8]
 8006038:	e68f      	b.n	8005d5a <tcp_receive+0x1fe>
 800603a:	1a9b      	subs	r3, r3, r2
 800603c:	2b00      	cmp	r3, #0
 800603e:	bfbe      	ittt	lt
 8006040:	8b63      	ldrhlt	r3, [r4, #26]
 8006042:	f043 0302 	orrlt.w	r3, r3, #2
 8006046:	8363      	strhlt	r3, [r4, #26]
 8006048:	e695      	b.n	8005d76 <tcp_receive+0x21a>
 800604a:	6803      	ldr	r3, [r0, #0]
 800604c:	6763      	str	r3, [r4, #116]	; 0x74
 800604e:	f7fe fe11 	bl	8004c74 <tcp_seg_free>
 8006052:	6f60      	ldr	r0, [r4, #116]	; 0x74
 8006054:	2800      	cmp	r0, #0
 8006056:	d1f8      	bne.n	800604a <tcp_receive+0x4ee>
 8006058:	883a      	ldrh	r2, [r7, #0]
 800605a:	6833      	ldr	r3, [r6, #0]
 800605c:	4413      	add	r3, r2
 800605e:	6263      	str	r3, [r4, #36]	; 0x24
 8006060:	8d23      	ldrh	r3, [r4, #40]	; 0x28
 8006062:	4293      	cmp	r3, r2
 8006064:	d206      	bcs.n	8006074 <tcp_receive+0x518>
 8006066:	4b79      	ldr	r3, [pc, #484]	; (800624c <tcp_receive+0x6f0>)
 8006068:	f240 6207 	movw	r2, #1543	; 0x607
 800606c:	4978      	ldr	r1, [pc, #480]	; (8006250 <tcp_receive+0x6f4>)
 800606e:	4879      	ldr	r0, [pc, #484]	; (8006254 <tcp_receive+0x6f8>)
 8006070:	f003 fd28 	bl	8009ac4 <iprintf>
 8006074:	8d23      	ldrh	r3, [r4, #40]	; 0x28
 8006076:	4620      	mov	r0, r4
 8006078:	883a      	ldrh	r2, [r7, #0]
 800607a:	1a9b      	subs	r3, r3, r2
 800607c:	8523      	strh	r3, [r4, #40]	; 0x28
 800607e:	f7fe fd85 	bl	8004b8c <tcp_update_rcv_ann_wnd>
 8006082:	686b      	ldr	r3, [r5, #4]
 8006084:	891a      	ldrh	r2, [r3, #8]
 8006086:	b11a      	cbz	r2, 8006090 <tcp_receive+0x534>
 8006088:	4a73      	ldr	r2, [pc, #460]	; (8006258 <tcp_receive+0x6fc>)
 800608a:	6013      	str	r3, [r2, #0]
 800608c:	2300      	movs	r3, #0
 800608e:	606b      	str	r3, [r5, #4]
 8006090:	68eb      	ldr	r3, [r5, #12]
 8006092:	8998      	ldrh	r0, [r3, #12]
 8006094:	f7fd fd42 	bl	8003b1c <lwip_htons>
 8006098:	07c5      	lsls	r5, r0, #31
 800609a:	d504      	bpl.n	80060a6 <tcp_receive+0x54a>
 800609c:	4a6f      	ldr	r2, [pc, #444]	; (800625c <tcp_receive+0x700>)
 800609e:	7813      	ldrb	r3, [r2, #0]
 80060a0:	f043 0320 	orr.w	r3, r3, #32
 80060a4:	7013      	strb	r3, [r2, #0]
 80060a6:	4f69      	ldr	r7, [pc, #420]	; (800624c <tcp_receive+0x6f0>)
 80060a8:	f8df 81b8 	ldr.w	r8, [pc, #440]	; 8006264 <tcp_receive+0x708>
 80060ac:	f8df 91a4 	ldr.w	r9, [pc, #420]	; 8006254 <tcp_receive+0x6f8>
 80060b0:	e07c      	b.n	80061ac <tcp_receive+0x650>
 80060b2:	f8bc 000c 	ldrh.w	r0, [ip, #12]
 80060b6:	f7fd fd31 	bl	8003b1c <lwip_htons>
 80060ba:	07c1      	lsls	r1, r0, #31
 80060bc:	d51b      	bpl.n	80060f6 <tcp_receive+0x59a>
 80060be:	68eb      	ldr	r3, [r5, #12]
 80060c0:	8998      	ldrh	r0, [r3, #12]
 80060c2:	f7fd fd2b 	bl	8003b1c <lwip_htons>
 80060c6:	0782      	lsls	r2, r0, #30
 80060c8:	d415      	bmi.n	80060f6 <tcp_receive+0x59a>
 80060ca:	68eb      	ldr	r3, [r5, #12]
 80060cc:	2001      	movs	r0, #1
 80060ce:	f8b3 900c 	ldrh.w	r9, [r3, #12]
 80060d2:	f7fd fd23 	bl	8003b1c <lwip_htons>
 80060d6:	68eb      	ldr	r3, [r5, #12]
 80060d8:	ea49 0000 	orr.w	r0, r9, r0
 80060dc:	f8b5 9008 	ldrh.w	r9, [r5, #8]
 80060e0:	8198      	strh	r0, [r3, #12]
 80060e2:	b280      	uxth	r0, r0
 80060e4:	f7fd fd1a 	bl	8003b1c <lwip_htons>
 80060e8:	f010 0003 	ands.w	r0, r0, #3
 80060ec:	bf18      	it	ne
 80060ee:	2001      	movne	r0, #1
 80060f0:	4481      	add	r9, r0
 80060f2:	f8a7 9000 	strh.w	r9, [r7]
 80060f6:	f8d8 9000 	ldr.w	r9, [r8]
 80060fa:	4640      	mov	r0, r8
 80060fc:	f7fe fdba 	bl	8004c74 <tcp_seg_free>
 8006100:	46c8      	mov	r8, r9
 8006102:	e6a9      	b.n	8005e58 <tcp_receive+0x2fc>
 8006104:	6033      	str	r3, [r6, #0]
 8006106:	8990      	ldrh	r0, [r2, #12]
 8006108:	f8b5 a008 	ldrh.w	sl, [r5, #8]
 800610c:	f7fd fd06 	bl	8003b1c <lwip_htons>
 8006110:	6a63      	ldr	r3, [r4, #36]	; 0x24
 8006112:	f010 0003 	ands.w	r0, r0, #3
 8006116:	f8b5 b008 	ldrh.w	fp, [r5, #8]
 800611a:	bf18      	it	ne
 800611c:	2001      	movne	r0, #1
 800611e:	449a      	add	sl, r3
 8006120:	68eb      	ldr	r3, [r5, #12]
 8006122:	4450      	add	r0, sl
 8006124:	f8b4 a028 	ldrh.w	sl, [r4, #40]	; 0x28
 8006128:	6260      	str	r0, [r4, #36]	; 0x24
 800612a:	8998      	ldrh	r0, [r3, #12]
 800612c:	f7fd fcf6 	bl	8003b1c <lwip_htons>
 8006130:	f010 0003 	ands.w	r0, r0, #3
 8006134:	bf18      	it	ne
 8006136:	2001      	movne	r0, #1
 8006138:	4458      	add	r0, fp
 800613a:	4582      	cmp	sl, r0
 800613c:	d206      	bcs.n	800614c <tcp_receive+0x5f0>
 800613e:	463b      	mov	r3, r7
 8006140:	f240 622b 	movw	r2, #1579	; 0x62b
 8006144:	4641      	mov	r1, r8
 8006146:	4648      	mov	r0, r9
 8006148:	f003 fcbc 	bl	8009ac4 <iprintf>
 800614c:	68eb      	ldr	r3, [r5, #12]
 800614e:	f8b5 a008 	ldrh.w	sl, [r5, #8]
 8006152:	8998      	ldrh	r0, [r3, #12]
 8006154:	f7fd fce2 	bl	8003b1c <lwip_htons>
 8006158:	f010 0003 	ands.w	r0, r0, #3
 800615c:	8d23      	ldrh	r3, [r4, #40]	; 0x28
 800615e:	bf18      	it	ne
 8006160:	2001      	movne	r0, #1
 8006162:	4450      	add	r0, sl
 8006164:	1a1b      	subs	r3, r3, r0
 8006166:	4620      	mov	r0, r4
 8006168:	8523      	strh	r3, [r4, #40]	; 0x28
 800616a:	f7fe fd0f 	bl	8004b8c <tcp_update_rcv_ann_wnd>
 800616e:	6869      	ldr	r1, [r5, #4]
 8006170:	890b      	ldrh	r3, [r1, #8]
 8006172:	b133      	cbz	r3, 8006182 <tcp_receive+0x626>
 8006174:	4b38      	ldr	r3, [pc, #224]	; (8006258 <tcp_receive+0x6fc>)
 8006176:	6818      	ldr	r0, [r3, #0]
 8006178:	b338      	cbz	r0, 80061ca <tcp_receive+0x66e>
 800617a:	f7fe fb71 	bl	8004860 <pbuf_cat>
 800617e:	2300      	movs	r3, #0
 8006180:	606b      	str	r3, [r5, #4]
 8006182:	68eb      	ldr	r3, [r5, #12]
 8006184:	8998      	ldrh	r0, [r3, #12]
 8006186:	f7fd fcc9 	bl	8003b1c <lwip_htons>
 800618a:	07c0      	lsls	r0, r0, #31
 800618c:	d509      	bpl.n	80061a2 <tcp_receive+0x646>
 800618e:	4a33      	ldr	r2, [pc, #204]	; (800625c <tcp_receive+0x700>)
 8006190:	7813      	ldrb	r3, [r2, #0]
 8006192:	f043 0320 	orr.w	r3, r3, #32
 8006196:	7013      	strb	r3, [r2, #0]
 8006198:	7d23      	ldrb	r3, [r4, #20]
 800619a:	2b04      	cmp	r3, #4
 800619c:	bf04      	itt	eq
 800619e:	2307      	moveq	r3, #7
 80061a0:	7523      	strbeq	r3, [r4, #20]
 80061a2:	682b      	ldr	r3, [r5, #0]
 80061a4:	4628      	mov	r0, r5
 80061a6:	6763      	str	r3, [r4, #116]	; 0x74
 80061a8:	f7fe fd64 	bl	8004c74 <tcp_seg_free>
 80061ac:	6f65      	ldr	r5, [r4, #116]	; 0x74
 80061ae:	b125      	cbz	r5, 80061ba <tcp_receive+0x65e>
 80061b0:	68ea      	ldr	r2, [r5, #12]
 80061b2:	6a61      	ldr	r1, [r4, #36]	; 0x24
 80061b4:	6853      	ldr	r3, [r2, #4]
 80061b6:	428b      	cmp	r3, r1
 80061b8:	d0a4      	beq.n	8006104 <tcp_receive+0x5a8>
 80061ba:	8b63      	ldrh	r3, [r4, #26]
 80061bc:	07d9      	lsls	r1, r3, #31
 80061be:	d506      	bpl.n	80061ce <tcp_receive+0x672>
 80061c0:	f023 0301 	bic.w	r3, r3, #1
 80061c4:	f043 0302 	orr.w	r3, r3, #2
 80061c8:	e003      	b.n	80061d2 <tcp_receive+0x676>
 80061ca:	6019      	str	r1, [r3, #0]
 80061cc:	e7d7      	b.n	800617e <tcp_receive+0x622>
 80061ce:	f043 0301 	orr.w	r3, r3, #1
 80061d2:	8363      	strh	r3, [r4, #26]
 80061d4:	e8bd 8ff8 	ldmia.w	sp!, {r3, r4, r5, r6, r7, r8, r9, sl, fp, pc}
 80061d8:	6f65      	ldr	r5, [r4, #116]	; 0x74
 80061da:	b945      	cbnz	r5, 80061ee <tcp_receive+0x692>
 80061dc:	4820      	ldr	r0, [pc, #128]	; (8006260 <tcp_receive+0x704>)
 80061de:	f7fe fd5f 	bl	8004ca0 <tcp_seg_copy>
 80061e2:	6760      	str	r0, [r4, #116]	; 0x74
 80061e4:	4620      	mov	r0, r4
 80061e6:	e8bd 4ff8 	ldmia.w	sp!, {r3, r4, r5, r6, r7, r8, r9, sl, fp, lr}
 80061ea:	f001 ba31 	b.w	8007650 <tcp_send_empty_ack>
 80061ee:	f04f 0800 	mov.w	r8, #0
 80061f2:	f103 3eff 	add.w	lr, r3, #4294967295
 80061f6:	f8d5 c00c 	ldr.w	ip, [r5, #12]
 80061fa:	f8dc 2004 	ldr.w	r2, [ip, #4]
 80061fe:	4293      	cmp	r3, r2
 8006200:	d115      	bne.n	800622e <tcp_receive+0x6d2>
 8006202:	4817      	ldr	r0, [pc, #92]	; (8006260 <tcp_receive+0x704>)
 8006204:	892b      	ldrh	r3, [r5, #8]
 8006206:	8902      	ldrh	r2, [r0, #8]
 8006208:	429a      	cmp	r2, r3
 800620a:	d9eb      	bls.n	80061e4 <tcp_receive+0x688>
 800620c:	f7fe fd48 	bl	8004ca0 <tcp_seg_copy>
 8006210:	2800      	cmp	r0, #0
 8006212:	d0e7      	beq.n	80061e4 <tcp_receive+0x688>
 8006214:	f1b8 0f00 	cmp.w	r8, #0
 8006218:	d007      	beq.n	800622a <tcp_receive+0x6ce>
 800621a:	f8c8 0000 	str.w	r0, [r8]
 800621e:	4629      	mov	r1, r5
 8006220:	f7ff fb7c 	bl	800591c <tcp_oos_insert_segment>
 8006224:	e7de      	b.n	80061e4 <tcp_receive+0x688>
 8006226:	460d      	mov	r5, r1
 8006228:	e7e5      	b.n	80061f6 <tcp_receive+0x69a>
 800622a:	6760      	str	r0, [r4, #116]	; 0x74
 800622c:	e7f7      	b.n	800621e <tcp_receive+0x6c2>
 800622e:	f1b8 0f00 	cmp.w	r8, #0
 8006232:	d119      	bne.n	8006268 <tcp_receive+0x70c>
 8006234:	1a99      	subs	r1, r3, r2
 8006236:	2900      	cmp	r1, #0
 8006238:	da3d      	bge.n	80062b6 <tcp_receive+0x75a>
 800623a:	4809      	ldr	r0, [pc, #36]	; (8006260 <tcp_receive+0x704>)
 800623c:	f7fe fd30 	bl	8004ca0 <tcp_seg_copy>
 8006240:	2800      	cmp	r0, #0
 8006242:	d0cf      	beq.n	80061e4 <tcp_receive+0x688>
 8006244:	6760      	str	r0, [r4, #116]	; 0x74
 8006246:	e7ea      	b.n	800621e <tcp_receive+0x6c2>
 8006248:	2000aa50 	.word	0x2000aa50
 800624c:	0800caf7 	.word	0x0800caf7
 8006250:	0800cca8 	.word	0x0800cca8
 8006254:	0800be06 	.word	0x0800be06
 8006258:	2000aa54 	.word	0x2000aa54
 800625c:	2000aa58 	.word	0x2000aa58
 8006260:	2000aa40 	.word	0x2000aa40
 8006264:	0800ccc7 	.word	0x0800ccc7
 8006268:	f8d8 100c 	ldr.w	r1, [r8, #12]
 800626c:	6849      	ldr	r1, [r1, #4]
 800626e:	ebae 0101 	sub.w	r1, lr, r1
 8006272:	2900      	cmp	r1, #0
 8006274:	db1f      	blt.n	80062b6 <tcp_receive+0x75a>
 8006276:	1a81      	subs	r1, r0, r2
 8006278:	2900      	cmp	r1, #0
 800627a:	dc1c      	bgt.n	80062b6 <tcp_receive+0x75a>
 800627c:	484a      	ldr	r0, [pc, #296]	; (80063a8 <tcp_receive+0x84c>)
 800627e:	f7fe fd0f 	bl	8004ca0 <tcp_seg_copy>
 8006282:	4607      	mov	r7, r0
 8006284:	2800      	cmp	r0, #0
 8006286:	d0ad      	beq.n	80061e4 <tcp_receive+0x688>
 8006288:	f8d8 300c 	ldr.w	r3, [r8, #12]
 800628c:	6831      	ldr	r1, [r6, #0]
 800628e:	685a      	ldr	r2, [r3, #4]
 8006290:	f8b8 3008 	ldrh.w	r3, [r8, #8]
 8006294:	4413      	add	r3, r2
 8006296:	1a5b      	subs	r3, r3, r1
 8006298:	2b00      	cmp	r3, #0
 800629a:	dd07      	ble.n	80062ac <tcp_receive+0x750>
 800629c:	1a89      	subs	r1, r1, r2
 800629e:	f8d8 0004 	ldr.w	r0, [r8, #4]
 80062a2:	b289      	uxth	r1, r1
 80062a4:	f8a8 1008 	strh.w	r1, [r8, #8]
 80062a8:	f7fe fa66 	bl	8004778 <pbuf_realloc>
 80062ac:	4629      	mov	r1, r5
 80062ae:	4638      	mov	r0, r7
 80062b0:	f8c8 7000 	str.w	r7, [r8]
 80062b4:	e7b4      	b.n	8006220 <tcp_receive+0x6c4>
 80062b6:	6829      	ldr	r1, [r5, #0]
 80062b8:	46a8      	mov	r8, r5
 80062ba:	2900      	cmp	r1, #0
 80062bc:	d1b3      	bne.n	8006226 <tcp_receive+0x6ca>
 80062be:	1a9b      	subs	r3, r3, r2
 80062c0:	2b00      	cmp	r3, #0
 80062c2:	dd8f      	ble.n	80061e4 <tcp_receive+0x688>
 80062c4:	f8bc 000c 	ldrh.w	r0, [ip, #12]
 80062c8:	f7fd fc28 	bl	8003b1c <lwip_htons>
 80062cc:	07c2      	lsls	r2, r0, #31
 80062ce:	d489      	bmi.n	80061e4 <tcp_receive+0x688>
 80062d0:	4835      	ldr	r0, [pc, #212]	; (80063a8 <tcp_receive+0x84c>)
 80062d2:	f7fe fce5 	bl	8004ca0 <tcp_seg_copy>
 80062d6:	6028      	str	r0, [r5, #0]
 80062d8:	2800      	cmp	r0, #0
 80062da:	d083      	beq.n	80061e4 <tcp_receive+0x688>
 80062dc:	68eb      	ldr	r3, [r5, #12]
 80062de:	6831      	ldr	r1, [r6, #0]
 80062e0:	685a      	ldr	r2, [r3, #4]
 80062e2:	892b      	ldrh	r3, [r5, #8]
 80062e4:	4413      	add	r3, r2
 80062e6:	1a5b      	subs	r3, r3, r1
 80062e8:	2b00      	cmp	r3, #0
 80062ea:	dd05      	ble.n	80062f8 <tcp_receive+0x79c>
 80062ec:	1a89      	subs	r1, r1, r2
 80062ee:	6868      	ldr	r0, [r5, #4]
 80062f0:	b289      	uxth	r1, r1
 80062f2:	8129      	strh	r1, [r5, #8]
 80062f4:	f7fe fa40 	bl	8004778 <pbuf_realloc>
 80062f8:	6832      	ldr	r2, [r6, #0]
 80062fa:	883b      	ldrh	r3, [r7, #0]
 80062fc:	4413      	add	r3, r2
 80062fe:	6a62      	ldr	r2, [r4, #36]	; 0x24
 8006300:	1a9b      	subs	r3, r3, r2
 8006302:	8d22      	ldrh	r2, [r4, #40]	; 0x28
 8006304:	1a9b      	subs	r3, r3, r2
 8006306:	2b00      	cmp	r3, #0
 8006308:	f77f af6c 	ble.w	80061e4 <tcp_receive+0x688>
 800630c:	682b      	ldr	r3, [r5, #0]
 800630e:	68db      	ldr	r3, [r3, #12]
 8006310:	8998      	ldrh	r0, [r3, #12]
 8006312:	f7fd fc03 	bl	8003b1c <lwip_htons>
 8006316:	07c3      	lsls	r3, r0, #31
 8006318:	d511      	bpl.n	800633e <tcp_receive+0x7e2>
 800631a:	682b      	ldr	r3, [r5, #0]
 800631c:	68db      	ldr	r3, [r3, #12]
 800631e:	f8b3 800c 	ldrh.w	r8, [r3, #12]
 8006322:	4640      	mov	r0, r8
 8006324:	f428 587c 	bic.w	r8, r8, #16128	; 0x3f00
 8006328:	f7fd fbf8 	bl	8003b1c <lwip_htons>
 800632c:	f000 003e 	and.w	r0, r0, #62	; 0x3e
 8006330:	f7fd fbf4 	bl	8003b1c <lwip_htons>
 8006334:	682b      	ldr	r3, [r5, #0]
 8006336:	ea40 0008 	orr.w	r0, r0, r8
 800633a:	68db      	ldr	r3, [r3, #12]
 800633c:	8198      	strh	r0, [r3, #12]
 800633e:	6832      	ldr	r2, [r6, #0]
 8006340:	8d21      	ldrh	r1, [r4, #40]	; 0x28
 8006342:	682b      	ldr	r3, [r5, #0]
 8006344:	1a89      	subs	r1, r1, r2
 8006346:	6a62      	ldr	r2, [r4, #36]	; 0x24
 8006348:	6858      	ldr	r0, [r3, #4]
 800634a:	4411      	add	r1, r2
 800634c:	b289      	uxth	r1, r1
 800634e:	8119      	strh	r1, [r3, #8]
 8006350:	f7fe fa12 	bl	8004778 <pbuf_realloc>
 8006354:	682b      	ldr	r3, [r5, #0]
 8006356:	891d      	ldrh	r5, [r3, #8]
 8006358:	68db      	ldr	r3, [r3, #12]
 800635a:	8998      	ldrh	r0, [r3, #12]
 800635c:	f7fd fbde 	bl	8003b1c <lwip_htons>
 8006360:	f010 0003 	ands.w	r0, r0, #3
 8006364:	6832      	ldr	r2, [r6, #0]
 8006366:	bf18      	it	ne
 8006368:	2001      	movne	r0, #1
 800636a:	6a61      	ldr	r1, [r4, #36]	; 0x24
 800636c:	182b      	adds	r3, r5, r0
 800636e:	b29b      	uxth	r3, r3
 8006370:	803b      	strh	r3, [r7, #0]
 8006372:	4413      	add	r3, r2
 8006374:	8d22      	ldrh	r2, [r4, #40]	; 0x28
 8006376:	440a      	add	r2, r1
 8006378:	4293      	cmp	r3, r2
 800637a:	f43f af33 	beq.w	80061e4 <tcp_receive+0x688>
 800637e:	4b0b      	ldr	r3, [pc, #44]	; (80063ac <tcp_receive+0x850>)
 8006380:	f44f 62df 	mov.w	r2, #1784	; 0x6f8
 8006384:	490a      	ldr	r1, [pc, #40]	; (80063b0 <tcp_receive+0x854>)
 8006386:	480b      	ldr	r0, [pc, #44]	; (80063b4 <tcp_receive+0x858>)
 8006388:	f003 fb9c 	bl	8009ac4 <iprintf>
 800638c:	e72a      	b.n	80061e4 <tcp_receive+0x688>
 800638e:	1a99      	subs	r1, r3, r2
 8006390:	2900      	cmp	r1, #0
 8006392:	db06      	blt.n	80063a2 <tcp_receive+0x846>
 8006394:	3301      	adds	r3, #1
 8006396:	1a9b      	subs	r3, r3, r2
 8006398:	8d22      	ldrh	r2, [r4, #40]	; 0x28
 800639a:	1a9b      	subs	r3, r3, r2
 800639c:	2b00      	cmp	r3, #0
 800639e:	f77f af19 	ble.w	80061d4 <tcp_receive+0x678>
 80063a2:	8b63      	ldrh	r3, [r4, #26]
 80063a4:	e70e      	b.n	80061c4 <tcp_receive+0x668>
 80063a6:	bf00      	nop
 80063a8:	2000aa40 	.word	0x2000aa40
 80063ac:	0800caf7 	.word	0x0800caf7
 80063b0:	0800cc36 	.word	0x0800cc36
 80063b4:	0800be06 	.word	0x0800be06

080063b8 <tcp_input>:
 80063b8:	e92d 4ff0 	stmdb	sp!, {r4, r5, r6, r7, r8, r9, sl, fp, lr}
 80063bc:	4605      	mov	r5, r0
 80063be:	b087      	sub	sp, #28
 80063c0:	b928      	cbnz	r0, 80063ce <tcp_input+0x16>
 80063c2:	4b63      	ldr	r3, [pc, #396]	; (8006550 <tcp_input+0x198>)
 80063c4:	2283      	movs	r2, #131	; 0x83
 80063c6:	4963      	ldr	r1, [pc, #396]	; (8006554 <tcp_input+0x19c>)
 80063c8:	4863      	ldr	r0, [pc, #396]	; (8006558 <tcp_input+0x1a0>)
 80063ca:	f003 fb7b 	bl	8009ac4 <iprintf>
 80063ce:	686b      	ldr	r3, [r5, #4]
 80063d0:	4e62      	ldr	r6, [pc, #392]	; (800655c <tcp_input+0x1a4>)
 80063d2:	6033      	str	r3, [r6, #0]
 80063d4:	896b      	ldrh	r3, [r5, #10]
 80063d6:	2b13      	cmp	r3, #19
 80063d8:	f240 80b3 	bls.w	8006542 <tcp_input+0x18a>
 80063dc:	4f60      	ldr	r7, [pc, #384]	; (8006560 <tcp_input+0x1a8>)
 80063de:	6839      	ldr	r1, [r7, #0]
 80063e0:	6978      	ldr	r0, [r7, #20]
 80063e2:	f002 fd6c 	bl	8008ebe <ip4_addr_isbroadcast_u32>
 80063e6:	4604      	mov	r4, r0
 80063e8:	2800      	cmp	r0, #0
 80063ea:	f040 80aa 	bne.w	8006542 <tcp_input+0x18a>
 80063ee:	697b      	ldr	r3, [r7, #20]
 80063f0:	f003 03f0 	and.w	r3, r3, #240	; 0xf0
 80063f4:	2be0      	cmp	r3, #224	; 0xe0
 80063f6:	f000 80a4 	beq.w	8006542 <tcp_input+0x18a>
 80063fa:	6833      	ldr	r3, [r6, #0]
 80063fc:	8998      	ldrh	r0, [r3, #12]
 80063fe:	f7fd fb8d 	bl	8003b1c <lwip_htons>
 8006402:	0a81      	lsrs	r1, r0, #10
 8006404:	f001 01fc 	and.w	r1, r1, #252	; 0xfc
 8006408:	2913      	cmp	r1, #19
 800640a:	f240 809a 	bls.w	8006542 <tcp_input+0x18a>
 800640e:	892b      	ldrh	r3, [r5, #8]
 8006410:	b28a      	uxth	r2, r1
 8006412:	428b      	cmp	r3, r1
 8006414:	f0c0 8095 	bcc.w	8006542 <tcp_input+0x18a>
 8006418:	f1a2 0314 	sub.w	r3, r2, #20
 800641c:	8968      	ldrh	r0, [r5, #10]
 800641e:	f8df 8160 	ldr.w	r8, [pc, #352]	; 8006580 <tcp_input+0x1c8>
 8006422:	b29b      	uxth	r3, r3
 8006424:	f8df a15c 	ldr.w	sl, [pc, #348]	; 8006584 <tcp_input+0x1cc>
 8006428:	4290      	cmp	r0, r2
 800642a:	f8df 915c 	ldr.w	r9, [pc, #348]	; 8006588 <tcp_input+0x1d0>
 800642e:	f8a8 3000 	strh.w	r3, [r8]
 8006432:	f8ca 4000 	str.w	r4, [sl]
 8006436:	d342      	bcc.n	80064be <tcp_input+0x106>
 8006438:	4628      	mov	r0, r5
 800643a:	f8a9 3000 	strh.w	r3, [r9]
 800643e:	f7fe f883 	bl	8004548 <pbuf_remove_header>
 8006442:	6834      	ldr	r4, [r6, #0]
 8006444:	f8df b144 	ldr.w	fp, [pc, #324]	; 800658c <tcp_input+0x1d4>
 8006448:	8820      	ldrh	r0, [r4, #0]
 800644a:	f7fd fb67 	bl	8003b1c <lwip_htons>
 800644e:	8020      	strh	r0, [r4, #0]
 8006450:	6834      	ldr	r4, [r6, #0]
 8006452:	8860      	ldrh	r0, [r4, #2]
 8006454:	f7fd fb62 	bl	8003b1c <lwip_htons>
 8006458:	8060      	strh	r0, [r4, #2]
 800645a:	6834      	ldr	r4, [r6, #0]
 800645c:	6860      	ldr	r0, [r4, #4]
 800645e:	f7fd fb60 	bl	8003b22 <lwip_htonl>
 8006462:	4b40      	ldr	r3, [pc, #256]	; (8006564 <tcp_input+0x1ac>)
 8006464:	6060      	str	r0, [r4, #4]
 8006466:	6834      	ldr	r4, [r6, #0]
 8006468:	6018      	str	r0, [r3, #0]
 800646a:	68a0      	ldr	r0, [r4, #8]
 800646c:	f7fd fb59 	bl	8003b22 <lwip_htonl>
 8006470:	60a0      	str	r0, [r4, #8]
 8006472:	6834      	ldr	r4, [r6, #0]
 8006474:	f8cb 0000 	str.w	r0, [fp]
 8006478:	89e0      	ldrh	r0, [r4, #14]
 800647a:	f7fd fb4f 	bl	8003b1c <lwip_htons>
 800647e:	6833      	ldr	r3, [r6, #0]
 8006480:	81e0      	strh	r0, [r4, #14]
 8006482:	8998      	ldrh	r0, [r3, #12]
 8006484:	f7fd fb4a 	bl	8003b1c <lwip_htons>
 8006488:	4a37      	ldr	r2, [pc, #220]	; (8006568 <tcp_input+0x1b0>)
 800648a:	f000 033f 	and.w	r3, r0, #63	; 0x3f
 800648e:	7013      	strb	r3, [r2, #0]
 8006490:	0783      	lsls	r3, r0, #30
 8006492:	892a      	ldrh	r2, [r5, #8]
 8006494:	d14f      	bne.n	8006536 <tcp_input+0x17e>
 8006496:	4b35      	ldr	r3, [pc, #212]	; (800656c <tcp_input+0x1b4>)
 8006498:	801a      	strh	r2, [r3, #0]
 800649a:	f8df 80f4 	ldr.w	r8, [pc, #244]	; 8006590 <tcp_input+0x1d8>
 800649e:	f04f 0a00 	mov.w	sl, #0
 80064a2:	4b2b      	ldr	r3, [pc, #172]	; (8006550 <tcp_input+0x198>)
 80064a4:	f8d8 4000 	ldr.w	r4, [r8]
 80064a8:	f8df 90ac 	ldr.w	r9, [pc, #172]	; 8006558 <tcp_input+0x1a0>
 80064ac:	2c00      	cmp	r4, #0
 80064ae:	d173      	bne.n	8006598 <tcp_input+0x1e0>
 80064b0:	4b2f      	ldr	r3, [pc, #188]	; (8006570 <tcp_input+0x1b8>)
 80064b2:	f8df a0e0 	ldr.w	sl, [pc, #224]	; 8006594 <tcp_input+0x1dc>
 80064b6:	681c      	ldr	r4, [r3, #0]
 80064b8:	f8df 909c 	ldr.w	r9, [pc, #156]	; 8006558 <tcp_input+0x1a0>
 80064bc:	e15a      	b.n	8006774 <tcp_input+0x3bc>
 80064be:	682b      	ldr	r3, [r5, #0]
 80064c0:	b92b      	cbnz	r3, 80064ce <tcp_input+0x116>
 80064c2:	4b23      	ldr	r3, [pc, #140]	; (8006550 <tcp_input+0x198>)
 80064c4:	22c2      	movs	r2, #194	; 0xc2
 80064c6:	492b      	ldr	r1, [pc, #172]	; (8006574 <tcp_input+0x1bc>)
 80064c8:	4823      	ldr	r0, [pc, #140]	; (8006558 <tcp_input+0x1a0>)
 80064ca:	f003 fafb 	bl	8009ac4 <iprintf>
 80064ce:	2114      	movs	r1, #20
 80064d0:	4628      	mov	r0, r5
 80064d2:	f7fe f839 	bl	8004548 <pbuf_remove_header>
 80064d6:	896c      	ldrh	r4, [r5, #10]
 80064d8:	4628      	mov	r0, r5
 80064da:	f8a9 4000 	strh.w	r4, [r9]
 80064de:	4621      	mov	r1, r4
 80064e0:	f8b8 9000 	ldrh.w	r9, [r8]
 80064e4:	f7fe f830 	bl	8004548 <pbuf_remove_header>
 80064e8:	6828      	ldr	r0, [r5, #0]
 80064ea:	eba9 0804 	sub.w	r8, r9, r4
 80064ee:	8943      	ldrh	r3, [r0, #10]
 80064f0:	fa1f f888 	uxth.w	r8, r8
 80064f4:	4543      	cmp	r3, r8
 80064f6:	d324      	bcc.n	8006542 <tcp_input+0x18a>
 80064f8:	6843      	ldr	r3, [r0, #4]
 80064fa:	4641      	mov	r1, r8
 80064fc:	f8ca 3000 	str.w	r3, [sl]
 8006500:	f7fe f822 	bl	8004548 <pbuf_remove_header>
 8006504:	892b      	ldrh	r3, [r5, #8]
 8006506:	441c      	add	r4, r3
 8006508:	896b      	ldrh	r3, [r5, #10]
 800650a:	eba4 0409 	sub.w	r4, r4, r9
 800650e:	812c      	strh	r4, [r5, #8]
 8006510:	b12b      	cbz	r3, 800651e <tcp_input+0x166>
 8006512:	4b0f      	ldr	r3, [pc, #60]	; (8006550 <tcp_input+0x198>)
 8006514:	22df      	movs	r2, #223	; 0xdf
 8006516:	4918      	ldr	r1, [pc, #96]	; (8006578 <tcp_input+0x1c0>)
 8006518:	480f      	ldr	r0, [pc, #60]	; (8006558 <tcp_input+0x1a0>)
 800651a:	f003 fad3 	bl	8009ac4 <iprintf>
 800651e:	682b      	ldr	r3, [r5, #0]
 8006520:	892a      	ldrh	r2, [r5, #8]
 8006522:	891b      	ldrh	r3, [r3, #8]
 8006524:	429a      	cmp	r2, r3
 8006526:	d08c      	beq.n	8006442 <tcp_input+0x8a>
 8006528:	4b09      	ldr	r3, [pc, #36]	; (8006550 <tcp_input+0x198>)
 800652a:	22e0      	movs	r2, #224	; 0xe0
 800652c:	4913      	ldr	r1, [pc, #76]	; (800657c <tcp_input+0x1c4>)
 800652e:	480a      	ldr	r0, [pc, #40]	; (8006558 <tcp_input+0x1a0>)
 8006530:	f003 fac8 	bl	8009ac4 <iprintf>
 8006534:	e785      	b.n	8006442 <tcp_input+0x8a>
 8006536:	1c53      	adds	r3, r2, #1
 8006538:	490c      	ldr	r1, [pc, #48]	; (800656c <tcp_input+0x1b4>)
 800653a:	b29b      	uxth	r3, r3
 800653c:	429a      	cmp	r2, r3
 800653e:	800b      	strh	r3, [r1, #0]
 8006540:	d9ab      	bls.n	800649a <tcp_input+0xe2>
 8006542:	4628      	mov	r0, r5
 8006544:	b007      	add	sp, #28
 8006546:	e8bd 4ff0 	ldmia.w	sp!, {r4, r5, r6, r7, r8, r9, sl, fp, lr}
 800654a:	f7fe b831 	b.w	80045b0 <pbuf_free>
 800654e:	bf00      	nop
 8006550:	0800caf7 	.word	0x0800caf7
 8006554:	0800ccec 	.word	0x0800ccec
 8006558:	0800be06 	.word	0x0800be06
 800655c:	2000aa68 	.word	0x2000aa68
 8006560:	200052f4 	.word	0x200052f4
 8006564:	2000aa5c 	.word	0x2000aa5c
 8006568:	2000aa3c 	.word	0x2000aa3c
 800656c:	2000aa76 	.word	0x2000aa76
 8006570:	2000aa34 	.word	0x2000aa34
 8006574:	0800cd04 	.word	0x0800cd04
 8006578:	0800cd14 	.word	0x0800cd14
 800657c:	0800cd20 	.word	0x0800cd20
 8006580:	2000aa74 	.word	0x2000aa74
 8006584:	2000aa70 	.word	0x2000aa70
 8006588:	2000aa6c 	.word	0x2000aa6c
 800658c:	2000aa38 	.word	0x2000aa38
 8006590:	2000aa1c 	.word	0x2000aa1c
 8006594:	0800ce0c 	.word	0x0800ce0c
 8006598:	7d22      	ldrb	r2, [r4, #20]
 800659a:	b92a      	cbnz	r2, 80065a8 <tcp_input+0x1f0>
 800659c:	22fb      	movs	r2, #251	; 0xfb
 800659e:	499d      	ldr	r1, [pc, #628]	; (8006814 <tcp_input+0x45c>)
 80065a0:	4648      	mov	r0, r9
 80065a2:	f003 fa8f 	bl	8009ac4 <iprintf>
 80065a6:	4b9c      	ldr	r3, [pc, #624]	; (8006818 <tcp_input+0x460>)
 80065a8:	7d22      	ldrb	r2, [r4, #20]
 80065aa:	2a0a      	cmp	r2, #10
 80065ac:	d105      	bne.n	80065ba <tcp_input+0x202>
 80065ae:	22fc      	movs	r2, #252	; 0xfc
 80065b0:	499a      	ldr	r1, [pc, #616]	; (800681c <tcp_input+0x464>)
 80065b2:	4648      	mov	r0, r9
 80065b4:	f003 fa86 	bl	8009ac4 <iprintf>
 80065b8:	4b97      	ldr	r3, [pc, #604]	; (8006818 <tcp_input+0x460>)
 80065ba:	7d22      	ldrb	r2, [r4, #20]
 80065bc:	2a01      	cmp	r2, #1
 80065be:	d105      	bne.n	80065cc <tcp_input+0x214>
 80065c0:	22fd      	movs	r2, #253	; 0xfd
 80065c2:	4997      	ldr	r1, [pc, #604]	; (8006820 <tcp_input+0x468>)
 80065c4:	4648      	mov	r0, r9
 80065c6:	f003 fa7d 	bl	8009ac4 <iprintf>
 80065ca:	4b93      	ldr	r3, [pc, #588]	; (8006818 <tcp_input+0x460>)
 80065cc:	7a20      	ldrb	r0, [r4, #8]
 80065ce:	68e1      	ldr	r1, [r4, #12]
 80065d0:	b130      	cbz	r0, 80065e0 <tcp_input+0x228>
 80065d2:	687a      	ldr	r2, [r7, #4]
 80065d4:	f892 2030 	ldrb.w	r2, [r2, #48]	; 0x30
 80065d8:	3201      	adds	r2, #1
 80065da:	b2d2      	uxtb	r2, r2
 80065dc:	4290      	cmp	r0, r2
 80065de:	d173      	bne.n	80066c8 <tcp_input+0x310>
 80065e0:	6832      	ldr	r2, [r6, #0]
 80065e2:	f8b4 c018 	ldrh.w	ip, [r4, #24]
 80065e6:	8810      	ldrh	r0, [r2, #0]
 80065e8:	4584      	cmp	ip, r0
 80065ea:	d16d      	bne.n	80066c8 <tcp_input+0x310>
 80065ec:	8ae0      	ldrh	r0, [r4, #22]
 80065ee:	8852      	ldrh	r2, [r2, #2]
 80065f0:	4290      	cmp	r0, r2
 80065f2:	d169      	bne.n	80066c8 <tcp_input+0x310>
 80065f4:	6860      	ldr	r0, [r4, #4]
 80065f6:	693a      	ldr	r2, [r7, #16]
 80065f8:	4290      	cmp	r0, r2
 80065fa:	d165      	bne.n	80066c8 <tcp_input+0x310>
 80065fc:	6820      	ldr	r0, [r4, #0]
 80065fe:	697a      	ldr	r2, [r7, #20]
 8006600:	4290      	cmp	r0, r2
 8006602:	d161      	bne.n	80066c8 <tcp_input+0x310>
 8006604:	42a1      	cmp	r1, r4
 8006606:	f040 8445 	bne.w	8006e94 <tcp_input+0xadc>
 800660a:	4b83      	ldr	r3, [pc, #524]	; (8006818 <tcp_input+0x460>)
 800660c:	f240 120d 	movw	r2, #269	; 0x10d
 8006610:	4984      	ldr	r1, [pc, #528]	; (8006824 <tcp_input+0x46c>)
 8006612:	4885      	ldr	r0, [pc, #532]	; (8006828 <tcp_input+0x470>)
 8006614:	f003 fa56 	bl	8009ac4 <iprintf>
 8006618:	f1ba 0f00 	cmp.w	sl, #0
 800661c:	d007      	beq.n	800662e <tcp_input+0x276>
 800661e:	68e3      	ldr	r3, [r4, #12]
 8006620:	f8ca 300c 	str.w	r3, [sl, #12]
 8006624:	f8d8 3000 	ldr.w	r3, [r8]
 8006628:	f8c8 4000 	str.w	r4, [r8]
 800662c:	60e3      	str	r3, [r4, #12]
 800662e:	68e3      	ldr	r3, [r4, #12]
 8006630:	42a3      	cmp	r3, r4
 8006632:	d106      	bne.n	8006642 <tcp_input+0x28a>
 8006634:	4b78      	ldr	r3, [pc, #480]	; (8006818 <tcp_input+0x460>)
 8006636:	f240 1215 	movw	r2, #277	; 0x115
 800663a:	497c      	ldr	r1, [pc, #496]	; (800682c <tcp_input+0x474>)
 800663c:	487a      	ldr	r0, [pc, #488]	; (8006828 <tcp_input+0x470>)
 800663e:	f003 fa41 	bl	8009ac4 <iprintf>
 8006642:	f8df 9210 	ldr.w	r9, [pc, #528]	; 8006854 <tcp_input+0x49c>
 8006646:	2300      	movs	r3, #0
 8006648:	892a      	ldrh	r2, [r5, #8]
 800664a:	f8df a20c 	ldr.w	sl, [pc, #524]	; 8006858 <tcp_input+0x4a0>
 800664e:	f8a9 2008 	strh.w	r2, [r9, #8]
 8006652:	6832      	ldr	r2, [r6, #0]
 8006654:	4f76      	ldr	r7, [pc, #472]	; (8006830 <tcp_input+0x478>)
 8006656:	f8c9 200c 	str.w	r2, [r9, #12]
 800665a:	4a76      	ldr	r2, [pc, #472]	; (8006834 <tcp_input+0x47c>)
 800665c:	f8c9 3000 	str.w	r3, [r9]
 8006660:	f8ca 3000 	str.w	r3, [sl]
 8006664:	703b      	strb	r3, [r7, #0]
 8006666:	8013      	strh	r3, [r2, #0]
 8006668:	4b73      	ldr	r3, [pc, #460]	; (8006838 <tcp_input+0x480>)
 800666a:	f8c9 5004 	str.w	r5, [r9, #4]
 800666e:	781b      	ldrb	r3, [r3, #0]
 8006670:	071b      	lsls	r3, r3, #28
 8006672:	d503      	bpl.n	800667c <tcp_input+0x2c4>
 8006674:	7b6b      	ldrb	r3, [r5, #13]
 8006676:	f043 0301 	orr.w	r3, r3, #1
 800667a:	736b      	strb	r3, [r5, #13]
 800667c:	6fa3      	ldr	r3, [r4, #120]	; 0x78
 800667e:	4d6f      	ldr	r5, [pc, #444]	; (800683c <tcp_input+0x484>)
 8006680:	2b00      	cmp	r3, #0
 8006682:	f000 814c 	beq.w	800691e <tcp_input+0x566>
 8006686:	4620      	mov	r0, r4
 8006688:	f7fe fe7c 	bl	8005384 <tcp_process_refused_data>
 800668c:	300d      	adds	r0, #13
 800668e:	d008      	beq.n	80066a2 <tcp_input+0x2ea>
 8006690:	6fa3      	ldr	r3, [r4, #120]	; 0x78
 8006692:	2b00      	cmp	r3, #0
 8006694:	f000 8143 	beq.w	800691e <tcp_input+0x566>
 8006698:	4b69      	ldr	r3, [pc, #420]	; (8006840 <tcp_input+0x488>)
 800669a:	881b      	ldrh	r3, [r3, #0]
 800669c:	2b00      	cmp	r3, #0
 800669e:	f000 813e 	beq.w	800691e <tcp_input+0x566>
 80066a2:	8d63      	ldrh	r3, [r4, #42]	; 0x2a
 80066a4:	b913      	cbnz	r3, 80066ac <tcp_input+0x2f4>
 80066a6:	4620      	mov	r0, r4
 80066a8:	f000 ffd2 	bl	8007650 <tcp_send_empty_ack>
 80066ac:	2400      	movs	r4, #0
 80066ae:	f8d9 0004 	ldr.w	r0, [r9, #4]
 80066b2:	602c      	str	r4, [r5, #0]
 80066b4:	f8ca 4000 	str.w	r4, [sl]
 80066b8:	b118      	cbz	r0, 80066c2 <tcp_input+0x30a>
 80066ba:	f7fd ff79 	bl	80045b0 <pbuf_free>
 80066be:	f8c9 4004 	str.w	r4, [r9, #4]
 80066c2:	b007      	add	sp, #28
 80066c4:	e8bd 8ff0 	ldmia.w	sp!, {r4, r5, r6, r7, r8, r9, sl, fp, pc}
 80066c8:	46a2      	mov	sl, r4
 80066ca:	460c      	mov	r4, r1
 80066cc:	e6ee      	b.n	80064ac <tcp_input+0xf4>
 80066ce:	7d23      	ldrb	r3, [r4, #20]
 80066d0:	2b0a      	cmp	r3, #10
 80066d2:	d006      	beq.n	80066e2 <tcp_input+0x32a>
 80066d4:	4b50      	ldr	r3, [pc, #320]	; (8006818 <tcp_input+0x460>)
 80066d6:	f240 121f 	movw	r2, #287	; 0x11f
 80066da:	4651      	mov	r1, sl
 80066dc:	4648      	mov	r0, r9
 80066de:	f003 f9f1 	bl	8009ac4 <iprintf>
 80066e2:	7a22      	ldrb	r2, [r4, #8]
 80066e4:	b132      	cbz	r2, 80066f4 <tcp_input+0x33c>
 80066e6:	687b      	ldr	r3, [r7, #4]
 80066e8:	f893 3030 	ldrb.w	r3, [r3, #48]	; 0x30
 80066ec:	3301      	adds	r3, #1
 80066ee:	b2db      	uxtb	r3, r3
 80066f0:	429a      	cmp	r2, r3
 80066f2:	d13e      	bne.n	8006772 <tcp_input+0x3ba>
 80066f4:	6833      	ldr	r3, [r6, #0]
 80066f6:	8b20      	ldrh	r0, [r4, #24]
 80066f8:	881a      	ldrh	r2, [r3, #0]
 80066fa:	4290      	cmp	r0, r2
 80066fc:	d139      	bne.n	8006772 <tcp_input+0x3ba>
 80066fe:	885b      	ldrh	r3, [r3, #2]
 8006700:	8ae1      	ldrh	r1, [r4, #22]
 8006702:	4299      	cmp	r1, r3
 8006704:	d135      	bne.n	8006772 <tcp_input+0x3ba>
 8006706:	6862      	ldr	r2, [r4, #4]
 8006708:	693b      	ldr	r3, [r7, #16]
 800670a:	429a      	cmp	r2, r3
 800670c:	d131      	bne.n	8006772 <tcp_input+0x3ba>
 800670e:	6822      	ldr	r2, [r4, #0]
 8006710:	697b      	ldr	r3, [r7, #20]
 8006712:	429a      	cmp	r2, r3
 8006714:	d12d      	bne.n	8006772 <tcp_input+0x3ba>
 8006716:	4b48      	ldr	r3, [pc, #288]	; (8006838 <tcp_input+0x480>)
 8006718:	781b      	ldrb	r3, [r3, #0]
 800671a:	075e      	lsls	r6, r3, #29
 800671c:	f53f af11 	bmi.w	8006542 <tcp_input+0x18a>
 8006720:	4a47      	ldr	r2, [pc, #284]	; (8006840 <tcp_input+0x488>)
 8006722:	8816      	ldrh	r6, [r2, #0]
 8006724:	079a      	lsls	r2, r3, #30
 8006726:	d514      	bpl.n	8006752 <tcp_input+0x39a>
 8006728:	4b46      	ldr	r3, [pc, #280]	; (8006844 <tcp_input+0x48c>)
 800672a:	681a      	ldr	r2, [r3, #0]
 800672c:	6a63      	ldr	r3, [r4, #36]	; 0x24
 800672e:	1ad3      	subs	r3, r2, r3
 8006730:	d414      	bmi.n	800675c <tcp_input+0x3a4>
 8006732:	8d27      	ldrh	r7, [r4, #40]	; 0x28
 8006734:	1bdb      	subs	r3, r3, r7
 8006736:	2b00      	cmp	r3, #0
 8006738:	dc10      	bgt.n	800675c <tcp_input+0x3a4>
 800673a:	4b43      	ldr	r3, [pc, #268]	; (8006848 <tcp_input+0x490>)
 800673c:	4432      	add	r2, r6
 800673e:	e9cd 1001 	strd	r1, r0, [sp, #4]
 8006742:	9300      	str	r3, [sp, #0]
 8006744:	4620      	mov	r0, r4
 8006746:	3304      	adds	r3, #4
 8006748:	f8db 1000 	ldr.w	r1, [fp]
 800674c:	f000 ff3a 	bl	80075c4 <tcp_rst>
 8006750:	e6f7      	b.n	8006542 <tcp_input+0x18a>
 8006752:	07df      	lsls	r7, r3, #31
 8006754:	bf42      	ittt	mi
 8006756:	4b3d      	ldrmi	r3, [pc, #244]	; (800684c <tcp_input+0x494>)
 8006758:	681b      	ldrmi	r3, [r3, #0]
 800675a:	6223      	strmi	r3, [r4, #32]
 800675c:	2e00      	cmp	r6, #0
 800675e:	f43f aef0 	beq.w	8006542 <tcp_input+0x18a>
 8006762:	8b63      	ldrh	r3, [r4, #26]
 8006764:	4620      	mov	r0, r4
 8006766:	f043 0302 	orr.w	r3, r3, #2
 800676a:	8363      	strh	r3, [r4, #26]
 800676c:	f000 ffa2 	bl	80076b4 <tcp_output>
 8006770:	e6e7      	b.n	8006542 <tcp_input+0x18a>
 8006772:	68e4      	ldr	r4, [r4, #12]
 8006774:	2c00      	cmp	r4, #0
 8006776:	d1aa      	bne.n	80066ce <tcp_input+0x316>
 8006778:	4b35      	ldr	r3, [pc, #212]	; (8006850 <tcp_input+0x498>)
 800677a:	f8d7 c004 	ldr.w	ip, [r7, #4]
 800677e:	681a      	ldr	r2, [r3, #0]
 8006780:	6831      	ldr	r1, [r6, #0]
 8006782:	f8d7 e014 	ldr.w	lr, [r7, #20]
 8006786:	4691      	mov	r9, r2
 8006788:	f1b9 0f00 	cmp.w	r9, #0
 800678c:	d113      	bne.n	80067b6 <tcp_input+0x3fe>
 800678e:	8988      	ldrh	r0, [r1, #12]
 8006790:	f7fd f9c4 	bl	8003b1c <lwip_htons>
 8006794:	0742      	lsls	r2, r0, #29
 8006796:	f53f aed4 	bmi.w	8006542 <tcp_input+0x18a>
 800679a:	6833      	ldr	r3, [r6, #0]
 800679c:	4a28      	ldr	r2, [pc, #160]	; (8006840 <tcp_input+0x488>)
 800679e:	8818      	ldrh	r0, [r3, #0]
 80067a0:	8811      	ldrh	r1, [r2, #0]
 80067a2:	4a28      	ldr	r2, [pc, #160]	; (8006844 <tcp_input+0x48c>)
 80067a4:	6812      	ldr	r2, [r2, #0]
 80067a6:	9002      	str	r0, [sp, #8]
 80067a8:	885b      	ldrh	r3, [r3, #2]
 80067aa:	440a      	add	r2, r1
 80067ac:	9301      	str	r3, [sp, #4]
 80067ae:	4b26      	ldr	r3, [pc, #152]	; (8006848 <tcp_input+0x490>)
 80067b0:	9300      	str	r3, [sp, #0]
 80067b2:	3304      	adds	r3, #4
 80067b4:	e36a      	b.n	8006e8c <tcp_input+0xad4>
 80067b6:	f899 0008 	ldrb.w	r0, [r9, #8]
 80067ba:	b128      	cbz	r0, 80067c8 <tcp_input+0x410>
 80067bc:	f89c 3030 	ldrb.w	r3, [ip, #48]	; 0x30
 80067c0:	3301      	adds	r3, #1
 80067c2:	b2db      	uxtb	r3, r3
 80067c4:	4298      	cmp	r0, r3
 80067c6:	d10c      	bne.n	80067e2 <tcp_input+0x42a>
 80067c8:	8848      	ldrh	r0, [r1, #2]
 80067ca:	f8b9 3016 	ldrh.w	r3, [r9, #22]
 80067ce:	4283      	cmp	r3, r0
 80067d0:	d107      	bne.n	80067e2 <tcp_input+0x42a>
 80067d2:	f8d9 3000 	ldr.w	r3, [r9]
 80067d6:	4573      	cmp	r3, lr
 80067d8:	f000 833b 	beq.w	8006e52 <tcp_input+0xa9a>
 80067dc:	2b00      	cmp	r3, #0
 80067de:	f000 8338 	beq.w	8006e52 <tcp_input+0xa9a>
 80067e2:	464c      	mov	r4, r9
 80067e4:	f8d9 900c 	ldr.w	r9, [r9, #12]
 80067e8:	e7ce      	b.n	8006788 <tcp_input+0x3d0>
 80067ea:	0798      	lsls	r0, r3, #30
 80067ec:	f57f aea9 	bpl.w	8006542 <tcp_input+0x18a>
 80067f0:	f899 0015 	ldrb.w	r0, [r9, #21]
 80067f4:	f7fe fc38 	bl	8005068 <tcp_alloc>
 80067f8:	4682      	mov	sl, r0
 80067fa:	bb78      	cbnz	r0, 800685c <tcp_input+0x4a4>
 80067fc:	f8d9 3018 	ldr.w	r3, [r9, #24]
 8006800:	2b00      	cmp	r3, #0
 8006802:	f43f ae9e 	beq.w	8006542 <tcp_input+0x18a>
 8006806:	4601      	mov	r1, r0
 8006808:	f04f 32ff 	mov.w	r2, #4294967295
 800680c:	f8d9 0010 	ldr.w	r0, [r9, #16]
 8006810:	4798      	blx	r3
 8006812:	e696      	b.n	8006542 <tcp_input+0x18a>
 8006814:	0800cd3f 	.word	0x0800cd3f
 8006818:	0800caf7 	.word	0x0800caf7
 800681c:	0800cd66 	.word	0x0800cd66
 8006820:	0800cd90 	.word	0x0800cd90
 8006824:	0800cdb7 	.word	0x0800cdb7
 8006828:	0800be06 	.word	0x0800be06
 800682c:	0800cde2 	.word	0x0800cde2
 8006830:	2000aa58 	.word	0x2000aa58
 8006834:	2000aa50 	.word	0x2000aa50
 8006838:	2000aa3c 	.word	0x2000aa3c
 800683c:	2000aa60 	.word	0x2000aa60
 8006840:	2000aa76 	.word	0x2000aa76
 8006844:	2000aa5c 	.word	0x2000aa5c
 8006848:	20005304 	.word	0x20005304
 800684c:	2000aa2c 	.word	0x2000aa2c
 8006850:	2000aa28 	.word	0x2000aa28
 8006854:	2000aa40 	.word	0x2000aa40
 8006858:	2000aa54 	.word	0x2000aa54
 800685c:	697b      	ldr	r3, [r7, #20]
 800685e:	6832      	ldr	r2, [r6, #0]
 8006860:	6003      	str	r3, [r0, #0]
 8006862:	693b      	ldr	r3, [r7, #16]
 8006864:	4fa8      	ldr	r7, [pc, #672]	; (8006b08 <tcp_input+0x750>)
 8006866:	6043      	str	r3, [r0, #4]
 8006868:	f8b9 3016 	ldrh.w	r3, [r9, #22]
 800686c:	82c3      	strh	r3, [r0, #22]
 800686e:	7813      	ldrb	r3, [r2, #0]
 8006870:	7852      	ldrb	r2, [r2, #1]
 8006872:	ea43 2302 	orr.w	r3, r3, r2, lsl #8
 8006876:	8303      	strh	r3, [r0, #24]
 8006878:	2303      	movs	r3, #3
 800687a:	7503      	strb	r3, [r0, #20]
 800687c:	683b      	ldr	r3, [r7, #0]
 800687e:	3301      	adds	r3, #1
 8006880:	6243      	str	r3, [r0, #36]	; 0x24
 8006882:	62c3      	str	r3, [r0, #44]	; 0x2c
 8006884:	f7fe fa30 	bl	8004ce8 <tcp_next_iss>
 8006888:	683b      	ldr	r3, [r7, #0]
 800688a:	f8ca 0058 	str.w	r0, [sl, #88]	; 0x58
 800688e:	3b01      	subs	r3, #1
 8006890:	f8ca 0050 	str.w	r0, [sl, #80]	; 0x50
 8006894:	f8ca 0044 	str.w	r0, [sl, #68]	; 0x44
 8006898:	f8ca 3054 	str.w	r3, [sl, #84]	; 0x54
 800689c:	f8d9 3010 	ldr.w	r3, [r9, #16]
 80068a0:	f8ca 005c 	str.w	r0, [sl, #92]	; 0x5c
 80068a4:	f8ca 3010 	str.w	r3, [sl, #16]
 80068a8:	f8ca 907c 	str.w	r9, [sl, #124]	; 0x7c
 80068ac:	f899 3009 	ldrb.w	r3, [r9, #9]
 80068b0:	f003 030c 	and.w	r3, r3, #12
 80068b4:	f88a 3009 	strb.w	r3, [sl, #9]
 80068b8:	f899 3008 	ldrb.w	r3, [r9, #8]
 80068bc:	f88a 3008 	strb.w	r3, [sl, #8]
 80068c0:	f8d8 3000 	ldr.w	r3, [r8]
 80068c4:	f8c8 a000 	str.w	sl, [r8]
 80068c8:	f8ca 300c 	str.w	r3, [sl, #12]
 80068cc:	f001 f9c8 	bl	8007c60 <tcp_timer_needed>
 80068d0:	4b8e      	ldr	r3, [pc, #568]	; (8006b0c <tcp_input+0x754>)
 80068d2:	2201      	movs	r2, #1
 80068d4:	4650      	mov	r0, sl
 80068d6:	701a      	strb	r2, [r3, #0]
 80068d8:	f7ff f86a 	bl	80059b0 <tcp_parseopt>
 80068dc:	6833      	ldr	r3, [r6, #0]
 80068de:	f10a 0204 	add.w	r2, sl, #4
 80068e2:	f8ba 6032 	ldrh.w	r6, [sl, #50]	; 0x32
 80068e6:	89db      	ldrh	r3, [r3, #14]
 80068e8:	4610      	mov	r0, r2
 80068ea:	9205      	str	r2, [sp, #20]
 80068ec:	f8aa 3060 	strh.w	r3, [sl, #96]	; 0x60
 80068f0:	f8aa 3062 	strh.w	r3, [sl, #98]	; 0x62
 80068f4:	f002 f974 	bl	8008be0 <ip4_route>
 80068f8:	9a05      	ldr	r2, [sp, #20]
 80068fa:	4601      	mov	r1, r0
 80068fc:	4630      	mov	r0, r6
 80068fe:	f7fe fa0d 	bl	8004d1c <tcp_eff_send_mss_netif>
 8006902:	2112      	movs	r1, #18
 8006904:	f8aa 0032 	strh.w	r0, [sl, #50]	; 0x32
 8006908:	4650      	mov	r0, sl
 800690a:	f000 fcdf 	bl	80072cc <tcp_enqueue_flags>
 800690e:	b120      	cbz	r0, 800691a <tcp_input+0x562>
 8006910:	4621      	mov	r1, r4
 8006912:	4650      	mov	r0, sl
 8006914:	f7fe fac2 	bl	8004e9c <tcp_abandon>
 8006918:	e613      	b.n	8006542 <tcp_input+0x18a>
 800691a:	4650      	mov	r0, sl
 800691c:	e726      	b.n	800676c <tcp_input+0x3b4>
 800691e:	4b7c      	ldr	r3, [pc, #496]	; (8006b10 <tcp_input+0x758>)
 8006920:	602c      	str	r4, [r5, #0]
 8006922:	781a      	ldrb	r2, [r3, #0]
 8006924:	0751      	lsls	r1, r2, #29
 8006926:	d539      	bpl.n	800699c <tcp_input+0x5e4>
 8006928:	7d21      	ldrb	r1, [r4, #20]
 800692a:	2902      	cmp	r1, #2
 800692c:	d11f      	bne.n	800696e <tcp_input+0x5b6>
 800692e:	6d22      	ldr	r2, [r4, #80]	; 0x50
 8006930:	f8db 3000 	ldr.w	r3, [fp]
 8006934:	429a      	cmp	r2, r3
 8006936:	d107      	bne.n	8006948 <tcp_input+0x590>
 8006938:	783b      	ldrb	r3, [r7, #0]
 800693a:	f043 0308 	orr.w	r3, r3, #8
 800693e:	703b      	strb	r3, [r7, #0]
 8006940:	8b63      	ldrh	r3, [r4, #26]
 8006942:	f023 0301 	bic.w	r3, r3, #1
 8006946:	8363      	strh	r3, [r4, #26]
 8006948:	783b      	ldrb	r3, [r7, #0]
 800694a:	0718      	lsls	r0, r3, #28
 800694c:	f140 8204 	bpl.w	8006d58 <tcp_input+0x9a0>
 8006950:	f8d4 3090 	ldr.w	r3, [r4, #144]	; 0x90
 8006954:	b11b      	cbz	r3, 800695e <tcp_input+0x5a6>
 8006956:	f06f 010d 	mvn.w	r1, #13
 800695a:	6920      	ldr	r0, [r4, #16]
 800695c:	4798      	blx	r3
 800695e:	4621      	mov	r1, r4
 8006960:	486c      	ldr	r0, [pc, #432]	; (8006b14 <tcp_input+0x75c>)
 8006962:	f7fe fa35 	bl	8004dd0 <tcp_pcb_remove>
 8006966:	4620      	mov	r0, r4
 8006968:	f7fe f8f8 	bl	8004b5c <tcp_free>
 800696c:	e69e      	b.n	80066ac <tcp_input+0x2f4>
 800696e:	4b66      	ldr	r3, [pc, #408]	; (8006b08 <tcp_input+0x750>)
 8006970:	6a62      	ldr	r2, [r4, #36]	; 0x24
 8006972:	681b      	ldr	r3, [r3, #0]
 8006974:	429a      	cmp	r2, r3
 8006976:	d007      	beq.n	8006988 <tcp_input+0x5d0>
 8006978:	1a9b      	subs	r3, r3, r2
 800697a:	d4e5      	bmi.n	8006948 <tcp_input+0x590>
 800697c:	8d22      	ldrh	r2, [r4, #40]	; 0x28
 800697e:	1a9b      	subs	r3, r3, r2
 8006980:	2b00      	cmp	r3, #0
 8006982:	dce1      	bgt.n	8006948 <tcp_input+0x590>
 8006984:	8b63      	ldrh	r3, [r4, #26]
 8006986:	e010      	b.n	80069aa <tcp_input+0x5f2>
 8006988:	2900      	cmp	r1, #0
 800698a:	d1d5      	bne.n	8006938 <tcp_input+0x580>
 800698c:	4b62      	ldr	r3, [pc, #392]	; (8006b18 <tcp_input+0x760>)
 800698e:	f44f 724e 	mov.w	r2, #824	; 0x338
 8006992:	4962      	ldr	r1, [pc, #392]	; (8006b1c <tcp_input+0x764>)
 8006994:	4862      	ldr	r0, [pc, #392]	; (8006b20 <tcp_input+0x768>)
 8006996:	f003 f895 	bl	8009ac4 <iprintf>
 800699a:	e7cd      	b.n	8006938 <tcp_input+0x580>
 800699c:	0792      	lsls	r2, r2, #30
 800699e:	8b63      	ldrh	r3, [r4, #26]
 80069a0:	d506      	bpl.n	80069b0 <tcp_input+0x5f8>
 80069a2:	7d22      	ldrb	r2, [r4, #20]
 80069a4:	3a02      	subs	r2, #2
 80069a6:	2a01      	cmp	r2, #1
 80069a8:	d902      	bls.n	80069b0 <tcp_input+0x5f8>
 80069aa:	f043 0302 	orr.w	r3, r3, #2
 80069ae:	e7ca      	b.n	8006946 <tcp_input+0x58e>
 80069b0:	06d8      	lsls	r0, r3, #27
 80069b2:	4620      	mov	r0, r4
 80069b4:	bf5e      	ittt	pl
 80069b6:	4b5b      	ldrpl	r3, [pc, #364]	; (8006b24 <tcp_input+0x76c>)
 80069b8:	681b      	ldrpl	r3, [r3, #0]
 80069ba:	6223      	strpl	r3, [r4, #32]
 80069bc:	2300      	movs	r3, #0
 80069be:	f8a4 309a 	strh.w	r3, [r4, #154]	; 0x9a
 80069c2:	f7fe fff5 	bl	80059b0 <tcp_parseopt>
 80069c6:	7d23      	ldrb	r3, [r4, #20]
 80069c8:	3b02      	subs	r3, #2
 80069ca:	2b07      	cmp	r3, #7
 80069cc:	d8bc      	bhi.n	8006948 <tcp_input+0x590>
 80069ce:	e8df f013 	tbh	[pc, r3, lsl #1]
 80069d2:	0008      	.short	0x0008
 80069d4:	012400b3 	.word	0x012400b3
 80069d8:	01730128 	.word	0x01730128
 80069dc:	018c0124 	.word	0x018c0124
 80069e0:	01ac      	.short	0x01ac
 80069e2:	4b4b      	ldr	r3, [pc, #300]	; (8006b10 <tcp_input+0x758>)
 80069e4:	781b      	ldrb	r3, [r3, #0]
 80069e6:	f003 0212 	and.w	r2, r3, #18
 80069ea:	2a12      	cmp	r2, #18
 80069ec:	d16c      	bne.n	8006ac8 <tcp_input+0x710>
 80069ee:	6c62      	ldr	r2, [r4, #68]	; 0x44
 80069f0:	f8db 1000 	ldr.w	r1, [fp]
 80069f4:	3201      	adds	r2, #1
 80069f6:	428a      	cmp	r2, r1
 80069f8:	d166      	bne.n	8006ac8 <tcp_input+0x710>
 80069fa:	4b43      	ldr	r3, [pc, #268]	; (8006b08 <tcp_input+0x750>)
 80069fc:	6462      	str	r2, [r4, #68]	; 0x44
 80069fe:	681b      	ldr	r3, [r3, #0]
 8006a00:	6832      	ldr	r2, [r6, #0]
 8006a02:	1c59      	adds	r1, r3, #1
 8006a04:	3b01      	subs	r3, #1
 8006a06:	8e66      	ldrh	r6, [r4, #50]	; 0x32
 8006a08:	6261      	str	r1, [r4, #36]	; 0x24
 8006a0a:	62e1      	str	r1, [r4, #44]	; 0x2c
 8006a0c:	89d2      	ldrh	r2, [r2, #14]
 8006a0e:	6563      	str	r3, [r4, #84]	; 0x54
 8006a10:	2304      	movs	r3, #4
 8006a12:	f8a4 2060 	strh.w	r2, [r4, #96]	; 0x60
 8006a16:	f8a4 2062 	strh.w	r2, [r4, #98]	; 0x62
 8006a1a:	18e2      	adds	r2, r4, r3
 8006a1c:	7523      	strb	r3, [r4, #20]
 8006a1e:	4610      	mov	r0, r2
 8006a20:	9205      	str	r2, [sp, #20]
 8006a22:	f002 f8dd 	bl	8008be0 <ip4_route>
 8006a26:	9a05      	ldr	r2, [sp, #20]
 8006a28:	4601      	mov	r1, r0
 8006a2a:	4630      	mov	r0, r6
 8006a2c:	f7fe f976 	bl	8004d1c <tcp_eff_send_mss_netif>
 8006a30:	f241 131c 	movw	r3, #4380	; 0x111c
 8006a34:	0042      	lsls	r2, r0, #1
 8006a36:	8660      	strh	r0, [r4, #50]	; 0x32
 8006a38:	0081      	lsls	r1, r0, #2
 8006a3a:	429a      	cmp	r2, r3
 8006a3c:	4616      	mov	r6, r2
 8006a3e:	bf38      	it	cc
 8006a40:	461e      	movcc	r6, r3
 8006a42:	ebb6 0f80 	cmp.w	r6, r0, lsl #2
 8006a46:	d933      	bls.n	8006ab0 <tcp_input+0x6f8>
 8006a48:	b28b      	uxth	r3, r1
 8006a4a:	f8a4 3048 	strh.w	r3, [r4, #72]	; 0x48
 8006a4e:	f8b4 3066 	ldrh.w	r3, [r4, #102]	; 0x66
 8006a52:	b933      	cbnz	r3, 8006a62 <tcp_input+0x6aa>
 8006a54:	4b30      	ldr	r3, [pc, #192]	; (8006b18 <tcp_input+0x760>)
 8006a56:	f44f 725b 	mov.w	r2, #876	; 0x36c
 8006a5a:	4933      	ldr	r1, [pc, #204]	; (8006b28 <tcp_input+0x770>)
 8006a5c:	4830      	ldr	r0, [pc, #192]	; (8006b20 <tcp_input+0x768>)
 8006a5e:	f003 f831 	bl	8009ac4 <iprintf>
 8006a62:	f8b4 3066 	ldrh.w	r3, [r4, #102]	; 0x66
 8006a66:	6f26      	ldr	r6, [r4, #112]	; 0x70
 8006a68:	3b01      	subs	r3, #1
 8006a6a:	f8a4 3066 	strh.w	r3, [r4, #102]	; 0x66
 8006a6e:	bb1e      	cbnz	r6, 8006ab8 <tcp_input+0x700>
 8006a70:	6ee6      	ldr	r6, [r4, #108]	; 0x6c
 8006a72:	b936      	cbnz	r6, 8006a82 <tcp_input+0x6ca>
 8006a74:	4b28      	ldr	r3, [pc, #160]	; (8006b18 <tcp_input+0x760>)
 8006a76:	f44f 725d 	mov.w	r2, #884	; 0x374
 8006a7a:	492c      	ldr	r1, [pc, #176]	; (8006b2c <tcp_input+0x774>)
 8006a7c:	4828      	ldr	r0, [pc, #160]	; (8006b20 <tcp_input+0x768>)
 8006a7e:	f003 f821 	bl	8009ac4 <iprintf>
 8006a82:	6833      	ldr	r3, [r6, #0]
 8006a84:	66e3      	str	r3, [r4, #108]	; 0x6c
 8006a86:	4630      	mov	r0, r6
 8006a88:	f7fe f8f4 	bl	8004c74 <tcp_seg_free>
 8006a8c:	6f23      	ldr	r3, [r4, #112]	; 0x70
 8006a8e:	b9b3      	cbnz	r3, 8006abe <tcp_input+0x706>
 8006a90:	f64f 73ff 	movw	r3, #65535	; 0xffff
 8006a94:	8623      	strh	r3, [r4, #48]	; 0x30
 8006a96:	f8d4 3088 	ldr.w	r3, [r4, #136]	; 0x88
 8006a9a:	2b00      	cmp	r3, #0
 8006a9c:	f43f af72 	beq.w	8006984 <tcp_input+0x5cc>
 8006aa0:	2200      	movs	r2, #0
 8006aa2:	4621      	mov	r1, r4
 8006aa4:	6920      	ldr	r0, [r4, #16]
 8006aa6:	4798      	blx	r3
 8006aa8:	300d      	adds	r0, #13
 8006aaa:	f47f af6b 	bne.w	8006984 <tcp_input+0x5cc>
 8006aae:	e5fd      	b.n	80066ac <tcp_input+0x2f4>
 8006ab0:	429a      	cmp	r2, r3
 8006ab2:	bf88      	it	hi
 8006ab4:	b293      	uxthhi	r3, r2
 8006ab6:	e7c8      	b.n	8006a4a <tcp_input+0x692>
 8006ab8:	6833      	ldr	r3, [r6, #0]
 8006aba:	6723      	str	r3, [r4, #112]	; 0x70
 8006abc:	e7e3      	b.n	8006a86 <tcp_input+0x6ce>
 8006abe:	2300      	movs	r3, #0
 8006ac0:	8623      	strh	r3, [r4, #48]	; 0x30
 8006ac2:	f884 3042 	strb.w	r3, [r4, #66]	; 0x42
 8006ac6:	e7e6      	b.n	8006a96 <tcp_input+0x6de>
 8006ac8:	06d9      	lsls	r1, r3, #27
 8006aca:	f57f af3d 	bpl.w	8006948 <tcp_input+0x590>
 8006ace:	6833      	ldr	r3, [r6, #0]
 8006ad0:	4a17      	ldr	r2, [pc, #92]	; (8006b30 <tcp_input+0x778>)
 8006ad2:	8818      	ldrh	r0, [r3, #0]
 8006ad4:	8811      	ldrh	r1, [r2, #0]
 8006ad6:	4a0c      	ldr	r2, [pc, #48]	; (8006b08 <tcp_input+0x750>)
 8006ad8:	6812      	ldr	r2, [r2, #0]
 8006ada:	9002      	str	r0, [sp, #8]
 8006adc:	4620      	mov	r0, r4
 8006ade:	885b      	ldrh	r3, [r3, #2]
 8006ae0:	440a      	add	r2, r1
 8006ae2:	f8db 1000 	ldr.w	r1, [fp]
 8006ae6:	9301      	str	r3, [sp, #4]
 8006ae8:	4b12      	ldr	r3, [pc, #72]	; (8006b34 <tcp_input+0x77c>)
 8006aea:	9300      	str	r3, [sp, #0]
 8006aec:	3304      	adds	r3, #4
 8006aee:	f000 fd69 	bl	80075c4 <tcp_rst>
 8006af2:	f894 3042 	ldrb.w	r3, [r4, #66]	; 0x42
 8006af6:	2b05      	cmp	r3, #5
 8006af8:	f63f af26 	bhi.w	8006948 <tcp_input+0x590>
 8006afc:	2300      	movs	r3, #0
 8006afe:	4620      	mov	r0, r4
 8006b00:	8623      	strh	r3, [r4, #48]	; 0x30
 8006b02:	f000 ff9d 	bl	8007a40 <tcp_rexmit_rto>
 8006b06:	e71f      	b.n	8006948 <tcp_input+0x590>
 8006b08:	2000aa5c 	.word	0x2000aa5c
 8006b0c:	2000aa20 	.word	0x2000aa20
 8006b10:	2000aa3c 	.word	0x2000aa3c
 8006b14:	2000aa1c 	.word	0x2000aa1c
 8006b18:	0800caf7 	.word	0x0800caf7
 8006b1c:	0800ce39 	.word	0x0800ce39
 8006b20:	0800be06 	.word	0x0800be06
 8006b24:	2000aa2c 	.word	0x2000aa2c
 8006b28:	0800ce59 	.word	0x0800ce59
 8006b2c:	0800ce6f 	.word	0x0800ce6f
 8006b30:	2000aa76 	.word	0x2000aa76
 8006b34:	20005304 	.word	0x20005304
 8006b38:	4b9d      	ldr	r3, [pc, #628]	; (8006db0 <tcp_input+0x9f8>)
 8006b3a:	781b      	ldrb	r3, [r3, #0]
 8006b3c:	06da      	lsls	r2, r3, #27
 8006b3e:	d55e      	bpl.n	8006bfe <tcp_input+0x846>
 8006b40:	6c63      	ldr	r3, [r4, #68]	; 0x44
 8006b42:	f8db 1000 	ldr.w	r1, [fp]
 8006b46:	43db      	mvns	r3, r3
 8006b48:	42cb      	cmn	r3, r1
 8006b4a:	d447      	bmi.n	8006bdc <tcp_input+0x824>
 8006b4c:	6d23      	ldr	r3, [r4, #80]	; 0x50
 8006b4e:	1acb      	subs	r3, r1, r3
 8006b50:	2b00      	cmp	r3, #0
 8006b52:	dc43      	bgt.n	8006bdc <tcp_input+0x824>
 8006b54:	2304      	movs	r3, #4
 8006b56:	7523      	strb	r3, [r4, #20]
 8006b58:	6fe3      	ldr	r3, [r4, #124]	; 0x7c
 8006b5a:	b91b      	cbnz	r3, 8006b64 <tcp_input+0x7ac>
 8006b5c:	4620      	mov	r0, r4
 8006b5e:	f7fe fa1f 	bl	8004fa0 <tcp_abort>
 8006b62:	e5a3      	b.n	80066ac <tcp_input+0x2f4>
 8006b64:	699b      	ldr	r3, [r3, #24]
 8006b66:	b933      	cbnz	r3, 8006b76 <tcp_input+0x7be>
 8006b68:	4b92      	ldr	r3, [pc, #584]	; (8006db4 <tcp_input+0x9fc>)
 8006b6a:	f44f 726a 	mov.w	r2, #936	; 0x3a8
 8006b6e:	4992      	ldr	r1, [pc, #584]	; (8006db8 <tcp_input+0xa00>)
 8006b70:	4892      	ldr	r0, [pc, #584]	; (8006dbc <tcp_input+0xa04>)
 8006b72:	f002 ffa7 	bl	8009ac4 <iprintf>
 8006b76:	6fe3      	ldr	r3, [r4, #124]	; 0x7c
 8006b78:	699b      	ldr	r3, [r3, #24]
 8006b7a:	2b00      	cmp	r3, #0
 8006b7c:	d0ee      	beq.n	8006b5c <tcp_input+0x7a4>
 8006b7e:	2200      	movs	r2, #0
 8006b80:	4621      	mov	r1, r4
 8006b82:	6920      	ldr	r0, [r4, #16]
 8006b84:	4798      	blx	r3
 8006b86:	b118      	cbz	r0, 8006b90 <tcp_input+0x7d8>
 8006b88:	300d      	adds	r0, #13
 8006b8a:	f43f ad8f 	beq.w	80066ac <tcp_input+0x2f4>
 8006b8e:	e7e5      	b.n	8006b5c <tcp_input+0x7a4>
 8006b90:	4620      	mov	r0, r4
 8006b92:	f7fe ffe3 	bl	8005b5c <tcp_receive>
 8006b96:	4a8a      	ldr	r2, [pc, #552]	; (8006dc0 <tcp_input+0xa08>)
 8006b98:	8813      	ldrh	r3, [r2, #0]
 8006b9a:	b10b      	cbz	r3, 8006ba0 <tcp_input+0x7e8>
 8006b9c:	3b01      	subs	r3, #1
 8006b9e:	8013      	strh	r3, [r2, #0]
 8006ba0:	8e61      	ldrh	r1, [r4, #50]	; 0x32
 8006ba2:	f241 131c 	movw	r3, #4380	; 0x111c
 8006ba6:	004a      	lsls	r2, r1, #1
 8006ba8:	0088      	lsls	r0, r1, #2
 8006baa:	429a      	cmp	r2, r3
 8006bac:	4616      	mov	r6, r2
 8006bae:	bf38      	it	cc
 8006bb0:	461e      	movcc	r6, r3
 8006bb2:	ebb6 0f81 	cmp.w	r6, r1, lsl #2
 8006bb6:	d90d      	bls.n	8006bd4 <tcp_input+0x81c>
 8006bb8:	b283      	uxth	r3, r0
 8006bba:	f8a4 3048 	strh.w	r3, [r4, #72]	; 0x48
 8006bbe:	783b      	ldrb	r3, [r7, #0]
 8006bc0:	0698      	lsls	r0, r3, #26
 8006bc2:	f57f aec1 	bpl.w	8006948 <tcp_input+0x590>
 8006bc6:	8b63      	ldrh	r3, [r4, #26]
 8006bc8:	f043 0302 	orr.w	r3, r3, #2
 8006bcc:	8363      	strh	r3, [r4, #26]
 8006bce:	2307      	movs	r3, #7
 8006bd0:	7523      	strb	r3, [r4, #20]
 8006bd2:	e6b9      	b.n	8006948 <tcp_input+0x590>
 8006bd4:	429a      	cmp	r2, r3
 8006bd6:	bf88      	it	hi
 8006bd8:	b293      	uxthhi	r3, r2
 8006bda:	e7ee      	b.n	8006bba <tcp_input+0x802>
 8006bdc:	6833      	ldr	r3, [r6, #0]
 8006bde:	4a79      	ldr	r2, [pc, #484]	; (8006dc4 <tcp_input+0xa0c>)
 8006be0:	881e      	ldrh	r6, [r3, #0]
 8006be2:	8810      	ldrh	r0, [r2, #0]
 8006be4:	4a78      	ldr	r2, [pc, #480]	; (8006dc8 <tcp_input+0xa10>)
 8006be6:	6812      	ldr	r2, [r2, #0]
 8006be8:	9602      	str	r6, [sp, #8]
 8006bea:	885b      	ldrh	r3, [r3, #2]
 8006bec:	4402      	add	r2, r0
 8006bee:	4620      	mov	r0, r4
 8006bf0:	9301      	str	r3, [sp, #4]
 8006bf2:	4b76      	ldr	r3, [pc, #472]	; (8006dcc <tcp_input+0xa14>)
 8006bf4:	9300      	str	r3, [sp, #0]
 8006bf6:	3304      	adds	r3, #4
 8006bf8:	f000 fce4 	bl	80075c4 <tcp_rst>
 8006bfc:	e6a4      	b.n	8006948 <tcp_input+0x590>
 8006bfe:	079e      	lsls	r6, r3, #30
 8006c00:	f57f aea2 	bpl.w	8006948 <tcp_input+0x590>
 8006c04:	6a63      	ldr	r3, [r4, #36]	; 0x24
 8006c06:	4a70      	ldr	r2, [pc, #448]	; (8006dc8 <tcp_input+0xa10>)
 8006c08:	3b01      	subs	r3, #1
 8006c0a:	6812      	ldr	r2, [r2, #0]
 8006c0c:	4293      	cmp	r3, r2
 8006c0e:	f47f ae9b 	bne.w	8006948 <tcp_input+0x590>
 8006c12:	4620      	mov	r0, r4
 8006c14:	f000 fc62 	bl	80074dc <tcp_rexmit>
 8006c18:	e696      	b.n	8006948 <tcp_input+0x590>
 8006c1a:	4620      	mov	r0, r4
 8006c1c:	f7fe ff9e 	bl	8005b5c <tcp_receive>
 8006c20:	e7cd      	b.n	8006bbe <tcp_input+0x806>
 8006c22:	4620      	mov	r0, r4
 8006c24:	f7fe ff9a 	bl	8005b5c <tcp_receive>
 8006c28:	783b      	ldrb	r3, [r7, #0]
 8006c2a:	f013 0f20 	tst.w	r3, #32
 8006c2e:	4b60      	ldr	r3, [pc, #384]	; (8006db0 <tcp_input+0x9f8>)
 8006c30:	781b      	ldrb	r3, [r3, #0]
 8006c32:	d032      	beq.n	8006c9a <tcp_input+0x8e2>
 8006c34:	f013 0f10 	tst.w	r3, #16
 8006c38:	8b63      	ldrh	r3, [r4, #26]
 8006c3a:	d029      	beq.n	8006c90 <tcp_input+0x8d8>
 8006c3c:	6d21      	ldr	r1, [r4, #80]	; 0x50
 8006c3e:	f8db 2000 	ldr.w	r2, [fp]
 8006c42:	4291      	cmp	r1, r2
 8006c44:	d124      	bne.n	8006c90 <tcp_input+0x8d8>
 8006c46:	6ee2      	ldr	r2, [r4, #108]	; 0x6c
 8006c48:	bb12      	cbnz	r2, 8006c90 <tcp_input+0x8d8>
 8006c4a:	f043 0302 	orr.w	r3, r3, #2
 8006c4e:	4620      	mov	r0, r4
 8006c50:	8363      	strh	r3, [r4, #26]
 8006c52:	f7fe f88b 	bl	8004d6c <tcp_pcb_purge>
 8006c56:	f8d8 3000 	ldr.w	r3, [r8]
 8006c5a:	429c      	cmp	r4, r3
 8006c5c:	d10a      	bne.n	8006c74 <tcp_input+0x8bc>
 8006c5e:	68e3      	ldr	r3, [r4, #12]
 8006c60:	f8c8 3000 	str.w	r3, [r8]
 8006c64:	e008      	b.n	8006c78 <tcp_input+0x8c0>
 8006c66:	68da      	ldr	r2, [r3, #12]
 8006c68:	4294      	cmp	r4, r2
 8006c6a:	d102      	bne.n	8006c72 <tcp_input+0x8ba>
 8006c6c:	68e2      	ldr	r2, [r4, #12]
 8006c6e:	60da      	str	r2, [r3, #12]
 8006c70:	e002      	b.n	8006c78 <tcp_input+0x8c0>
 8006c72:	4613      	mov	r3, r2
 8006c74:	2b00      	cmp	r3, #0
 8006c76:	d1f6      	bne.n	8006c66 <tcp_input+0x8ae>
 8006c78:	4b55      	ldr	r3, [pc, #340]	; (8006dd0 <tcp_input+0xa18>)
 8006c7a:	2201      	movs	r2, #1
 8006c7c:	701a      	strb	r2, [r3, #0]
 8006c7e:	230a      	movs	r3, #10
 8006c80:	7523      	strb	r3, [r4, #20]
 8006c82:	4b54      	ldr	r3, [pc, #336]	; (8006dd4 <tcp_input+0xa1c>)
 8006c84:	681a      	ldr	r2, [r3, #0]
 8006c86:	601c      	str	r4, [r3, #0]
 8006c88:	60e2      	str	r2, [r4, #12]
 8006c8a:	f000 ffe9 	bl	8007c60 <tcp_timer_needed>
 8006c8e:	e65b      	b.n	8006948 <tcp_input+0x590>
 8006c90:	f043 0302 	orr.w	r3, r3, #2
 8006c94:	8363      	strh	r3, [r4, #26]
 8006c96:	2308      	movs	r3, #8
 8006c98:	e79a      	b.n	8006bd0 <tcp_input+0x818>
 8006c9a:	06d9      	lsls	r1, r3, #27
 8006c9c:	f57f ae54 	bpl.w	8006948 <tcp_input+0x590>
 8006ca0:	6d22      	ldr	r2, [r4, #80]	; 0x50
 8006ca2:	f8db 3000 	ldr.w	r3, [fp]
 8006ca6:	429a      	cmp	r2, r3
 8006ca8:	f47f ae4e 	bne.w	8006948 <tcp_input+0x590>
 8006cac:	6ee3      	ldr	r3, [r4, #108]	; 0x6c
 8006cae:	2b00      	cmp	r3, #0
 8006cb0:	f47f ae4a 	bne.w	8006948 <tcp_input+0x590>
 8006cb4:	2306      	movs	r3, #6
 8006cb6:	e78b      	b.n	8006bd0 <tcp_input+0x818>
 8006cb8:	4620      	mov	r0, r4
 8006cba:	f7fe ff4f 	bl	8005b5c <tcp_receive>
 8006cbe:	783b      	ldrb	r3, [r7, #0]
 8006cc0:	069a      	lsls	r2, r3, #26
 8006cc2:	f57f ae41 	bpl.w	8006948 <tcp_input+0x590>
 8006cc6:	8b63      	ldrh	r3, [r4, #26]
 8006cc8:	4620      	mov	r0, r4
 8006cca:	f043 0302 	orr.w	r3, r3, #2
 8006cce:	8363      	strh	r3, [r4, #26]
 8006cd0:	f7fe f84c 	bl	8004d6c <tcp_pcb_purge>
 8006cd4:	f8d8 3000 	ldr.w	r3, [r8]
 8006cd8:	429c      	cmp	r4, r3
 8006cda:	d0c0      	beq.n	8006c5e <tcp_input+0x8a6>
 8006cdc:	2b00      	cmp	r3, #0
 8006cde:	d0cb      	beq.n	8006c78 <tcp_input+0x8c0>
 8006ce0:	68da      	ldr	r2, [r3, #12]
 8006ce2:	4294      	cmp	r4, r2
 8006ce4:	d0c2      	beq.n	8006c6c <tcp_input+0x8b4>
 8006ce6:	4613      	mov	r3, r2
 8006ce8:	e7f8      	b.n	8006cdc <tcp_input+0x924>
 8006cea:	4620      	mov	r0, r4
 8006cec:	f7fe ff36 	bl	8005b5c <tcp_receive>
 8006cf0:	4b2f      	ldr	r3, [pc, #188]	; (8006db0 <tcp_input+0x9f8>)
 8006cf2:	781b      	ldrb	r3, [r3, #0]
 8006cf4:	06db      	lsls	r3, r3, #27
 8006cf6:	f57f ae27 	bpl.w	8006948 <tcp_input+0x590>
 8006cfa:	6d22      	ldr	r2, [r4, #80]	; 0x50
 8006cfc:	f8db 3000 	ldr.w	r3, [fp]
 8006d00:	429a      	cmp	r2, r3
 8006d02:	f47f ae21 	bne.w	8006948 <tcp_input+0x590>
 8006d06:	6ee3      	ldr	r3, [r4, #108]	; 0x6c
 8006d08:	2b00      	cmp	r3, #0
 8006d0a:	f47f ae1d 	bne.w	8006948 <tcp_input+0x590>
 8006d0e:	4620      	mov	r0, r4
 8006d10:	f7fe f82c 	bl	8004d6c <tcp_pcb_purge>
 8006d14:	f8d8 3000 	ldr.w	r3, [r8]
 8006d18:	429c      	cmp	r4, r3
 8006d1a:	d0a0      	beq.n	8006c5e <tcp_input+0x8a6>
 8006d1c:	2b00      	cmp	r3, #0
 8006d1e:	d0ab      	beq.n	8006c78 <tcp_input+0x8c0>
 8006d20:	68da      	ldr	r2, [r3, #12]
 8006d22:	4294      	cmp	r4, r2
 8006d24:	d0a2      	beq.n	8006c6c <tcp_input+0x8b4>
 8006d26:	4613      	mov	r3, r2
 8006d28:	e7f8      	b.n	8006d1c <tcp_input+0x964>
 8006d2a:	4620      	mov	r0, r4
 8006d2c:	f7fe ff16 	bl	8005b5c <tcp_receive>
 8006d30:	4b1f      	ldr	r3, [pc, #124]	; (8006db0 <tcp_input+0x9f8>)
 8006d32:	781b      	ldrb	r3, [r3, #0]
 8006d34:	06de      	lsls	r6, r3, #27
 8006d36:	f57f ae07 	bpl.w	8006948 <tcp_input+0x590>
 8006d3a:	6d21      	ldr	r1, [r4, #80]	; 0x50
 8006d3c:	f8db 2000 	ldr.w	r2, [fp]
 8006d40:	783b      	ldrb	r3, [r7, #0]
 8006d42:	4291      	cmp	r1, r2
 8006d44:	f47f ae00 	bne.w	8006948 <tcp_input+0x590>
 8006d48:	6ee2      	ldr	r2, [r4, #108]	; 0x6c
 8006d4a:	2a00      	cmp	r2, #0
 8006d4c:	f47f adfc 	bne.w	8006948 <tcp_input+0x590>
 8006d50:	f043 0310 	orr.w	r3, r3, #16
 8006d54:	703b      	strb	r3, [r7, #0]
 8006d56:	e5f7      	b.n	8006948 <tcp_input+0x590>
 8006d58:	4b19      	ldr	r3, [pc, #100]	; (8006dc0 <tcp_input+0xa08>)
 8006d5a:	881a      	ldrh	r2, [r3, #0]
 8006d5c:	b12a      	cbz	r2, 8006d6a <tcp_input+0x9b2>
 8006d5e:	f8d4 3080 	ldr.w	r3, [r4, #128]	; 0x80
 8006d62:	b9fb      	cbnz	r3, 8006da4 <tcp_input+0x9ec>
 8006d64:	2300      	movs	r3, #0
 8006d66:	4a16      	ldr	r2, [pc, #88]	; (8006dc0 <tcp_input+0xa08>)
 8006d68:	8013      	strh	r3, [r2, #0]
 8006d6a:	4620      	mov	r0, r4
 8006d6c:	f7fe fe68 	bl	8005a40 <tcp_input_delayed_close>
 8006d70:	2800      	cmp	r0, #0
 8006d72:	f47f ac9b 	bne.w	80066ac <tcp_input+0x2f4>
 8006d76:	f8da 3000 	ldr.w	r3, [sl]
 8006d7a:	2b00      	cmp	r3, #0
 8006d7c:	d03c      	beq.n	8006df8 <tcp_input+0xa40>
 8006d7e:	6fa3      	ldr	r3, [r4, #120]	; 0x78
 8006d80:	b133      	cbz	r3, 8006d90 <tcp_input+0x9d8>
 8006d82:	4b0c      	ldr	r3, [pc, #48]	; (8006db4 <tcp_input+0x9fc>)
 8006d84:	f44f 72f3 	mov.w	r2, #486	; 0x1e6
 8006d88:	4913      	ldr	r1, [pc, #76]	; (8006dd8 <tcp_input+0xa20>)
 8006d8a:	480c      	ldr	r0, [pc, #48]	; (8006dbc <tcp_input+0xa04>)
 8006d8c:	f002 fe9a 	bl	8009ac4 <iprintf>
 8006d90:	8b63      	ldrh	r3, [r4, #26]
 8006d92:	f8da 2000 	ldr.w	r2, [sl]
 8006d96:	f013 0310 	ands.w	r3, r3, #16
 8006d9a:	d01f      	beq.n	8006ddc <tcp_input+0xa24>
 8006d9c:	4610      	mov	r0, r2
 8006d9e:	f7fd fc07 	bl	80045b0 <pbuf_free>
 8006da2:	e6db      	b.n	8006b5c <tcp_input+0x7a4>
 8006da4:	4621      	mov	r1, r4
 8006da6:	6920      	ldr	r0, [r4, #16]
 8006da8:	4798      	blx	r3
 8006daa:	300d      	adds	r0, #13
 8006dac:	d1da      	bne.n	8006d64 <tcp_input+0x9ac>
 8006dae:	e47d      	b.n	80066ac <tcp_input+0x2f4>
 8006db0:	2000aa3c 	.word	0x2000aa3c
 8006db4:	0800caf7 	.word	0x0800caf7
 8006db8:	0800ce82 	.word	0x0800ce82
 8006dbc:	0800be06 	.word	0x0800be06
 8006dc0:	2000aa50 	.word	0x2000aa50
 8006dc4:	2000aa76 	.word	0x2000aa76
 8006dc8:	2000aa5c 	.word	0x2000aa5c
 8006dcc:	20005304 	.word	0x20005304
 8006dd0:	2000aa20 	.word	0x2000aa20
 8006dd4:	2000aa34 	.word	0x2000aa34
 8006dd8:	0800cea0 	.word	0x0800cea0
 8006ddc:	f8d4 6084 	ldr.w	r6, [r4, #132]	; 0x84
 8006de0:	b1fe      	cbz	r6, 8006e22 <tcp_input+0xa6a>
 8006de2:	4621      	mov	r1, r4
 8006de4:	6920      	ldr	r0, [r4, #16]
 8006de6:	47b0      	blx	r6
 8006de8:	f110 0f0d 	cmn.w	r0, #13
 8006dec:	f43f ac5e 	beq.w	80066ac <tcp_input+0x2f4>
 8006df0:	b110      	cbz	r0, 8006df8 <tcp_input+0xa40>
 8006df2:	f8da 3000 	ldr.w	r3, [sl]
 8006df6:	67a3      	str	r3, [r4, #120]	; 0x78
 8006df8:	783b      	ldrb	r3, [r7, #0]
 8006dfa:	0699      	lsls	r1, r3, #26
 8006dfc:	d505      	bpl.n	8006e0a <tcp_input+0xa52>
 8006dfe:	6fa3      	ldr	r3, [r4, #120]	; 0x78
 8006e00:	b1ab      	cbz	r3, 8006e2e <tcp_input+0xa76>
 8006e02:	7b5a      	ldrb	r2, [r3, #13]
 8006e04:	f042 0220 	orr.w	r2, r2, #32
 8006e08:	735a      	strb	r2, [r3, #13]
 8006e0a:	2300      	movs	r3, #0
 8006e0c:	4620      	mov	r0, r4
 8006e0e:	602b      	str	r3, [r5, #0]
 8006e10:	f7fe fe16 	bl	8005a40 <tcp_input_delayed_close>
 8006e14:	2800      	cmp	r0, #0
 8006e16:	f47f ac49 	bne.w	80066ac <tcp_input+0x2f4>
 8006e1a:	4620      	mov	r0, r4
 8006e1c:	f000 fc4a 	bl	80076b4 <tcp_output>
 8006e20:	e444      	b.n	80066ac <tcp_input+0x2f4>
 8006e22:	4633      	mov	r3, r6
 8006e24:	4621      	mov	r1, r4
 8006e26:	4630      	mov	r0, r6
 8006e28:	f7fe fa88 	bl	800533c <tcp_recv_null>
 8006e2c:	e7dc      	b.n	8006de8 <tcp_input+0xa30>
 8006e2e:	8d23      	ldrh	r3, [r4, #40]	; 0x28
 8006e30:	f8d4 6084 	ldr.w	r6, [r4, #132]	; 0x84
 8006e34:	f5b3 6f06 	cmp.w	r3, #2144	; 0x860
 8006e38:	bf1c      	itt	ne
 8006e3a:	3301      	addne	r3, #1
 8006e3c:	8523      	strhne	r3, [r4, #40]	; 0x28
 8006e3e:	2e00      	cmp	r6, #0
 8006e40:	d0e3      	beq.n	8006e0a <tcp_input+0xa52>
 8006e42:	2300      	movs	r3, #0
 8006e44:	4621      	mov	r1, r4
 8006e46:	6920      	ldr	r0, [r4, #16]
 8006e48:	461a      	mov	r2, r3
 8006e4a:	47b0      	blx	r6
 8006e4c:	300d      	adds	r0, #13
 8006e4e:	d1dc      	bne.n	8006e0a <tcp_input+0xa52>
 8006e50:	e42c      	b.n	80066ac <tcp_input+0x2f4>
 8006e52:	b13c      	cbz	r4, 8006e64 <tcp_input+0xaac>
 8006e54:	f8d9 300c 	ldr.w	r3, [r9, #12]
 8006e58:	60e3      	str	r3, [r4, #12]
 8006e5a:	4b11      	ldr	r3, [pc, #68]	; (8006ea0 <tcp_input+0xae8>)
 8006e5c:	f8c9 200c 	str.w	r2, [r9, #12]
 8006e60:	f8c3 9000 	str.w	r9, [r3]
 8006e64:	4b0f      	ldr	r3, [pc, #60]	; (8006ea4 <tcp_input+0xaec>)
 8006e66:	781b      	ldrb	r3, [r3, #0]
 8006e68:	075c      	lsls	r4, r3, #29
 8006e6a:	f53f ab6a 	bmi.w	8006542 <tcp_input+0x18a>
 8006e6e:	f013 0410 	ands.w	r4, r3, #16
 8006e72:	f43f acba 	beq.w	80067ea <tcp_input+0x432>
 8006e76:	4b0c      	ldr	r3, [pc, #48]	; (8006ea8 <tcp_input+0xaf0>)
 8006e78:	881c      	ldrh	r4, [r3, #0]
 8006e7a:	4b0c      	ldr	r3, [pc, #48]	; (8006eac <tcp_input+0xaf4>)
 8006e7c:	681a      	ldr	r2, [r3, #0]
 8006e7e:	880b      	ldrh	r3, [r1, #0]
 8006e80:	4422      	add	r2, r4
 8006e82:	e9cd 0301 	strd	r0, r3, [sp, #4]
 8006e86:	4b0a      	ldr	r3, [pc, #40]	; (8006eb0 <tcp_input+0xaf8>)
 8006e88:	9300      	str	r3, [sp, #0]
 8006e8a:	3304      	adds	r3, #4
 8006e8c:	f8db 1000 	ldr.w	r1, [fp]
 8006e90:	4648      	mov	r0, r9
 8006e92:	e45b      	b.n	800674c <tcp_input+0x394>
 8006e94:	f1ba 0f00 	cmp.w	sl, #0
 8006e98:	f47f abc1 	bne.w	800661e <tcp_input+0x266>
 8006e9c:	f7ff bbd1 	b.w	8006642 <tcp_input+0x28a>
 8006ea0:	2000aa28 	.word	0x2000aa28
 8006ea4:	2000aa3c 	.word	0x2000aa3c
 8006ea8:	2000aa76 	.word	0x2000aa76
 8006eac:	2000aa5c 	.word	0x2000aa5c
 8006eb0:	20005304 	.word	0x20005304

08006eb4 <tcp_trigger_input_pcb_close>:
 8006eb4:	4a02      	ldr	r2, [pc, #8]	; (8006ec0 <tcp_trigger_input_pcb_close+0xc>)
 8006eb6:	7813      	ldrb	r3, [r2, #0]
 8006eb8:	f043 0310 	orr.w	r3, r3, #16
 8006ebc:	7013      	strb	r3, [r2, #0]
 8006ebe:	4770      	bx	lr
 8006ec0:	2000aa58 	.word	0x2000aa58

08006ec4 <tcp_output_segment_busy>:
 8006ec4:	b510      	push	{r4, lr}
 8006ec6:	4604      	mov	r4, r0
 8006ec8:	b930      	cbnz	r0, 8006ed8 <tcp_output_segment_busy+0x14>
 8006eca:	4b06      	ldr	r3, [pc, #24]	; (8006ee4 <tcp_output_segment_busy+0x20>)
 8006ecc:	f240 529a 	movw	r2, #1434	; 0x59a
 8006ed0:	4905      	ldr	r1, [pc, #20]	; (8006ee8 <tcp_output_segment_busy+0x24>)
 8006ed2:	4806      	ldr	r0, [pc, #24]	; (8006eec <tcp_output_segment_busy+0x28>)
 8006ed4:	f002 fdf6 	bl	8009ac4 <iprintf>
 8006ed8:	6863      	ldr	r3, [r4, #4]
 8006eda:	7b98      	ldrb	r0, [r3, #14]
 8006edc:	3801      	subs	r0, #1
 8006ede:	bf18      	it	ne
 8006ee0:	2001      	movne	r0, #1
 8006ee2:	bd10      	pop	{r4, pc}
 8006ee4:	0800ceba 	.word	0x0800ceba
 8006ee8:	0800ceed 	.word	0x0800ceed
 8006eec:	0800be06 	.word	0x0800be06

08006ef0 <tcp_create_segment>:
 8006ef0:	e92d 47f0 	stmdb	sp!, {r4, r5, r6, r7, r8, r9, sl, lr}
 8006ef4:	460e      	mov	r6, r1
 8006ef6:	4690      	mov	r8, r2
 8006ef8:	4699      	mov	r9, r3
 8006efa:	f89d a020 	ldrb.w	sl, [sp, #32]
 8006efe:	4607      	mov	r7, r0
 8006f00:	b928      	cbnz	r0, 8006f0e <tcp_create_segment+0x1e>
 8006f02:	4b2f      	ldr	r3, [pc, #188]	; (8006fc0 <tcp_create_segment+0xd0>)
 8006f04:	22a3      	movs	r2, #163	; 0xa3
 8006f06:	492f      	ldr	r1, [pc, #188]	; (8006fc4 <tcp_create_segment+0xd4>)
 8006f08:	482f      	ldr	r0, [pc, #188]	; (8006fc8 <tcp_create_segment+0xd8>)
 8006f0a:	f002 fddb 	bl	8009ac4 <iprintf>
 8006f0e:	b92e      	cbnz	r6, 8006f1c <tcp_create_segment+0x2c>
 8006f10:	4b2b      	ldr	r3, [pc, #172]	; (8006fc0 <tcp_create_segment+0xd0>)
 8006f12:	22a4      	movs	r2, #164	; 0xa4
 8006f14:	492d      	ldr	r1, [pc, #180]	; (8006fcc <tcp_create_segment+0xdc>)
 8006f16:	482c      	ldr	r0, [pc, #176]	; (8006fc8 <tcp_create_segment+0xd8>)
 8006f18:	f002 fdd4 	bl	8009ac4 <iprintf>
 8006f1c:	ea4f 058a 	mov.w	r5, sl, lsl #2
 8006f20:	2003      	movs	r0, #3
 8006f22:	f7fd f897 	bl	8004054 <memp_malloc>
 8006f26:	4604      	mov	r4, r0
 8006f28:	f005 0504 	and.w	r5, r5, #4
 8006f2c:	b928      	cbnz	r0, 8006f3a <tcp_create_segment+0x4a>
 8006f2e:	4630      	mov	r0, r6
 8006f30:	f7fd fb3e 	bl	80045b0 <pbuf_free>
 8006f34:	4620      	mov	r0, r4
 8006f36:	e8bd 87f0 	ldmia.w	sp!, {r4, r5, r6, r7, r8, r9, sl, pc}
 8006f3a:	2300      	movs	r3, #0
 8006f3c:	f880 a00a 	strb.w	sl, [r0, #10]
 8006f40:	fa1f fa85 	uxth.w	sl, r5
 8006f44:	e9c0 3600 	strd	r3, r6, [r0]
 8006f48:	8933      	ldrh	r3, [r6, #8]
 8006f4a:	42ab      	cmp	r3, r5
 8006f4c:	d205      	bcs.n	8006f5a <tcp_create_segment+0x6a>
 8006f4e:	4b1c      	ldr	r3, [pc, #112]	; (8006fc0 <tcp_create_segment+0xd0>)
 8006f50:	22b0      	movs	r2, #176	; 0xb0
 8006f52:	491f      	ldr	r1, [pc, #124]	; (8006fd0 <tcp_create_segment+0xe0>)
 8006f54:	481c      	ldr	r0, [pc, #112]	; (8006fc8 <tcp_create_segment+0xd8>)
 8006f56:	f002 fdb5 	bl	8009ac4 <iprintf>
 8006f5a:	8933      	ldrh	r3, [r6, #8]
 8006f5c:	4630      	mov	r0, r6
 8006f5e:	2114      	movs	r1, #20
 8006f60:	eba3 030a 	sub.w	r3, r3, sl
 8006f64:	8123      	strh	r3, [r4, #8]
 8006f66:	f7fd faeb 	bl	8004540 <pbuf_add_header>
 8006f6a:	4606      	mov	r6, r0
 8006f6c:	b120      	cbz	r0, 8006f78 <tcp_create_segment+0x88>
 8006f6e:	4620      	mov	r0, r4
 8006f70:	2400      	movs	r4, #0
 8006f72:	f7fd fe7f 	bl	8004c74 <tcp_seg_free>
 8006f76:	e7dd      	b.n	8006f34 <tcp_create_segment+0x44>
 8006f78:	6863      	ldr	r3, [r4, #4]
 8006f7a:	02ad      	lsls	r5, r5, #10
 8006f7c:	8af8      	ldrh	r0, [r7, #22]
 8006f7e:	f8d3 a004 	ldr.w	sl, [r3, #4]
 8006f82:	f505 45a0 	add.w	r5, r5, #20480	; 0x5000
 8006f86:	f8c4 a00c 	str.w	sl, [r4, #12]
 8006f8a:	f7fc fdc7 	bl	8003b1c <lwip_htons>
 8006f8e:	f8aa 0000 	strh.w	r0, [sl]
 8006f92:	f8d4 a00c 	ldr.w	sl, [r4, #12]
 8006f96:	8b38      	ldrh	r0, [r7, #24]
 8006f98:	f7fc fdc0 	bl	8003b1c <lwip_htons>
 8006f9c:	68e7      	ldr	r7, [r4, #12]
 8006f9e:	f8aa 0002 	strh.w	r0, [sl, #2]
 8006fa2:	4648      	mov	r0, r9
 8006fa4:	f7fc fdbd 	bl	8003b22 <lwip_htonl>
 8006fa8:	6078      	str	r0, [r7, #4]
 8006faa:	ea45 0008 	orr.w	r0, r5, r8
 8006fae:	68e7      	ldr	r7, [r4, #12]
 8006fb0:	f7fc fdb4 	bl	8003b1c <lwip_htons>
 8006fb4:	68e3      	ldr	r3, [r4, #12]
 8006fb6:	81b8      	strh	r0, [r7, #12]
 8006fb8:	749e      	strb	r6, [r3, #18]
 8006fba:	74de      	strb	r6, [r3, #19]
 8006fbc:	e7ba      	b.n	8006f34 <tcp_create_segment+0x44>
 8006fbe:	bf00      	nop
 8006fc0:	0800ceba 	.word	0x0800ceba
 8006fc4:	0800cf12 	.word	0x0800cf12
 8006fc8:	0800be06 	.word	0x0800be06
 8006fcc:	0800cf32 	.word	0x0800cf32
 8006fd0:	0800cf53 	.word	0x0800cf53

08006fd4 <tcp_output_alloc_header_common.constprop.0>:
 8006fd4:	3114      	adds	r1, #20
 8006fd6:	e92d 41f0 	stmdb	sp!, {r4, r5, r6, r7, r8, lr}
 8006fda:	b289      	uxth	r1, r1
 8006fdc:	4606      	mov	r6, r0
 8006fde:	4617      	mov	r7, r2
 8006fe0:	2022      	movs	r0, #34	; 0x22
 8006fe2:	f44f 7220 	mov.w	r2, #640	; 0x280
 8006fe6:	4698      	mov	r8, r3
 8006fe8:	f7fd fb46 	bl	8004678 <pbuf_alloc>
 8006fec:	4605      	mov	r5, r0
 8006fee:	b348      	cbz	r0, 8007044 <tcp_output_alloc_header_common.constprop.0+0x70>
 8006ff0:	8943      	ldrh	r3, [r0, #10]
 8006ff2:	2b13      	cmp	r3, #19
 8006ff4:	d806      	bhi.n	8007004 <tcp_output_alloc_header_common.constprop.0+0x30>
 8006ff6:	4b15      	ldr	r3, [pc, #84]	; (800704c <tcp_output_alloc_header_common.constprop.0+0x78>)
 8006ff8:	f240 7223 	movw	r2, #1827	; 0x723
 8006ffc:	4914      	ldr	r1, [pc, #80]	; (8007050 <tcp_output_alloc_header_common.constprop.0+0x7c>)
 8006ffe:	4815      	ldr	r0, [pc, #84]	; (8007054 <tcp_output_alloc_header_common.constprop.0+0x80>)
 8007000:	f002 fd60 	bl	8009ac4 <iprintf>
 8007004:	686c      	ldr	r4, [r5, #4]
 8007006:	4640      	mov	r0, r8
 8007008:	f7fc fd88 	bl	8003b1c <lwip_htons>
 800700c:	8020      	strh	r0, [r4, #0]
 800700e:	f8bd 0018 	ldrh.w	r0, [sp, #24]
 8007012:	f7fc fd83 	bl	8003b1c <lwip_htons>
 8007016:	6067      	str	r7, [r4, #4]
 8007018:	8060      	strh	r0, [r4, #2]
 800701a:	4630      	mov	r0, r6
 800701c:	f7fc fd81 	bl	8003b22 <lwip_htonl>
 8007020:	60a0      	str	r0, [r4, #8]
 8007022:	f89d 001c 	ldrb.w	r0, [sp, #28]
 8007026:	f440 40a0 	orr.w	r0, r0, #20480	; 0x5000
 800702a:	f7fc fd77 	bl	8003b1c <lwip_htons>
 800702e:	81a0      	strh	r0, [r4, #12]
 8007030:	f8bd 0020 	ldrh.w	r0, [sp, #32]
 8007034:	f7fc fd72 	bl	8003b1c <lwip_htons>
 8007038:	2300      	movs	r3, #0
 800703a:	81e0      	strh	r0, [r4, #14]
 800703c:	7423      	strb	r3, [r4, #16]
 800703e:	7463      	strb	r3, [r4, #17]
 8007040:	74a3      	strb	r3, [r4, #18]
 8007042:	74e3      	strb	r3, [r4, #19]
 8007044:	4628      	mov	r0, r5
 8007046:	e8bd 81f0 	ldmia.w	sp!, {r4, r5, r6, r7, r8, pc}
 800704a:	bf00      	nop
 800704c:	0800ceba 	.word	0x0800ceba
 8007050:	0800cf68 	.word	0x0800cf68
 8007054:	0800be06 	.word	0x0800be06

08007058 <tcp_output_alloc_header.constprop.0>:
 8007058:	b57f      	push	{r0, r1, r2, r3, r4, r5, r6, lr}
 800705a:	460d      	mov	r5, r1
 800705c:	4616      	mov	r6, r2
 800705e:	4604      	mov	r4, r0
 8007060:	b930      	cbnz	r0, 8007070 <tcp_output_alloc_header.constprop.0+0x18>
 8007062:	4b0d      	ldr	r3, [pc, #52]	; (8007098 <tcp_output_alloc_header.constprop.0+0x40>)
 8007064:	f240 7242 	movw	r2, #1858	; 0x742
 8007068:	490c      	ldr	r1, [pc, #48]	; (800709c <tcp_output_alloc_header.constprop.0+0x44>)
 800706a:	480d      	ldr	r0, [pc, #52]	; (80070a0 <tcp_output_alloc_header.constprop.0+0x48>)
 800706c:	f002 fd2a 	bl	8009ac4 <iprintf>
 8007070:	8d63      	ldrh	r3, [r4, #42]	; 0x2a
 8007072:	4632      	mov	r2, r6
 8007074:	4629      	mov	r1, r5
 8007076:	9302      	str	r3, [sp, #8]
 8007078:	2310      	movs	r3, #16
 800707a:	9301      	str	r3, [sp, #4]
 800707c:	8b23      	ldrh	r3, [r4, #24]
 800707e:	9300      	str	r3, [sp, #0]
 8007080:	8ae3      	ldrh	r3, [r4, #22]
 8007082:	6a60      	ldr	r0, [r4, #36]	; 0x24
 8007084:	f7ff ffa6 	bl	8006fd4 <tcp_output_alloc_header_common.constprop.0>
 8007088:	b118      	cbz	r0, 8007092 <tcp_output_alloc_header.constprop.0+0x3a>
 800708a:	8d62      	ldrh	r2, [r4, #42]	; 0x2a
 800708c:	6a63      	ldr	r3, [r4, #36]	; 0x24
 800708e:	4413      	add	r3, r2
 8007090:	62e3      	str	r3, [r4, #44]	; 0x2c
 8007092:	b004      	add	sp, #16
 8007094:	bd70      	pop	{r4, r5, r6, pc}
 8007096:	bf00      	nop
 8007098:	0800ceba 	.word	0x0800ceba
 800709c:	0800cf96 	.word	0x0800cf96
 80070a0:	0800be06 	.word	0x0800be06

080070a4 <tcp_output_fill_options.constprop.0>:
 80070a4:	b930      	cbnz	r0, 80070b4 <tcp_output_fill_options.constprop.0+0x10>
 80070a6:	4b04      	ldr	r3, [pc, #16]	; (80070b8 <tcp_output_fill_options.constprop.0+0x14>)
 80070a8:	f240 7256 	movw	r2, #1878	; 0x756
 80070ac:	4903      	ldr	r1, [pc, #12]	; (80070bc <tcp_output_fill_options.constprop.0+0x18>)
 80070ae:	4804      	ldr	r0, [pc, #16]	; (80070c0 <tcp_output_fill_options.constprop.0+0x1c>)
 80070b0:	f002 bd08 	b.w	8009ac4 <iprintf>
 80070b4:	4770      	bx	lr
 80070b6:	bf00      	nop
 80070b8:	0800ceba 	.word	0x0800ceba
 80070bc:	0800cfbb 	.word	0x0800cfbb
 80070c0:	0800be06 	.word	0x0800be06

080070c4 <tcp_output_control_segment>:
 80070c4:	b5f0      	push	{r4, r5, r6, r7, lr}
 80070c6:	4604      	mov	r4, r0
 80070c8:	b085      	sub	sp, #20
 80070ca:	4617      	mov	r7, r2
 80070cc:	461e      	mov	r6, r3
 80070ce:	460d      	mov	r5, r1
 80070d0:	b931      	cbnz	r1, 80070e0 <tcp_output_control_segment+0x1c>
 80070d2:	4b15      	ldr	r3, [pc, #84]	; (8007128 <tcp_output_control_segment+0x64>)
 80070d4:	f240 7287 	movw	r2, #1927	; 0x787
 80070d8:	4914      	ldr	r1, [pc, #80]	; (800712c <tcp_output_control_segment+0x68>)
 80070da:	4815      	ldr	r0, [pc, #84]	; (8007130 <tcp_output_control_segment+0x6c>)
 80070dc:	f002 fcf2 	bl	8009ac4 <iprintf>
 80070e0:	b164      	cbz	r4, 80070fc <tcp_output_control_segment+0x38>
 80070e2:	7a20      	ldrb	r0, [r4, #8]
 80070e4:	b150      	cbz	r0, 80070fc <tcp_output_control_segment+0x38>
 80070e6:	f7fd f98d 	bl	8004404 <netif_get_by_index>
 80070ea:	b968      	cbnz	r0, 8007108 <tcp_output_control_segment+0x44>
 80070ec:	f06f 0403 	mvn.w	r4, #3
 80070f0:	4628      	mov	r0, r5
 80070f2:	f7fd fa5d 	bl	80045b0 <pbuf_free>
 80070f6:	4620      	mov	r0, r4
 80070f8:	b005      	add	sp, #20
 80070fa:	bdf0      	pop	{r4, r5, r6, r7, pc}
 80070fc:	4630      	mov	r0, r6
 80070fe:	f001 fd6f 	bl	8008be0 <ip4_route>
 8007102:	2800      	cmp	r0, #0
 8007104:	d0f2      	beq.n	80070ec <tcp_output_control_segment+0x28>
 8007106:	b164      	cbz	r4, 8007122 <tcp_output_control_segment+0x5e>
 8007108:	7ae3      	ldrb	r3, [r4, #11]
 800710a:	7aa4      	ldrb	r4, [r4, #10]
 800710c:	2206      	movs	r2, #6
 800710e:	9002      	str	r0, [sp, #8]
 8007110:	4639      	mov	r1, r7
 8007112:	4628      	mov	r0, r5
 8007114:	e9cd 4200 	strd	r4, r2, [sp]
 8007118:	4632      	mov	r2, r6
 800711a:	f001 febf 	bl	8008e9c <ip4_output_if>
 800711e:	4604      	mov	r4, r0
 8007120:	e7e6      	b.n	80070f0 <tcp_output_control_segment+0x2c>
 8007122:	23ff      	movs	r3, #255	; 0xff
 8007124:	e7f2      	b.n	800710c <tcp_output_control_segment+0x48>
 8007126:	bf00      	nop
 8007128:	0800ceba 	.word	0x0800ceba
 800712c:	0800cfe1 	.word	0x0800cfe1
 8007130:	0800be06 	.word	0x0800be06

08007134 <tcp_split_unsent_seg>:
 8007134:	e92d 4ff7 	stmdb	sp!, {r0, r1, r2, r4, r5, r6, r7, r8, r9, sl, fp, lr}
 8007138:	460d      	mov	r5, r1
 800713a:	4606      	mov	r6, r0
 800713c:	b930      	cbnz	r0, 800714c <tcp_split_unsent_seg+0x18>
 800713e:	4b5d      	ldr	r3, [pc, #372]	; (80072b4 <tcp_split_unsent_seg+0x180>)
 8007140:	f240 324b 	movw	r2, #843	; 0x34b
 8007144:	495c      	ldr	r1, [pc, #368]	; (80072b8 <tcp_split_unsent_seg+0x184>)
 8007146:	485d      	ldr	r0, [pc, #372]	; (80072bc <tcp_split_unsent_seg+0x188>)
 8007148:	f002 fcbc 	bl	8009ac4 <iprintf>
 800714c:	6ef4      	ldr	r4, [r6, #108]	; 0x6c
 800714e:	b914      	cbnz	r4, 8007156 <tcp_split_unsent_seg+0x22>
 8007150:	f04f 30ff 	mov.w	r0, #4294967295
 8007154:	e009      	b.n	800716a <tcp_split_unsent_seg+0x36>
 8007156:	b95d      	cbnz	r5, 8007170 <tcp_split_unsent_seg+0x3c>
 8007158:	4b56      	ldr	r3, [pc, #344]	; (80072b4 <tcp_split_unsent_seg+0x180>)
 800715a:	f240 3253 	movw	r2, #851	; 0x353
 800715e:	4958      	ldr	r1, [pc, #352]	; (80072c0 <tcp_split_unsent_seg+0x18c>)
 8007160:	4856      	ldr	r0, [pc, #344]	; (80072bc <tcp_split_unsent_seg+0x188>)
 8007162:	f002 fcaf 	bl	8009ac4 <iprintf>
 8007166:	f06f 0005 	mvn.w	r0, #5
 800716a:	b003      	add	sp, #12
 800716c:	e8bd 8ff0 	ldmia.w	sp!, {r4, r5, r6, r7, r8, r9, sl, fp, pc}
 8007170:	8923      	ldrh	r3, [r4, #8]
 8007172:	42ab      	cmp	r3, r5
 8007174:	d801      	bhi.n	800717a <tcp_split_unsent_seg+0x46>
 8007176:	2000      	movs	r0, #0
 8007178:	e7f7      	b.n	800716a <tcp_split_unsent_seg+0x36>
 800717a:	8e73      	ldrh	r3, [r6, #50]	; 0x32
 800717c:	42ab      	cmp	r3, r5
 800717e:	d20f      	bcs.n	80071a0 <tcp_split_unsent_seg+0x6c>
 8007180:	4b4c      	ldr	r3, [pc, #304]	; (80072b4 <tcp_split_unsent_seg+0x180>)
 8007182:	f240 325b 	movw	r2, #859	; 0x35b
 8007186:	494f      	ldr	r1, [pc, #316]	; (80072c4 <tcp_split_unsent_seg+0x190>)
 8007188:	484c      	ldr	r0, [pc, #304]	; (80072bc <tcp_split_unsent_seg+0x188>)
 800718a:	f002 fc9b 	bl	8009ac4 <iprintf>
 800718e:	8923      	ldrh	r3, [r4, #8]
 8007190:	b933      	cbnz	r3, 80071a0 <tcp_split_unsent_seg+0x6c>
 8007192:	4b48      	ldr	r3, [pc, #288]	; (80072b4 <tcp_split_unsent_seg+0x180>)
 8007194:	f44f 7257 	mov.w	r2, #860	; 0x35c
 8007198:	494b      	ldr	r1, [pc, #300]	; (80072c8 <tcp_split_unsent_seg+0x194>)
 800719a:	4848      	ldr	r0, [pc, #288]	; (80072bc <tcp_split_unsent_seg+0x188>)
 800719c:	f002 fc92 	bl	8009ac4 <iprintf>
 80071a0:	f894 b00a 	ldrb.w	fp, [r4, #10]
 80071a4:	f44f 7220 	mov.w	r2, #640	; 0x280
 80071a8:	f8b4 a008 	ldrh.w	sl, [r4, #8]
 80071ac:	2036      	movs	r0, #54	; 0x36
 80071ae:	ea4f 078b 	mov.w	r7, fp, lsl #2
 80071b2:	ebaa 0105 	sub.w	r1, sl, r5
 80071b6:	f007 0704 	and.w	r7, r7, #4
 80071ba:	fa1f f881 	uxth.w	r8, r1
 80071be:	fa17 f181 	uxtah	r1, r7, r1
 80071c2:	b289      	uxth	r1, r1
 80071c4:	f7fd fa58 	bl	8004678 <pbuf_alloc>
 80071c8:	4681      	mov	r9, r0
 80071ca:	2800      	cmp	r0, #0
 80071cc:	d0c0      	beq.n	8007150 <tcp_split_unsent_seg+0x1c>
 80071ce:	6860      	ldr	r0, [r4, #4]
 80071d0:	8922      	ldrh	r2, [r4, #8]
 80071d2:	8903      	ldrh	r3, [r0, #8]
 80071d4:	f8d9 1004 	ldr.w	r1, [r9, #4]
 80071d8:	1a9b      	subs	r3, r3, r2
 80071da:	4642      	mov	r2, r8
 80071dc:	4439      	add	r1, r7
 80071de:	442b      	add	r3, r5
 80071e0:	b29b      	uxth	r3, r3
 80071e2:	f7fd fc03 	bl	80049ec <pbuf_copy_partial>
 80071e6:	4540      	cmp	r0, r8
 80071e8:	d160      	bne.n	80072ac <tcp_split_unsent_seg+0x178>
 80071ea:	68e3      	ldr	r3, [r4, #12]
 80071ec:	8998      	ldrh	r0, [r3, #12]
 80071ee:	f7fc fc95 	bl	8003b1c <lwip_htons>
 80071f2:	f010 0808 	ands.w	r8, r0, #8
 80071f6:	b2c7      	uxtb	r7, r0
 80071f8:	bf16      	itet	ne
 80071fa:	f04f 0808 	movne.w	r8, #8
 80071fe:	f007 073f 	andeq.w	r7, r7, #63	; 0x3f
 8007202:	f007 0737 	andne.w	r7, r7, #55	; 0x37
 8007206:	07fb      	lsls	r3, r7, #31
 8007208:	68e3      	ldr	r3, [r4, #12]
 800720a:	bf48      	it	mi
 800720c:	f048 0801 	orrmi.w	r8, r8, #1
 8007210:	6858      	ldr	r0, [r3, #4]
 8007212:	bf48      	it	mi
 8007214:	f007 07fe 	andmi.w	r7, r7, #254	; 0xfe
 8007218:	f7fc fc83 	bl	8003b22 <lwip_htonl>
 800721c:	4642      	mov	r2, r8
 800721e:	182b      	adds	r3, r5, r0
 8007220:	4649      	mov	r1, r9
 8007222:	4630      	mov	r0, r6
 8007224:	f8cd b000 	str.w	fp, [sp]
 8007228:	f7ff fe62 	bl	8006ef0 <tcp_create_segment>
 800722c:	4680      	mov	r8, r0
 800722e:	2800      	cmp	r0, #0
 8007230:	d03c      	beq.n	80072ac <tcp_split_unsent_seg+0x178>
 8007232:	6860      	ldr	r0, [r4, #4]
 8007234:	eba5 050a 	sub.w	r5, r5, sl
 8007238:	f7fd faf6 	bl	8004828 <pbuf_clen>
 800723c:	f8b6 3066 	ldrh.w	r3, [r6, #102]	; 0x66
 8007240:	fa1f f985 	uxth.w	r9, r5
 8007244:	1a18      	subs	r0, r3, r0
 8007246:	f8a6 0066 	strh.w	r0, [r6, #102]	; 0x66
 800724a:	6860      	ldr	r0, [r4, #4]
 800724c:	8903      	ldrh	r3, [r0, #8]
 800724e:	fa13 f585 	uxtah	r5, r3, r5
 8007252:	b2a9      	uxth	r1, r5
 8007254:	f7fd fa90 	bl	8004778 <pbuf_realloc>
 8007258:	8923      	ldrh	r3, [r4, #8]
 800725a:	4638      	mov	r0, r7
 800725c:	4499      	add	r9, r3
 800725e:	68e3      	ldr	r3, [r4, #12]
 8007260:	f8a4 9008 	strh.w	r9, [r4, #8]
 8007264:	899d      	ldrh	r5, [r3, #12]
 8007266:	f7fc fc59 	bl	8003b1c <lwip_htons>
 800726a:	68e3      	ldr	r3, [r4, #12]
 800726c:	4328      	orrs	r0, r5
 800726e:	8198      	strh	r0, [r3, #12]
 8007270:	6860      	ldr	r0, [r4, #4]
 8007272:	f7fd fad9 	bl	8004828 <pbuf_clen>
 8007276:	f8b6 3066 	ldrh.w	r3, [r6, #102]	; 0x66
 800727a:	4418      	add	r0, r3
 800727c:	f8a6 0066 	strh.w	r0, [r6, #102]	; 0x66
 8007280:	f8d8 0004 	ldr.w	r0, [r8, #4]
 8007284:	f7fd fad0 	bl	8004828 <pbuf_clen>
 8007288:	f8b6 3066 	ldrh.w	r3, [r6, #102]	; 0x66
 800728c:	4418      	add	r0, r3
 800728e:	6823      	ldr	r3, [r4, #0]
 8007290:	f8a6 0066 	strh.w	r0, [r6, #102]	; 0x66
 8007294:	f8c8 3000 	str.w	r3, [r8]
 8007298:	f8c4 8000 	str.w	r8, [r4]
 800729c:	f8d8 0000 	ldr.w	r0, [r8]
 80072a0:	2800      	cmp	r0, #0
 80072a2:	f47f af68 	bne.w	8007176 <tcp_split_unsent_seg+0x42>
 80072a6:	f8a6 0068 	strh.w	r0, [r6, #104]	; 0x68
 80072aa:	e75e      	b.n	800716a <tcp_split_unsent_seg+0x36>
 80072ac:	4648      	mov	r0, r9
 80072ae:	f7fd f97f 	bl	80045b0 <pbuf_free>
 80072b2:	e74d      	b.n	8007150 <tcp_split_unsent_seg+0x1c>
 80072b4:	0800ceba 	.word	0x0800ceba
 80072b8:	0800d00a 	.word	0x0800d00a
 80072bc:	0800be06 	.word	0x0800be06
 80072c0:	0800d02c 	.word	0x0800d02c
 80072c4:	0800d04e 	.word	0x0800d04e
 80072c8:	0800d05b 	.word	0x0800d05b

080072cc <tcp_enqueue_flags>:
 80072cc:	e92d 43f7 	stmdb	sp!, {r0, r1, r2, r4, r5, r6, r7, r8, r9, lr}
 80072d0:	f011 0803 	ands.w	r8, r1, #3
 80072d4:	4604      	mov	r4, r0
 80072d6:	460e      	mov	r6, r1
 80072d8:	d106      	bne.n	80072e8 <tcp_enqueue_flags+0x1c>
 80072da:	4b3e      	ldr	r3, [pc, #248]	; (80073d4 <tcp_enqueue_flags+0x108>)
 80072dc:	f240 4211 	movw	r2, #1041	; 0x411
 80072e0:	493d      	ldr	r1, [pc, #244]	; (80073d8 <tcp_enqueue_flags+0x10c>)
 80072e2:	483e      	ldr	r0, [pc, #248]	; (80073dc <tcp_enqueue_flags+0x110>)
 80072e4:	f002 fbee 	bl	8009ac4 <iprintf>
 80072e8:	b934      	cbnz	r4, 80072f8 <tcp_enqueue_flags+0x2c>
 80072ea:	4b3a      	ldr	r3, [pc, #232]	; (80073d4 <tcp_enqueue_flags+0x108>)
 80072ec:	f240 4213 	movw	r2, #1043	; 0x413
 80072f0:	493b      	ldr	r1, [pc, #236]	; (80073e0 <tcp_enqueue_flags+0x114>)
 80072f2:	483a      	ldr	r0, [pc, #232]	; (80073dc <tcp_enqueue_flags+0x110>)
 80072f4:	f002 fbe6 	bl	8009ac4 <iprintf>
 80072f8:	f3c6 0740 	ubfx	r7, r6, #1, #1
 80072fc:	f44f 7220 	mov.w	r2, #640	; 0x280
 8007300:	2036      	movs	r0, #54	; 0x36
 8007302:	ea4f 0987 	mov.w	r9, r7, lsl #2
 8007306:	4649      	mov	r1, r9
 8007308:	f7fd f9b6 	bl	8004678 <pbuf_alloc>
 800730c:	4605      	mov	r5, r0
 800730e:	b940      	cbnz	r0, 8007322 <tcp_enqueue_flags+0x56>
 8007310:	8b63      	ldrh	r3, [r4, #26]
 8007312:	f04f 30ff 	mov.w	r0, #4294967295
 8007316:	f043 0380 	orr.w	r3, r3, #128	; 0x80
 800731a:	8363      	strh	r3, [r4, #26]
 800731c:	b003      	add	sp, #12
 800731e:	e8bd 83f0 	ldmia.w	sp!, {r4, r5, r6, r7, r8, r9, pc}
 8007322:	8943      	ldrh	r3, [r0, #10]
 8007324:	454b      	cmp	r3, r9
 8007326:	d206      	bcs.n	8007336 <tcp_enqueue_flags+0x6a>
 8007328:	4b2a      	ldr	r3, [pc, #168]	; (80073d4 <tcp_enqueue_flags+0x108>)
 800732a:	f240 4239 	movw	r2, #1081	; 0x439
 800732e:	492d      	ldr	r1, [pc, #180]	; (80073e4 <tcp_enqueue_flags+0x118>)
 8007330:	482a      	ldr	r0, [pc, #168]	; (80073dc <tcp_enqueue_flags+0x110>)
 8007332:	f002 fbc7 	bl	8009ac4 <iprintf>
 8007336:	4629      	mov	r1, r5
 8007338:	9700      	str	r7, [sp, #0]
 800733a:	4632      	mov	r2, r6
 800733c:	6de3      	ldr	r3, [r4, #92]	; 0x5c
 800733e:	4620      	mov	r0, r4
 8007340:	f7ff fdd6 	bl	8006ef0 <tcp_create_segment>
 8007344:	4605      	mov	r5, r0
 8007346:	2800      	cmp	r0, #0
 8007348:	d0e2      	beq.n	8007310 <tcp_enqueue_flags+0x44>
 800734a:	68c3      	ldr	r3, [r0, #12]
 800734c:	079a      	lsls	r2, r3, #30
 800734e:	d006      	beq.n	800735e <tcp_enqueue_flags+0x92>
 8007350:	4b20      	ldr	r3, [pc, #128]	; (80073d4 <tcp_enqueue_flags+0x108>)
 8007352:	f240 4242 	movw	r2, #1090	; 0x442
 8007356:	4924      	ldr	r1, [pc, #144]	; (80073e8 <tcp_enqueue_flags+0x11c>)
 8007358:	4820      	ldr	r0, [pc, #128]	; (80073dc <tcp_enqueue_flags+0x110>)
 800735a:	f002 fbb3 	bl	8009ac4 <iprintf>
 800735e:	892b      	ldrh	r3, [r5, #8]
 8007360:	b133      	cbz	r3, 8007370 <tcp_enqueue_flags+0xa4>
 8007362:	4b1c      	ldr	r3, [pc, #112]	; (80073d4 <tcp_enqueue_flags+0x108>)
 8007364:	f240 4243 	movw	r2, #1091	; 0x443
 8007368:	4920      	ldr	r1, [pc, #128]	; (80073ec <tcp_enqueue_flags+0x120>)
 800736a:	481c      	ldr	r0, [pc, #112]	; (80073dc <tcp_enqueue_flags+0x110>)
 800736c:	f002 fbaa 	bl	8009ac4 <iprintf>
 8007370:	6ee3      	ldr	r3, [r4, #108]	; 0x6c
 8007372:	bb43      	cbnz	r3, 80073c6 <tcp_enqueue_flags+0xfa>
 8007374:	66e5      	str	r5, [r4, #108]	; 0x6c
 8007376:	2300      	movs	r3, #0
 8007378:	f8a4 3068 	strh.w	r3, [r4, #104]	; 0x68
 800737c:	f1b8 0f00 	cmp.w	r8, #0
 8007380:	d002      	beq.n	8007388 <tcp_enqueue_flags+0xbc>
 8007382:	6de3      	ldr	r3, [r4, #92]	; 0x5c
 8007384:	3301      	adds	r3, #1
 8007386:	65e3      	str	r3, [r4, #92]	; 0x5c
 8007388:	07f3      	lsls	r3, r6, #31
 800738a:	6868      	ldr	r0, [r5, #4]
 800738c:	bf42      	ittt	mi
 800738e:	8b63      	ldrhmi	r3, [r4, #26]
 8007390:	f043 0320 	orrmi.w	r3, r3, #32
 8007394:	8363      	strhmi	r3, [r4, #26]
 8007396:	f7fd fa47 	bl	8004828 <pbuf_clen>
 800739a:	f8b4 3066 	ldrh.w	r3, [r4, #102]	; 0x66
 800739e:	4418      	add	r0, r3
 80073a0:	b280      	uxth	r0, r0
 80073a2:	f8a4 0066 	strh.w	r0, [r4, #102]	; 0x66
 80073a6:	2800      	cmp	r0, #0
 80073a8:	d0b8      	beq.n	800731c <tcp_enqueue_flags+0x50>
 80073aa:	6f20      	ldr	r0, [r4, #112]	; 0x70
 80073ac:	b948      	cbnz	r0, 80073c2 <tcp_enqueue_flags+0xf6>
 80073ae:	6ee4      	ldr	r4, [r4, #108]	; 0x6c
 80073b0:	2c00      	cmp	r4, #0
 80073b2:	d1b3      	bne.n	800731c <tcp_enqueue_flags+0x50>
 80073b4:	4b07      	ldr	r3, [pc, #28]	; (80073d4 <tcp_enqueue_flags+0x108>)
 80073b6:	f240 4265 	movw	r2, #1125	; 0x465
 80073ba:	490d      	ldr	r1, [pc, #52]	; (80073f0 <tcp_enqueue_flags+0x124>)
 80073bc:	4807      	ldr	r0, [pc, #28]	; (80073dc <tcp_enqueue_flags+0x110>)
 80073be:	f002 fb81 	bl	8009ac4 <iprintf>
 80073c2:	2000      	movs	r0, #0
 80073c4:	e7aa      	b.n	800731c <tcp_enqueue_flags+0x50>
 80073c6:	461a      	mov	r2, r3
 80073c8:	681b      	ldr	r3, [r3, #0]
 80073ca:	2b00      	cmp	r3, #0
 80073cc:	d1fb      	bne.n	80073c6 <tcp_enqueue_flags+0xfa>
 80073ce:	6015      	str	r5, [r2, #0]
 80073d0:	e7d1      	b.n	8007376 <tcp_enqueue_flags+0xaa>
 80073d2:	bf00      	nop
 80073d4:	0800ceba 	.word	0x0800ceba
 80073d8:	0800d069 	.word	0x0800d069
 80073dc:	0800be06 	.word	0x0800be06
 80073e0:	0800d0be 	.word	0x0800d0be
 80073e4:	0800d0dd 	.word	0x0800d0dd
 80073e8:	0800d116 	.word	0x0800d116
 80073ec:	0800d12e 	.word	0x0800d12e
 80073f0:	0800d158 	.word	0x0800d158

080073f4 <tcp_send_fin>:
 80073f4:	b5f8      	push	{r3, r4, r5, r6, r7, lr}
 80073f6:	4604      	mov	r4, r0
 80073f8:	b930      	cbnz	r0, 8007408 <tcp_send_fin+0x14>
 80073fa:	4b13      	ldr	r3, [pc, #76]	; (8007448 <tcp_send_fin+0x54>)
 80073fc:	f240 32eb 	movw	r2, #1003	; 0x3eb
 8007400:	4912      	ldr	r1, [pc, #72]	; (800744c <tcp_send_fin+0x58>)
 8007402:	4813      	ldr	r0, [pc, #76]	; (8007450 <tcp_send_fin+0x5c>)
 8007404:	f002 fb5e 	bl	8009ac4 <iprintf>
 8007408:	6ee5      	ldr	r5, [r4, #108]	; 0x6c
 800740a:	b14d      	cbz	r5, 8007420 <tcp_send_fin+0x2c>
 800740c:	462f      	mov	r7, r5
 800740e:	682d      	ldr	r5, [r5, #0]
 8007410:	2d00      	cmp	r5, #0
 8007412:	d1fb      	bne.n	800740c <tcp_send_fin+0x18>
 8007414:	68fb      	ldr	r3, [r7, #12]
 8007416:	8998      	ldrh	r0, [r3, #12]
 8007418:	f7fc fb80 	bl	8003b1c <lwip_htons>
 800741c:	0743      	lsls	r3, r0, #29
 800741e:	d005      	beq.n	800742c <tcp_send_fin+0x38>
 8007420:	4620      	mov	r0, r4
 8007422:	2101      	movs	r1, #1
 8007424:	e8bd 40f8 	ldmia.w	sp!, {r3, r4, r5, r6, r7, lr}
 8007428:	f7ff bf50 	b.w	80072cc <tcp_enqueue_flags>
 800742c:	68fb      	ldr	r3, [r7, #12]
 800742e:	2001      	movs	r0, #1
 8007430:	899e      	ldrh	r6, [r3, #12]
 8007432:	f7fc fb73 	bl	8003b1c <lwip_htons>
 8007436:	68fb      	ldr	r3, [r7, #12]
 8007438:	4330      	orrs	r0, r6
 800743a:	8198      	strh	r0, [r3, #12]
 800743c:	4628      	mov	r0, r5
 800743e:	8b63      	ldrh	r3, [r4, #26]
 8007440:	f043 0320 	orr.w	r3, r3, #32
 8007444:	8363      	strh	r3, [r4, #26]
 8007446:	bdf8      	pop	{r3, r4, r5, r6, r7, pc}
 8007448:	0800ceba 	.word	0x0800ceba
 800744c:	0800d180 	.word	0x0800d180
 8007450:	0800be06 	.word	0x0800be06

08007454 <tcp_rexmit_rto_prepare>:
 8007454:	e92d 41f0 	stmdb	sp!, {r4, r5, r6, r7, r8, lr}
 8007458:	4604      	mov	r4, r0
 800745a:	b930      	cbnz	r0, 800746a <tcp_rexmit_rto_prepare+0x16>
 800745c:	4b1c      	ldr	r3, [pc, #112]	; (80074d0 <tcp_rexmit_rto_prepare+0x7c>)
 800745e:	f240 6263 	movw	r2, #1635	; 0x663
 8007462:	491c      	ldr	r1, [pc, #112]	; (80074d4 <tcp_rexmit_rto_prepare+0x80>)
 8007464:	481c      	ldr	r0, [pc, #112]	; (80074d8 <tcp_rexmit_rto_prepare+0x84>)
 8007466:	f002 fb2d 	bl	8009ac4 <iprintf>
 800746a:	6f25      	ldr	r5, [r4, #112]	; 0x70
 800746c:	b945      	cbnz	r5, 8007480 <tcp_rexmit_rto_prepare+0x2c>
 800746e:	f06f 0005 	mvn.w	r0, #5
 8007472:	e8bd 81f0 	ldmia.w	sp!, {r4, r5, r6, r7, r8, pc}
 8007476:	f7ff fd25 	bl	8006ec4 <tcp_output_segment_busy>
 800747a:	2800      	cmp	r0, #0
 800747c:	d1f7      	bne.n	800746e <tcp_rexmit_rto_prepare+0x1a>
 800747e:	682d      	ldr	r5, [r5, #0]
 8007480:	682b      	ldr	r3, [r5, #0]
 8007482:	4628      	mov	r0, r5
 8007484:	2b00      	cmp	r3, #0
 8007486:	d1f6      	bne.n	8007476 <tcp_rexmit_rto_prepare+0x22>
 8007488:	f7ff fd1c 	bl	8006ec4 <tcp_output_segment_busy>
 800748c:	4606      	mov	r6, r0
 800748e:	2800      	cmp	r0, #0
 8007490:	d1ed      	bne.n	800746e <tcp_rexmit_rto_prepare+0x1a>
 8007492:	6ee3      	ldr	r3, [r4, #108]	; 0x6c
 8007494:	602b      	str	r3, [r5, #0]
 8007496:	6f23      	ldr	r3, [r4, #112]	; 0x70
 8007498:	e9c4 301b 	strd	r3, r0, [r4, #108]	; 0x6c
 800749c:	8b63      	ldrh	r3, [r4, #26]
 800749e:	f443 6300 	orr.w	r3, r3, #2048	; 0x800
 80074a2:	8363      	strh	r3, [r4, #26]
 80074a4:	68eb      	ldr	r3, [r5, #12]
 80074a6:	6858      	ldr	r0, [r3, #4]
 80074a8:	f7fc fb3b 	bl	8003b22 <lwip_htonl>
 80074ac:	68eb      	ldr	r3, [r5, #12]
 80074ae:	4607      	mov	r7, r0
 80074b0:	f8b5 8008 	ldrh.w	r8, [r5, #8]
 80074b4:	8998      	ldrh	r0, [r3, #12]
 80074b6:	f7fc fb31 	bl	8003b1c <lwip_htons>
 80074ba:	f010 0303 	ands.w	r3, r0, #3
 80074be:	4447      	add	r7, r8
 80074c0:	4630      	mov	r0, r6
 80074c2:	bf18      	it	ne
 80074c4:	2301      	movne	r3, #1
 80074c6:	6366      	str	r6, [r4, #52]	; 0x34
 80074c8:	443b      	add	r3, r7
 80074ca:	64e3      	str	r3, [r4, #76]	; 0x4c
 80074cc:	e7d1      	b.n	8007472 <tcp_rexmit_rto_prepare+0x1e>
 80074ce:	bf00      	nop
 80074d0:	0800ceba 	.word	0x0800ceba
 80074d4:	0800d19a 	.word	0x0800d19a
 80074d8:	0800be06 	.word	0x0800be06

080074dc <tcp_rexmit>:
 80074dc:	b5f8      	push	{r3, r4, r5, r6, r7, lr}
 80074de:	4604      	mov	r4, r0
 80074e0:	b930      	cbnz	r0, 80074f0 <tcp_rexmit+0x14>
 80074e2:	4b1b      	ldr	r3, [pc, #108]	; (8007550 <tcp_rexmit+0x74>)
 80074e4:	f240 62c1 	movw	r2, #1729	; 0x6c1
 80074e8:	491a      	ldr	r1, [pc, #104]	; (8007554 <tcp_rexmit+0x78>)
 80074ea:	481b      	ldr	r0, [pc, #108]	; (8007558 <tcp_rexmit+0x7c>)
 80074ec:	f002 faea 	bl	8009ac4 <iprintf>
 80074f0:	6f25      	ldr	r5, [r4, #112]	; 0x70
 80074f2:	b915      	cbnz	r5, 80074fa <tcp_rexmit+0x1e>
 80074f4:	f06f 0005 	mvn.w	r0, #5
 80074f8:	bdf8      	pop	{r3, r4, r5, r6, r7, pc}
 80074fa:	4628      	mov	r0, r5
 80074fc:	f7ff fce2 	bl	8006ec4 <tcp_output_segment_busy>
 8007500:	2800      	cmp	r0, #0
 8007502:	d1f7      	bne.n	80074f4 <tcp_rexmit+0x18>
 8007504:	682b      	ldr	r3, [r5, #0]
 8007506:	f104 066c 	add.w	r6, r4, #108	; 0x6c
 800750a:	6723      	str	r3, [r4, #112]	; 0x70
 800750c:	6833      	ldr	r3, [r6, #0]
 800750e:	b983      	cbnz	r3, 8007532 <tcp_rexmit+0x56>
 8007510:	6833      	ldr	r3, [r6, #0]
 8007512:	602b      	str	r3, [r5, #0]
 8007514:	6035      	str	r5, [r6, #0]
 8007516:	682b      	ldr	r3, [r5, #0]
 8007518:	b90b      	cbnz	r3, 800751e <tcp_rexmit+0x42>
 800751a:	f8a4 3068 	strh.w	r3, [r4, #104]	; 0x68
 800751e:	f894 3042 	ldrb.w	r3, [r4, #66]	; 0x42
 8007522:	2000      	movs	r0, #0
 8007524:	2bff      	cmp	r3, #255	; 0xff
 8007526:	6360      	str	r0, [r4, #52]	; 0x34
 8007528:	bf1c      	itt	ne
 800752a:	3301      	addne	r3, #1
 800752c:	f884 3042 	strbne.w	r3, [r4, #66]	; 0x42
 8007530:	e7e2      	b.n	80074f8 <tcp_rexmit+0x1c>
 8007532:	68db      	ldr	r3, [r3, #12]
 8007534:	6858      	ldr	r0, [r3, #4]
 8007536:	f7fc faf4 	bl	8003b22 <lwip_htonl>
 800753a:	68eb      	ldr	r3, [r5, #12]
 800753c:	4607      	mov	r7, r0
 800753e:	6858      	ldr	r0, [r3, #4]
 8007540:	f7fc faef 	bl	8003b22 <lwip_htonl>
 8007544:	1a38      	subs	r0, r7, r0
 8007546:	2800      	cmp	r0, #0
 8007548:	dae2      	bge.n	8007510 <tcp_rexmit+0x34>
 800754a:	6836      	ldr	r6, [r6, #0]
 800754c:	e7de      	b.n	800750c <tcp_rexmit+0x30>
 800754e:	bf00      	nop
 8007550:	0800ceba 	.word	0x0800ceba
 8007554:	0800d1be 	.word	0x0800d1be
 8007558:	0800be06 	.word	0x0800be06

0800755c <tcp_rexmit_fast>:
 800755c:	b538      	push	{r3, r4, r5, lr}
 800755e:	4604      	mov	r4, r0
 8007560:	b930      	cbnz	r0, 8007570 <tcp_rexmit_fast+0x14>
 8007562:	4b15      	ldr	r3, [pc, #84]	; (80075b8 <tcp_rexmit_fast+0x5c>)
 8007564:	f240 62f9 	movw	r2, #1785	; 0x6f9
 8007568:	4914      	ldr	r1, [pc, #80]	; (80075bc <tcp_rexmit_fast+0x60>)
 800756a:	4815      	ldr	r0, [pc, #84]	; (80075c0 <tcp_rexmit_fast+0x64>)
 800756c:	f002 faaa 	bl	8009ac4 <iprintf>
 8007570:	6f23      	ldr	r3, [r4, #112]	; 0x70
 8007572:	b1fb      	cbz	r3, 80075b4 <tcp_rexmit_fast+0x58>
 8007574:	8b63      	ldrh	r3, [r4, #26]
 8007576:	075b      	lsls	r3, r3, #29
 8007578:	d41c      	bmi.n	80075b4 <tcp_rexmit_fast+0x58>
 800757a:	4620      	mov	r0, r4
 800757c:	f7ff ffae 	bl	80074dc <tcp_rexmit>
 8007580:	b9c0      	cbnz	r0, 80075b4 <tcp_rexmit_fast+0x58>
 8007582:	f8b4 1060 	ldrh.w	r1, [r4, #96]	; 0x60
 8007586:	f8b4 3048 	ldrh.w	r3, [r4, #72]	; 0x48
 800758a:	8620      	strh	r0, [r4, #48]	; 0x30
 800758c:	4299      	cmp	r1, r3
 800758e:	bf28      	it	cs
 8007590:	4619      	movcs	r1, r3
 8007592:	8e63      	ldrh	r3, [r4, #50]	; 0x32
 8007594:	005d      	lsls	r5, r3, #1
 8007596:	104a      	asrs	r2, r1, #1
 8007598:	ebb5 0f51 	cmp.w	r5, r1, lsr #1
 800759c:	442b      	add	r3, r5
 800759e:	bf88      	it	hi
 80075a0:	462a      	movhi	r2, r5
 80075a2:	4413      	add	r3, r2
 80075a4:	f8a4 204a 	strh.w	r2, [r4, #74]	; 0x4a
 80075a8:	f8a4 3048 	strh.w	r3, [r4, #72]	; 0x48
 80075ac:	8b63      	ldrh	r3, [r4, #26]
 80075ae:	f043 0304 	orr.w	r3, r3, #4
 80075b2:	8363      	strh	r3, [r4, #26]
 80075b4:	bd38      	pop	{r3, r4, r5, pc}
 80075b6:	bf00      	nop
 80075b8:	0800ceba 	.word	0x0800ceba
 80075bc:	0800d1d6 	.word	0x0800d1d6
 80075c0:	0800be06 	.word	0x0800be06

080075c4 <tcp_rst>:
 80075c4:	e92d 47ff 	stmdb	sp!, {r0, r1, r2, r3, r4, r5, r6, r7, r8, r9, sl, lr}
 80075c8:	f8dd 8030 	ldr.w	r8, [sp, #48]	; 0x30
 80075cc:	4606      	mov	r6, r0
 80075ce:	460f      	mov	r7, r1
 80075d0:	4614      	mov	r4, r2
 80075d2:	f8bd 9034 	ldrh.w	r9, [sp, #52]	; 0x34
 80075d6:	461d      	mov	r5, r3
 80075d8:	f8bd a038 	ldrh.w	sl, [sp, #56]	; 0x38
 80075dc:	b933      	cbnz	r3, 80075ec <tcp_rst+0x28>
 80075de:	4b18      	ldr	r3, [pc, #96]	; (8007640 <tcp_rst+0x7c>)
 80075e0:	f240 72c4 	movw	r2, #1988	; 0x7c4
 80075e4:	4917      	ldr	r1, [pc, #92]	; (8007644 <tcp_rst+0x80>)
 80075e6:	4818      	ldr	r0, [pc, #96]	; (8007648 <tcp_rst+0x84>)
 80075e8:	f002 fa6c 	bl	8009ac4 <iprintf>
 80075ec:	f1b8 0f00 	cmp.w	r8, #0
 80075f0:	d106      	bne.n	8007600 <tcp_rst+0x3c>
 80075f2:	4b13      	ldr	r3, [pc, #76]	; (8007640 <tcp_rst+0x7c>)
 80075f4:	f240 72c5 	movw	r2, #1989	; 0x7c5
 80075f8:	4914      	ldr	r1, [pc, #80]	; (800764c <tcp_rst+0x88>)
 80075fa:	4813      	ldr	r0, [pc, #76]	; (8007648 <tcp_rst+0x84>)
 80075fc:	f002 fa62 	bl	8009ac4 <iprintf>
 8007600:	4638      	mov	r0, r7
 8007602:	f7fc fa8e 	bl	8003b22 <lwip_htonl>
 8007606:	2314      	movs	r3, #20
 8007608:	f246 0108 	movw	r1, #24584	; 0x6008
 800760c:	4602      	mov	r2, r0
 800760e:	f8cd a000 	str.w	sl, [sp]
 8007612:	4620      	mov	r0, r4
 8007614:	e9cd 3101 	strd	r3, r1, [sp, #4]
 8007618:	464b      	mov	r3, r9
 800761a:	2100      	movs	r1, #0
 800761c:	f7ff fcda 	bl	8006fd4 <tcp_output_alloc_header_common.constprop.0>
 8007620:	4604      	mov	r4, r0
 8007622:	b150      	cbz	r0, 800763a <tcp_rst+0x76>
 8007624:	f7ff fd3e 	bl	80070a4 <tcp_output_fill_options.constprop.0>
 8007628:	4643      	mov	r3, r8
 800762a:	462a      	mov	r2, r5
 800762c:	4621      	mov	r1, r4
 800762e:	4630      	mov	r0, r6
 8007630:	b004      	add	sp, #16
 8007632:	e8bd 47f0 	ldmia.w	sp!, {r4, r5, r6, r7, r8, r9, sl, lr}
 8007636:	f7ff bd45 	b.w	80070c4 <tcp_output_control_segment>
 800763a:	b004      	add	sp, #16
 800763c:	e8bd 87f0 	ldmia.w	sp!, {r4, r5, r6, r7, r8, r9, sl, pc}
 8007640:	0800ceba 	.word	0x0800ceba
 8007644:	0800d1f3 	.word	0x0800d1f3
 8007648:	0800be06 	.word	0x0800be06
 800764c:	0800d20d 	.word	0x0800d20d

08007650 <tcp_send_empty_ack>:
 8007650:	b538      	push	{r3, r4, r5, lr}
 8007652:	4604      	mov	r4, r0
 8007654:	b930      	cbnz	r0, 8007664 <tcp_send_empty_ack+0x14>
 8007656:	4b14      	ldr	r3, [pc, #80]	; (80076a8 <tcp_send_empty_ack+0x58>)
 8007658:	f240 72ea 	movw	r2, #2026	; 0x7ea
 800765c:	4913      	ldr	r1, [pc, #76]	; (80076ac <tcp_send_empty_ack+0x5c>)
 800765e:	4814      	ldr	r0, [pc, #80]	; (80076b0 <tcp_send_empty_ack+0x60>)
 8007660:	f002 fa30 	bl	8009ac4 <iprintf>
 8007664:	6d20      	ldr	r0, [r4, #80]	; 0x50
 8007666:	f7fc fa5c 	bl	8003b22 <lwip_htonl>
 800766a:	2100      	movs	r1, #0
 800766c:	4602      	mov	r2, r0
 800766e:	4620      	mov	r0, r4
 8007670:	f7ff fcf2 	bl	8007058 <tcp_output_alloc_header.constprop.0>
 8007674:	4605      	mov	r5, r0
 8007676:	b930      	cbnz	r0, 8007686 <tcp_send_empty_ack+0x36>
 8007678:	8b63      	ldrh	r3, [r4, #26]
 800767a:	f06f 0001 	mvn.w	r0, #1
 800767e:	f043 0303 	orr.w	r3, r3, #3
 8007682:	8363      	strh	r3, [r4, #26]
 8007684:	bd38      	pop	{r3, r4, r5, pc}
 8007686:	f7ff fd0d 	bl	80070a4 <tcp_output_fill_options.constprop.0>
 800768a:	1d23      	adds	r3, r4, #4
 800768c:	4622      	mov	r2, r4
 800768e:	4629      	mov	r1, r5
 8007690:	4620      	mov	r0, r4
 8007692:	f7ff fd17 	bl	80070c4 <tcp_output_control_segment>
 8007696:	8b63      	ldrh	r3, [r4, #26]
 8007698:	b118      	cbz	r0, 80076a2 <tcp_send_empty_ack+0x52>
 800769a:	f043 0303 	orr.w	r3, r3, #3
 800769e:	b29b      	uxth	r3, r3
 80076a0:	e7ef      	b.n	8007682 <tcp_send_empty_ack+0x32>
 80076a2:	f023 0303 	bic.w	r3, r3, #3
 80076a6:	e7fa      	b.n	800769e <tcp_send_empty_ack+0x4e>
 80076a8:	0800ceba 	.word	0x0800ceba
 80076ac:	0800d228 	.word	0x0800d228
 80076b0:	0800be06 	.word	0x0800be06

080076b4 <tcp_output>:
 80076b4:	e92d 4ff0 	stmdb	sp!, {r4, r5, r6, r7, r8, r9, sl, fp, lr}
 80076b8:	4604      	mov	r4, r0
 80076ba:	b087      	sub	sp, #28
 80076bc:	b930      	cbnz	r0, 80076cc <tcp_output+0x18>
 80076be:	4b8f      	ldr	r3, [pc, #572]	; (80078fc <tcp_output+0x248>)
 80076c0:	f240 42e1 	movw	r2, #1249	; 0x4e1
 80076c4:	498e      	ldr	r1, [pc, #568]	; (8007900 <tcp_output+0x24c>)
 80076c6:	488f      	ldr	r0, [pc, #572]	; (8007904 <tcp_output+0x250>)
 80076c8:	f002 f9fc 	bl	8009ac4 <iprintf>
 80076cc:	7d23      	ldrb	r3, [r4, #20]
 80076ce:	2b01      	cmp	r3, #1
 80076d0:	d106      	bne.n	80076e0 <tcp_output+0x2c>
 80076d2:	4b8a      	ldr	r3, [pc, #552]	; (80078fc <tcp_output+0x248>)
 80076d4:	f240 42e3 	movw	r2, #1251	; 0x4e3
 80076d8:	498b      	ldr	r1, [pc, #556]	; (8007908 <tcp_output+0x254>)
 80076da:	488a      	ldr	r0, [pc, #552]	; (8007904 <tcp_output+0x250>)
 80076dc:	f002 f9f2 	bl	8009ac4 <iprintf>
 80076e0:	4b8a      	ldr	r3, [pc, #552]	; (800790c <tcp_output+0x258>)
 80076e2:	681b      	ldr	r3, [r3, #0]
 80076e4:	42a3      	cmp	r3, r4
 80076e6:	f000 8171 	beq.w	80079cc <tcp_output+0x318>
 80076ea:	6ee5      	ldr	r5, [r4, #108]	; 0x6c
 80076ec:	f8b4 8048 	ldrh.w	r8, [r4, #72]	; 0x48
 80076f0:	f8b4 6060 	ldrh.w	r6, [r4, #96]	; 0x60
 80076f4:	b94d      	cbnz	r5, 800770a <tcp_output+0x56>
 80076f6:	8b63      	ldrh	r3, [r4, #26]
 80076f8:	0798      	lsls	r0, r3, #30
 80076fa:	f140 8163 	bpl.w	80079c4 <tcp_output+0x310>
 80076fe:	4620      	mov	r0, r4
 8007700:	b007      	add	sp, #28
 8007702:	e8bd 4ff0 	ldmia.w	sp!, {r4, r5, r6, r7, r8, r9, sl, fp, lr}
 8007706:	f7ff bfa3 	b.w	8007650 <tcp_send_empty_ack>
 800770a:	7a20      	ldrb	r0, [r4, #8]
 800770c:	f104 0904 	add.w	r9, r4, #4
 8007710:	b340      	cbz	r0, 8007764 <tcp_output+0xb0>
 8007712:	f7fc fe77 	bl	8004404 <netif_get_by_index>
 8007716:	4607      	mov	r7, r0
 8007718:	2800      	cmp	r0, #0
 800771a:	f000 8170 	beq.w	80079fe <tcp_output+0x34a>
 800771e:	6823      	ldr	r3, [r4, #0]
 8007720:	b90b      	cbnz	r3, 8007726 <tcp_output+0x72>
 8007722:	6843      	ldr	r3, [r0, #4]
 8007724:	6023      	str	r3, [r4, #0]
 8007726:	68eb      	ldr	r3, [r5, #12]
 8007728:	45b0      	cmp	r8, r6
 800772a:	6858      	ldr	r0, [r3, #4]
 800772c:	bf28      	it	cs
 800772e:	46b0      	movcs	r8, r6
 8007730:	f7fc f9f7 	bl	8003b22 <lwip_htonl>
 8007734:	892b      	ldrh	r3, [r5, #8]
 8007736:	6c62      	ldr	r2, [r4, #68]	; 0x44
 8007738:	1a9b      	subs	r3, r3, r2
 800773a:	4418      	add	r0, r3
 800773c:	4540      	cmp	r0, r8
 800773e:	d915      	bls.n	800776c <tcp_output+0xb8>
 8007740:	f8b4 3060 	ldrh.w	r3, [r4, #96]	; 0x60
 8007744:	4543      	cmp	r3, r8
 8007746:	d1d6      	bne.n	80076f6 <tcp_output+0x42>
 8007748:	6f23      	ldr	r3, [r4, #112]	; 0x70
 800774a:	2b00      	cmp	r3, #0
 800774c:	d1d3      	bne.n	80076f6 <tcp_output+0x42>
 800774e:	f894 3099 	ldrb.w	r3, [r4, #153]	; 0x99
 8007752:	2b00      	cmp	r3, #0
 8007754:	d1cf      	bne.n	80076f6 <tcp_output+0x42>
 8007756:	f44f 7280 	mov.w	r2, #256	; 0x100
 800775a:	f884 309a 	strb.w	r3, [r4, #154]	; 0x9a
 800775e:	f8a4 2098 	strh.w	r2, [r4, #152]	; 0x98
 8007762:	e7c8      	b.n	80076f6 <tcp_output+0x42>
 8007764:	4648      	mov	r0, r9
 8007766:	f001 fa3b 	bl	8008be0 <ip4_route>
 800776a:	e7d4      	b.n	8007716 <tcp_output+0x62>
 800776c:	2300      	movs	r3, #0
 800776e:	6f26      	ldr	r6, [r4, #112]	; 0x70
 8007770:	f884 3099 	strb.w	r3, [r4, #153]	; 0x99
 8007774:	b126      	cbz	r6, 8007780 <tcp_output+0xcc>
 8007776:	4633      	mov	r3, r6
 8007778:	6836      	ldr	r6, [r6, #0]
 800777a:	2e00      	cmp	r6, #0
 800777c:	d1fb      	bne.n	8007776 <tcp_output+0xc2>
 800777e:	461e      	mov	r6, r3
 8007780:	f8df a178 	ldr.w	sl, [pc, #376]	; 80078fc <tcp_output+0x248>
 8007784:	f8df b17c 	ldr.w	fp, [pc, #380]	; 8007904 <tcp_output+0x250>
 8007788:	e0de      	b.n	8007948 <tcp_output+0x294>
 800778a:	7d23      	ldrb	r3, [r4, #20]
 800778c:	2b02      	cmp	r3, #2
 800778e:	d009      	beq.n	80077a4 <tcp_output+0xf0>
 8007790:	68eb      	ldr	r3, [r5, #12]
 8007792:	2010      	movs	r0, #16
 8007794:	899b      	ldrh	r3, [r3, #12]
 8007796:	9304      	str	r3, [sp, #16]
 8007798:	f7fc f9c0 	bl	8003b1c <lwip_htons>
 800779c:	9b04      	ldr	r3, [sp, #16]
 800779e:	68ea      	ldr	r2, [r5, #12]
 80077a0:	4318      	orrs	r0, r3
 80077a2:	8190      	strh	r0, [r2, #12]
 80077a4:	4628      	mov	r0, r5
 80077a6:	f7ff fb8d 	bl	8006ec4 <tcp_output_segment_busy>
 80077aa:	2800      	cmp	r0, #0
 80077ac:	d170      	bne.n	8007890 <tcp_output+0x1dc>
 80077ae:	68eb      	ldr	r3, [r5, #12]
 80077b0:	6a60      	ldr	r0, [r4, #36]	; 0x24
 80077b2:	9304      	str	r3, [sp, #16]
 80077b4:	f7fc f9b5 	bl	8003b22 <lwip_htonl>
 80077b8:	9b04      	ldr	r3, [sp, #16]
 80077ba:	6098      	str	r0, [r3, #8]
 80077bc:	68eb      	ldr	r3, [r5, #12]
 80077be:	8d60      	ldrh	r0, [r4, #42]	; 0x2a
 80077c0:	9304      	str	r3, [sp, #16]
 80077c2:	f7fc f9ab 	bl	8003b1c <lwip_htons>
 80077c6:	9b04      	ldr	r3, [sp, #16]
 80077c8:	8d62      	ldrh	r2, [r4, #42]	; 0x2a
 80077ca:	81d8      	strh	r0, [r3, #14]
 80077cc:	6a63      	ldr	r3, [r4, #36]	; 0x24
 80077ce:	4413      	add	r3, r2
 80077d0:	62e3      	str	r3, [r4, #44]	; 0x2c
 80077d2:	7aaa      	ldrb	r2, [r5, #10]
 80077d4:	68eb      	ldr	r3, [r5, #12]
 80077d6:	07d2      	lsls	r2, r2, #31
 80077d8:	d44a      	bmi.n	8007870 <tcp_output+0x1bc>
 80077da:	f103 0214 	add.w	r2, r3, #20
 80077de:	f9b4 3030 	ldrsh.w	r3, [r4, #48]	; 0x30
 80077e2:	2b00      	cmp	r3, #0
 80077e4:	bfbc      	itt	lt
 80077e6:	2300      	movlt	r3, #0
 80077e8:	8623      	strhlt	r3, [r4, #48]	; 0x30
 80077ea:	6b63      	ldr	r3, [r4, #52]	; 0x34
 80077ec:	b94b      	cbnz	r3, 8007802 <tcp_output+0x14e>
 80077ee:	4948      	ldr	r1, [pc, #288]	; (8007910 <tcp_output+0x25c>)
 80077f0:	68eb      	ldr	r3, [r5, #12]
 80077f2:	6809      	ldr	r1, [r1, #0]
 80077f4:	9204      	str	r2, [sp, #16]
 80077f6:	6361      	str	r1, [r4, #52]	; 0x34
 80077f8:	6858      	ldr	r0, [r3, #4]
 80077fa:	f7fc f992 	bl	8003b22 <lwip_htonl>
 80077fe:	9a04      	ldr	r2, [sp, #16]
 8007800:	63a0      	str	r0, [r4, #56]	; 0x38
 8007802:	6869      	ldr	r1, [r5, #4]
 8007804:	68eb      	ldr	r3, [r5, #12]
 8007806:	6848      	ldr	r0, [r1, #4]
 8007808:	f8b1 c00a 	ldrh.w	ip, [r1, #10]
 800780c:	1a18      	subs	r0, r3, r0
 800780e:	604b      	str	r3, [r1, #4]
 8007810:	b280      	uxth	r0, r0
 8007812:	ebac 0c00 	sub.w	ip, ip, r0
 8007816:	f8a1 c00a 	strh.w	ip, [r1, #10]
 800781a:	f8b1 c008 	ldrh.w	ip, [r1, #8]
 800781e:	ebac 0000 	sub.w	r0, ip, r0
 8007822:	8108      	strh	r0, [r1, #8]
 8007824:	2100      	movs	r1, #0
 8007826:	7419      	strb	r1, [r3, #16]
 8007828:	7459      	strb	r1, [r3, #17]
 800782a:	7aa9      	ldrb	r1, [r5, #10]
 800782c:	f011 0f01 	tst.w	r1, #1
 8007830:	bf14      	ite	ne
 8007832:	2118      	movne	r1, #24
 8007834:	2114      	moveq	r1, #20
 8007836:	440b      	add	r3, r1
 8007838:	429a      	cmp	r2, r3
 800783a:	d006      	beq.n	800784a <tcp_output+0x196>
 800783c:	4653      	mov	r3, sl
 800783e:	f240 621c 	movw	r2, #1564	; 0x61c
 8007842:	4934      	ldr	r1, [pc, #208]	; (8007914 <tcp_output+0x260>)
 8007844:	4658      	mov	r0, fp
 8007846:	f002 f93d 	bl	8009ac4 <iprintf>
 800784a:	2306      	movs	r3, #6
 800784c:	9702      	str	r7, [sp, #8]
 800784e:	464a      	mov	r2, r9
 8007850:	4621      	mov	r1, r4
 8007852:	9301      	str	r3, [sp, #4]
 8007854:	7aa3      	ldrb	r3, [r4, #10]
 8007856:	9300      	str	r3, [sp, #0]
 8007858:	7ae3      	ldrb	r3, [r4, #11]
 800785a:	6868      	ldr	r0, [r5, #4]
 800785c:	f001 fb1e 	bl	8008e9c <ip4_output_if>
 8007860:	b1b0      	cbz	r0, 8007890 <tcp_output+0x1dc>
 8007862:	8b63      	ldrh	r3, [r4, #26]
 8007864:	f043 0380 	orr.w	r3, r3, #128	; 0x80
 8007868:	8363      	strh	r3, [r4, #26]
 800786a:	b007      	add	sp, #28
 800786c:	e8bd 8ff0 	ldmia.w	sp!, {r4, r5, r6, r7, r8, r9, sl, fp, pc}
 8007870:	464a      	mov	r2, r9
 8007872:	4639      	mov	r1, r7
 8007874:	f44f 7006 	mov.w	r0, #536	; 0x218
 8007878:	9304      	str	r3, [sp, #16]
 800787a:	f7fd fa4f 	bl	8004d1c <tcp_eff_send_mss_netif>
 800787e:	f040 7001 	orr.w	r0, r0, #33816576	; 0x2040000
 8007882:	f7fc f94e 	bl	8003b22 <lwip_htonl>
 8007886:	9b04      	ldr	r3, [sp, #16]
 8007888:	f103 0218 	add.w	r2, r3, #24
 800788c:	6158      	str	r0, [r3, #20]
 800788e:	e7a6      	b.n	80077de <tcp_output+0x12a>
 8007890:	682b      	ldr	r3, [r5, #0]
 8007892:	66e3      	str	r3, [r4, #108]	; 0x6c
 8007894:	7d23      	ldrb	r3, [r4, #20]
 8007896:	2b02      	cmp	r3, #2
 8007898:	bf1e      	ittt	ne
 800789a:	8b63      	ldrhne	r3, [r4, #26]
 800789c:	f023 0303 	bicne.w	r3, r3, #3
 80078a0:	8363      	strhne	r3, [r4, #26]
 80078a2:	68eb      	ldr	r3, [r5, #12]
 80078a4:	6858      	ldr	r0, [r3, #4]
 80078a6:	f7fc f93c 	bl	8003b22 <lwip_htonl>
 80078aa:	8929      	ldrh	r1, [r5, #8]
 80078ac:	68eb      	ldr	r3, [r5, #12]
 80078ae:	9104      	str	r1, [sp, #16]
 80078b0:	9005      	str	r0, [sp, #20]
 80078b2:	8998      	ldrh	r0, [r3, #12]
 80078b4:	f7fc f932 	bl	8003b1c <lwip_htons>
 80078b8:	f010 0303 	ands.w	r3, r0, #3
 80078bc:	e9dd 1204 	ldrd	r1, r2, [sp, #16]
 80078c0:	bf18      	it	ne
 80078c2:	2301      	movne	r3, #1
 80078c4:	440a      	add	r2, r1
 80078c6:	441a      	add	r2, r3
 80078c8:	6d23      	ldr	r3, [r4, #80]	; 0x50
 80078ca:	1a9b      	subs	r3, r3, r2
 80078cc:	2b00      	cmp	r3, #0
 80078ce:	892b      	ldrh	r3, [r5, #8]
 80078d0:	bfb8      	it	lt
 80078d2:	6522      	strlt	r2, [r4, #80]	; 0x50
 80078d4:	68ea      	ldr	r2, [r5, #12]
 80078d6:	9304      	str	r3, [sp, #16]
 80078d8:	8990      	ldrh	r0, [r2, #12]
 80078da:	f7fc f91f 	bl	8003b1c <lwip_htons>
 80078de:	f010 0003 	ands.w	r0, r0, #3
 80078e2:	9b04      	ldr	r3, [sp, #16]
 80078e4:	bf18      	it	ne
 80078e6:	2001      	movne	r0, #1
 80078e8:	42d8      	cmn	r0, r3
 80078ea:	f000 8084 	beq.w	80079f6 <tcp_output+0x342>
 80078ee:	2300      	movs	r3, #0
 80078f0:	602b      	str	r3, [r5, #0]
 80078f2:	6f23      	ldr	r3, [r4, #112]	; 0x70
 80078f4:	b983      	cbnz	r3, 8007918 <tcp_output+0x264>
 80078f6:	6725      	str	r5, [r4, #112]	; 0x70
 80078f8:	462e      	mov	r6, r5
 80078fa:	e022      	b.n	8007942 <tcp_output+0x28e>
 80078fc:	0800ceba 	.word	0x0800ceba
 8007900:	0800d248 	.word	0x0800d248
 8007904:	0800be06 	.word	0x0800be06
 8007908:	0800d260 	.word	0x0800d260
 800790c:	2000aa60 	.word	0x2000aa60
 8007910:	2000aa2c 	.word	0x2000aa2c
 8007914:	0800d29d 	.word	0x0800d29d
 8007918:	68eb      	ldr	r3, [r5, #12]
 800791a:	6858      	ldr	r0, [r3, #4]
 800791c:	f7fc f901 	bl	8003b22 <lwip_htonl>
 8007920:	68f2      	ldr	r2, [r6, #12]
 8007922:	9004      	str	r0, [sp, #16]
 8007924:	6850      	ldr	r0, [r2, #4]
 8007926:	f7fc f8fc 	bl	8003b22 <lwip_htonl>
 800792a:	9b04      	ldr	r3, [sp, #16]
 800792c:	1a18      	subs	r0, r3, r0
 800792e:	2800      	cmp	r0, #0
 8007930:	da5f      	bge.n	80079f2 <tcp_output+0x33e>
 8007932:	f104 0370 	add.w	r3, r4, #112	; 0x70
 8007936:	681a      	ldr	r2, [r3, #0]
 8007938:	2a00      	cmp	r2, #0
 800793a:	d149      	bne.n	80079d0 <tcp_output+0x31c>
 800793c:	681a      	ldr	r2, [r3, #0]
 800793e:	602a      	str	r2, [r5, #0]
 8007940:	601d      	str	r5, [r3, #0]
 8007942:	6ee5      	ldr	r5, [r4, #108]	; 0x6c
 8007944:	2d00      	cmp	r5, #0
 8007946:	d03a      	beq.n	80079be <tcp_output+0x30a>
 8007948:	68eb      	ldr	r3, [r5, #12]
 800794a:	6858      	ldr	r0, [r3, #4]
 800794c:	f7fc f8e9 	bl	8003b22 <lwip_htonl>
 8007950:	6c63      	ldr	r3, [r4, #68]	; 0x44
 8007952:	1ac0      	subs	r0, r0, r3
 8007954:	892b      	ldrh	r3, [r5, #8]
 8007956:	4418      	add	r0, r3
 8007958:	4540      	cmp	r0, r8
 800795a:	d82e      	bhi.n	80079ba <tcp_output+0x306>
 800795c:	68eb      	ldr	r3, [r5, #12]
 800795e:	8998      	ldrh	r0, [r3, #12]
 8007960:	f7fc f8dc 	bl	8003b1c <lwip_htons>
 8007964:	0741      	lsls	r1, r0, #29
 8007966:	d506      	bpl.n	8007976 <tcp_output+0x2c2>
 8007968:	4653      	mov	r3, sl
 800796a:	f240 5236 	movw	r2, #1334	; 0x536
 800796e:	4925      	ldr	r1, [pc, #148]	; (8007a04 <tcp_output+0x350>)
 8007970:	4658      	mov	r0, fp
 8007972:	f002 f8a7 	bl	8009ac4 <iprintf>
 8007976:	6f23      	ldr	r3, [r4, #112]	; 0x70
 8007978:	2b00      	cmp	r3, #0
 800797a:	f43f af06 	beq.w	800778a <tcp_output+0xd6>
 800797e:	8b62      	ldrh	r2, [r4, #26]
 8007980:	f012 0f44 	tst.w	r2, #68	; 0x44
 8007984:	f47f af01 	bne.w	800778a <tcp_output+0xd6>
 8007988:	6ee3      	ldr	r3, [r4, #108]	; 0x6c
 800798a:	b143      	cbz	r3, 800799e <tcp_output+0x2ea>
 800798c:	6819      	ldr	r1, [r3, #0]
 800798e:	2900      	cmp	r1, #0
 8007990:	f47f aefb 	bne.w	800778a <tcp_output+0xd6>
 8007994:	8919      	ldrh	r1, [r3, #8]
 8007996:	8e63      	ldrh	r3, [r4, #50]	; 0x32
 8007998:	4299      	cmp	r1, r3
 800799a:	f4bf aef6 	bcs.w	800778a <tcp_output+0xd6>
 800799e:	f8b4 3064 	ldrh.w	r3, [r4, #100]	; 0x64
 80079a2:	2b00      	cmp	r3, #0
 80079a4:	f43f aef1 	beq.w	800778a <tcp_output+0xd6>
 80079a8:	f8b4 3066 	ldrh.w	r3, [r4, #102]	; 0x66
 80079ac:	2b08      	cmp	r3, #8
 80079ae:	f63f aeec 	bhi.w	800778a <tcp_output+0xd6>
 80079b2:	f012 0fa0 	tst.w	r2, #160	; 0xa0
 80079b6:	f47f aee8 	bne.w	800778a <tcp_output+0xd6>
 80079ba:	6ee3      	ldr	r3, [r4, #108]	; 0x6c
 80079bc:	b913      	cbnz	r3, 80079c4 <tcp_output+0x310>
 80079be:	2300      	movs	r3, #0
 80079c0:	f8a4 3068 	strh.w	r3, [r4, #104]	; 0x68
 80079c4:	8b63      	ldrh	r3, [r4, #26]
 80079c6:	f023 0380 	bic.w	r3, r3, #128	; 0x80
 80079ca:	8363      	strh	r3, [r4, #26]
 80079cc:	2000      	movs	r0, #0
 80079ce:	e74c      	b.n	800786a <tcp_output+0x1b6>
 80079d0:	68d2      	ldr	r2, [r2, #12]
 80079d2:	9305      	str	r3, [sp, #20]
 80079d4:	6850      	ldr	r0, [r2, #4]
 80079d6:	f7fc f8a4 	bl	8003b22 <lwip_htonl>
 80079da:	68e9      	ldr	r1, [r5, #12]
 80079dc:	9004      	str	r0, [sp, #16]
 80079de:	6848      	ldr	r0, [r1, #4]
 80079e0:	f7fc f89f 	bl	8003b22 <lwip_htonl>
 80079e4:	9a04      	ldr	r2, [sp, #16]
 80079e6:	9b05      	ldr	r3, [sp, #20]
 80079e8:	1a10      	subs	r0, r2, r0
 80079ea:	2800      	cmp	r0, #0
 80079ec:	daa6      	bge.n	800793c <tcp_output+0x288>
 80079ee:	681b      	ldr	r3, [r3, #0]
 80079f0:	e7a1      	b.n	8007936 <tcp_output+0x282>
 80079f2:	6035      	str	r5, [r6, #0]
 80079f4:	e780      	b.n	80078f8 <tcp_output+0x244>
 80079f6:	4628      	mov	r0, r5
 80079f8:	f7fd f93c 	bl	8004c74 <tcp_seg_free>
 80079fc:	e7a1      	b.n	8007942 <tcp_output+0x28e>
 80079fe:	f06f 0003 	mvn.w	r0, #3
 8007a02:	e732      	b.n	800786a <tcp_output+0x1b6>
 8007a04:	0800d286 	.word	0x0800d286

08007a08 <tcp_rexmit_rto_commit>:
 8007a08:	b510      	push	{r4, lr}
 8007a0a:	4604      	mov	r4, r0
 8007a0c:	b930      	cbnz	r0, 8007a1c <tcp_rexmit_rto_commit+0x14>
 8007a0e:	4b09      	ldr	r3, [pc, #36]	; (8007a34 <tcp_rexmit_rto_commit+0x2c>)
 8007a10:	f44f 62d3 	mov.w	r2, #1688	; 0x698
 8007a14:	4908      	ldr	r1, [pc, #32]	; (8007a38 <tcp_rexmit_rto_commit+0x30>)
 8007a16:	4809      	ldr	r0, [pc, #36]	; (8007a3c <tcp_rexmit_rto_commit+0x34>)
 8007a18:	f002 f854 	bl	8009ac4 <iprintf>
 8007a1c:	f894 3042 	ldrb.w	r3, [r4, #66]	; 0x42
 8007a20:	4620      	mov	r0, r4
 8007a22:	2bff      	cmp	r3, #255	; 0xff
 8007a24:	bf1c      	itt	ne
 8007a26:	3301      	addne	r3, #1
 8007a28:	f884 3042 	strbne.w	r3, [r4, #66]	; 0x42
 8007a2c:	e8bd 4010 	ldmia.w	sp!, {r4, lr}
 8007a30:	f7ff be40 	b.w	80076b4 <tcp_output>
 8007a34:	0800ceba 	.word	0x0800ceba
 8007a38:	0800d2b0 	.word	0x0800d2b0
 8007a3c:	0800be06 	.word	0x0800be06

08007a40 <tcp_rexmit_rto>:
 8007a40:	b510      	push	{r4, lr}
 8007a42:	4604      	mov	r4, r0
 8007a44:	b930      	cbnz	r0, 8007a54 <tcp_rexmit_rto+0x14>
 8007a46:	4b08      	ldr	r3, [pc, #32]	; (8007a68 <tcp_rexmit_rto+0x28>)
 8007a48:	f240 62ad 	movw	r2, #1709	; 0x6ad
 8007a4c:	4907      	ldr	r1, [pc, #28]	; (8007a6c <tcp_rexmit_rto+0x2c>)
 8007a4e:	4808      	ldr	r0, [pc, #32]	; (8007a70 <tcp_rexmit_rto+0x30>)
 8007a50:	f002 f838 	bl	8009ac4 <iprintf>
 8007a54:	4620      	mov	r0, r4
 8007a56:	f7ff fcfd 	bl	8007454 <tcp_rexmit_rto_prepare>
 8007a5a:	b920      	cbnz	r0, 8007a66 <tcp_rexmit_rto+0x26>
 8007a5c:	4620      	mov	r0, r4
 8007a5e:	e8bd 4010 	ldmia.w	sp!, {r4, lr}
 8007a62:	f7ff bfd1 	b.w	8007a08 <tcp_rexmit_rto_commit>
 8007a66:	bd10      	pop	{r4, pc}
 8007a68:	0800ceba 	.word	0x0800ceba
 8007a6c:	0800d2d3 	.word	0x0800d2d3
 8007a70:	0800be06 	.word	0x0800be06

08007a74 <tcp_keepalive>:
 8007a74:	b570      	push	{r4, r5, r6, lr}
 8007a76:	4604      	mov	r4, r0
 8007a78:	b930      	cbnz	r0, 8007a88 <tcp_keepalive+0x14>
 8007a7a:	4b0f      	ldr	r3, [pc, #60]	; (8007ab8 <tcp_keepalive+0x44>)
 8007a7c:	f640 0224 	movw	r2, #2084	; 0x824
 8007a80:	490e      	ldr	r1, [pc, #56]	; (8007abc <tcp_keepalive+0x48>)
 8007a82:	480f      	ldr	r0, [pc, #60]	; (8007ac0 <tcp_keepalive+0x4c>)
 8007a84:	f002 f81e 	bl	8009ac4 <iprintf>
 8007a88:	6d20      	ldr	r0, [r4, #80]	; 0x50
 8007a8a:	3801      	subs	r0, #1
 8007a8c:	f7fc f849 	bl	8003b22 <lwip_htonl>
 8007a90:	2100      	movs	r1, #0
 8007a92:	4602      	mov	r2, r0
 8007a94:	4620      	mov	r0, r4
 8007a96:	f7ff fadf 	bl	8007058 <tcp_output_alloc_header.constprop.0>
 8007a9a:	4605      	mov	r5, r0
 8007a9c:	b148      	cbz	r0, 8007ab2 <tcp_keepalive+0x3e>
 8007a9e:	f7ff fb01 	bl	80070a4 <tcp_output_fill_options.constprop.0>
 8007aa2:	1d23      	adds	r3, r4, #4
 8007aa4:	4622      	mov	r2, r4
 8007aa6:	4629      	mov	r1, r5
 8007aa8:	4620      	mov	r0, r4
 8007aaa:	e8bd 4070 	ldmia.w	sp!, {r4, r5, r6, lr}
 8007aae:	f7ff bb09 	b.w	80070c4 <tcp_output_control_segment>
 8007ab2:	f04f 30ff 	mov.w	r0, #4294967295
 8007ab6:	bd70      	pop	{r4, r5, r6, pc}
 8007ab8:	0800ceba 	.word	0x0800ceba
 8007abc:	0800d2ef 	.word	0x0800d2ef
 8007ac0:	0800be06 	.word	0x0800be06

08007ac4 <tcp_zero_window_probe>:
 8007ac4:	e92d 41f0 	stmdb	sp!, {r4, r5, r6, r7, r8, lr}
 8007ac8:	4606      	mov	r6, r0
 8007aca:	b930      	cbnz	r0, 8007ada <tcp_zero_window_probe+0x16>
 8007acc:	4b2c      	ldr	r3, [pc, #176]	; (8007b80 <tcp_zero_window_probe+0xbc>)
 8007ace:	f640 024f 	movw	r2, #2127	; 0x84f
 8007ad2:	492c      	ldr	r1, [pc, #176]	; (8007b84 <tcp_zero_window_probe+0xc0>)
 8007ad4:	482c      	ldr	r0, [pc, #176]	; (8007b88 <tcp_zero_window_probe+0xc4>)
 8007ad6:	f001 fff5 	bl	8009ac4 <iprintf>
 8007ada:	6ef5      	ldr	r5, [r6, #108]	; 0x6c
 8007adc:	2d00      	cmp	r5, #0
 8007ade:	d048      	beq.n	8007b72 <tcp_zero_window_probe+0xae>
 8007ae0:	f896 309a 	ldrb.w	r3, [r6, #154]	; 0x9a
 8007ae4:	2bff      	cmp	r3, #255	; 0xff
 8007ae6:	bf1c      	itt	ne
 8007ae8:	3301      	addne	r3, #1
 8007aea:	f886 309a 	strbne.w	r3, [r6, #154]	; 0x9a
 8007aee:	68eb      	ldr	r3, [r5, #12]
 8007af0:	8998      	ldrh	r0, [r3, #12]
 8007af2:	f7fc f813 	bl	8003b1c <lwip_htons>
 8007af6:	f010 0401 	ands.w	r4, r0, #1
 8007afa:	68eb      	ldr	r3, [r5, #12]
 8007afc:	4630      	mov	r0, r6
 8007afe:	bf18      	it	ne
 8007b00:	892c      	ldrhne	r4, [r5, #8]
 8007b02:	685a      	ldr	r2, [r3, #4]
 8007b04:	bf1c      	itt	ne
 8007b06:	fab4 f484 	clzne	r4, r4
 8007b0a:	0964      	lsrne	r4, r4, #5
 8007b0c:	f084 0101 	eor.w	r1, r4, #1
 8007b10:	f7ff faa2 	bl	8007058 <tcp_output_alloc_header.constprop.0>
 8007b14:	4607      	mov	r7, r0
 8007b16:	b378      	cbz	r0, 8007b78 <tcp_zero_window_probe+0xb4>
 8007b18:	f8d0 8004 	ldr.w	r8, [r0, #4]
 8007b1c:	b1f4      	cbz	r4, 8007b5c <tcp_zero_window_probe+0x98>
 8007b1e:	f9b8 400c 	ldrsh.w	r4, [r8, #12]
 8007b22:	2011      	movs	r0, #17
 8007b24:	f7fb fffa 	bl	8003b1c <lwip_htons>
 8007b28:	f424 547c 	bic.w	r4, r4, #16128	; 0x3f00
 8007b2c:	4320      	orrs	r0, r4
 8007b2e:	f8a8 000c 	strh.w	r0, [r8, #12]
 8007b32:	68eb      	ldr	r3, [r5, #12]
 8007b34:	6858      	ldr	r0, [r3, #4]
 8007b36:	f7fb fff4 	bl	8003b22 <lwip_htonl>
 8007b3a:	6d33      	ldr	r3, [r6, #80]	; 0x50
 8007b3c:	3001      	adds	r0, #1
 8007b3e:	1a1b      	subs	r3, r3, r0
 8007b40:	2b00      	cmp	r3, #0
 8007b42:	bfb8      	it	lt
 8007b44:	6530      	strlt	r0, [r6, #80]	; 0x50
 8007b46:	4638      	mov	r0, r7
 8007b48:	f7ff faac 	bl	80070a4 <tcp_output_fill_options.constprop.0>
 8007b4c:	1d33      	adds	r3, r6, #4
 8007b4e:	4632      	mov	r2, r6
 8007b50:	4639      	mov	r1, r7
 8007b52:	4630      	mov	r0, r6
 8007b54:	e8bd 41f0 	ldmia.w	sp!, {r4, r5, r6, r7, r8, lr}
 8007b58:	f7ff bab4 	b.w	80070c4 <tcp_output_control_segment>
 8007b5c:	6868      	ldr	r0, [r5, #4]
 8007b5e:	f108 0114 	add.w	r1, r8, #20
 8007b62:	892a      	ldrh	r2, [r5, #8]
 8007b64:	8903      	ldrh	r3, [r0, #8]
 8007b66:	1a9b      	subs	r3, r3, r2
 8007b68:	2201      	movs	r2, #1
 8007b6a:	b29b      	uxth	r3, r3
 8007b6c:	f7fc ff3e 	bl	80049ec <pbuf_copy_partial>
 8007b70:	e7df      	b.n	8007b32 <tcp_zero_window_probe+0x6e>
 8007b72:	4628      	mov	r0, r5
 8007b74:	e8bd 81f0 	ldmia.w	sp!, {r4, r5, r6, r7, r8, pc}
 8007b78:	f04f 30ff 	mov.w	r0, #4294967295
 8007b7c:	e7fa      	b.n	8007b74 <tcp_zero_window_probe+0xb0>
 8007b7e:	bf00      	nop
 8007b80:	0800ceba 	.word	0x0800ceba
 8007b84:	0800d30a 	.word	0x0800d30a
 8007b88:	0800be06 	.word	0x0800be06

08007b8c <sys_timeout_abs>:
 8007b8c:	b570      	push	{r4, r5, r6, lr}
 8007b8e:	4604      	mov	r4, r0
 8007b90:	2006      	movs	r0, #6
 8007b92:	460e      	mov	r6, r1
 8007b94:	4615      	mov	r5, r2
 8007b96:	f7fc fa5d 	bl	8004054 <memp_malloc>
 8007b9a:	b938      	cbnz	r0, 8007bac <sys_timeout_abs+0x20>
 8007b9c:	4b10      	ldr	r3, [pc, #64]	; (8007be0 <sys_timeout_abs+0x54>)
 8007b9e:	22be      	movs	r2, #190	; 0xbe
 8007ba0:	4910      	ldr	r1, [pc, #64]	; (8007be4 <sys_timeout_abs+0x58>)
 8007ba2:	4811      	ldr	r0, [pc, #68]	; (8007be8 <sys_timeout_abs+0x5c>)
 8007ba4:	e8bd 4070 	ldmia.w	sp!, {r4, r5, r6, lr}
 8007ba8:	f001 bf8c 	b.w	8009ac4 <iprintf>
 8007bac:	2300      	movs	r3, #0
 8007bae:	4a0f      	ldr	r2, [pc, #60]	; (8007bec <sys_timeout_abs+0x60>)
 8007bb0:	6044      	str	r4, [r0, #4]
 8007bb2:	6003      	str	r3, [r0, #0]
 8007bb4:	6813      	ldr	r3, [r2, #0]
 8007bb6:	e9c0 6502 	strd	r6, r5, [r0, #8]
 8007bba:	b90b      	cbnz	r3, 8007bc0 <sys_timeout_abs+0x34>
 8007bbc:	6010      	str	r0, [r2, #0]
 8007bbe:	bd70      	pop	{r4, r5, r6, pc}
 8007bc0:	6859      	ldr	r1, [r3, #4]
 8007bc2:	1a61      	subs	r1, r4, r1
 8007bc4:	2900      	cmp	r1, #0
 8007bc6:	da01      	bge.n	8007bcc <sys_timeout_abs+0x40>
 8007bc8:	6003      	str	r3, [r0, #0]
 8007bca:	e7f7      	b.n	8007bbc <sys_timeout_abs+0x30>
 8007bcc:	4619      	mov	r1, r3
 8007bce:	681b      	ldr	r3, [r3, #0]
 8007bd0:	b11b      	cbz	r3, 8007bda <sys_timeout_abs+0x4e>
 8007bd2:	685a      	ldr	r2, [r3, #4]
 8007bd4:	1aa2      	subs	r2, r4, r2
 8007bd6:	2a00      	cmp	r2, #0
 8007bd8:	daf8      	bge.n	8007bcc <sys_timeout_abs+0x40>
 8007bda:	6003      	str	r3, [r0, #0]
 8007bdc:	6008      	str	r0, [r1, #0]
 8007bde:	e7ee      	b.n	8007bbe <sys_timeout_abs+0x32>
 8007be0:	0800d32d 	.word	0x0800d32d
 8007be4:	0800d361 	.word	0x0800d361
 8007be8:	0800be06 	.word	0x0800be06
 8007bec:	2000aa7c 	.word	0x2000aa7c

08007bf0 <lwip_cyclic_timer>:
 8007bf0:	b538      	push	{r3, r4, r5, lr}
 8007bf2:	6843      	ldr	r3, [r0, #4]
 8007bf4:	4604      	mov	r4, r0
 8007bf6:	4798      	blx	r3
 8007bf8:	f7fb fc90 	bl	800351c <sys_now>
 8007bfc:	4b07      	ldr	r3, [pc, #28]	; (8007c1c <lwip_cyclic_timer+0x2c>)
 8007bfe:	6825      	ldr	r5, [r4, #0]
 8007c00:	681b      	ldr	r3, [r3, #0]
 8007c02:	4907      	ldr	r1, [pc, #28]	; (8007c20 <lwip_cyclic_timer+0x30>)
 8007c04:	442b      	add	r3, r5
 8007c06:	1a1a      	subs	r2, r3, r0
 8007c08:	2a00      	cmp	r2, #0
 8007c0a:	4622      	mov	r2, r4
 8007c0c:	bfb4      	ite	lt
 8007c0e:	1940      	addlt	r0, r0, r5
 8007c10:	4618      	movge	r0, r3
 8007c12:	e8bd 4038 	ldmia.w	sp!, {r3, r4, r5, lr}
 8007c16:	f7ff bfb9 	b.w	8007b8c <sys_timeout_abs>
 8007c1a:	bf00      	nop
 8007c1c:	2000aa78 	.word	0x2000aa78
 8007c20:	08007bf1 	.word	0x08007bf1

08007c24 <sys_timeout>:
 8007c24:	f1b0 4f80 	cmp.w	r0, #1073741824	; 0x40000000
 8007c28:	b570      	push	{r4, r5, r6, lr}
 8007c2a:	4604      	mov	r4, r0
 8007c2c:	460d      	mov	r5, r1
 8007c2e:	4616      	mov	r6, r2
 8007c30:	d306      	bcc.n	8007c40 <sys_timeout+0x1c>
 8007c32:	4b08      	ldr	r3, [pc, #32]	; (8007c54 <sys_timeout+0x30>)
 8007c34:	f240 1229 	movw	r2, #297	; 0x129
 8007c38:	4907      	ldr	r1, [pc, #28]	; (8007c58 <sys_timeout+0x34>)
 8007c3a:	4808      	ldr	r0, [pc, #32]	; (8007c5c <sys_timeout+0x38>)
 8007c3c:	f001 ff42 	bl	8009ac4 <iprintf>
 8007c40:	f7fb fc6c 	bl	800351c <sys_now>
 8007c44:	4632      	mov	r2, r6
 8007c46:	4629      	mov	r1, r5
 8007c48:	4420      	add	r0, r4
 8007c4a:	e8bd 4070 	ldmia.w	sp!, {r4, r5, r6, lr}
 8007c4e:	f7ff bf9d 	b.w	8007b8c <sys_timeout_abs>
 8007c52:	bf00      	nop
 8007c54:	0800d32d 	.word	0x0800d32d
 8007c58:	0800d39e 	.word	0x0800d39e
 8007c5c:	0800be06 	.word	0x0800be06

08007c60 <tcp_timer_needed>:
 8007c60:	4b08      	ldr	r3, [pc, #32]	; (8007c84 <tcp_timer_needed+0x24>)
 8007c62:	681a      	ldr	r2, [r3, #0]
 8007c64:	b962      	cbnz	r2, 8007c80 <tcp_timer_needed+0x20>
 8007c66:	4a08      	ldr	r2, [pc, #32]	; (8007c88 <tcp_timer_needed+0x28>)
 8007c68:	6812      	ldr	r2, [r2, #0]
 8007c6a:	b912      	cbnz	r2, 8007c72 <tcp_timer_needed+0x12>
 8007c6c:	4a07      	ldr	r2, [pc, #28]	; (8007c8c <tcp_timer_needed+0x2c>)
 8007c6e:	6812      	ldr	r2, [r2, #0]
 8007c70:	b132      	cbz	r2, 8007c80 <tcp_timer_needed+0x20>
 8007c72:	2201      	movs	r2, #1
 8007c74:	4906      	ldr	r1, [pc, #24]	; (8007c90 <tcp_timer_needed+0x30>)
 8007c76:	20fa      	movs	r0, #250	; 0xfa
 8007c78:	601a      	str	r2, [r3, #0]
 8007c7a:	2200      	movs	r2, #0
 8007c7c:	f7ff bfd2 	b.w	8007c24 <sys_timeout>
 8007c80:	4770      	bx	lr
 8007c82:	bf00      	nop
 8007c84:	2000aa80 	.word	0x2000aa80
 8007c88:	2000aa1c 	.word	0x2000aa1c
 8007c8c:	2000aa34 	.word	0x2000aa34
 8007c90:	08007c95 	.word	0x08007c95

08007c94 <tcpip_tcp_timer>:
 8007c94:	b508      	push	{r3, lr}
 8007c96:	f7fd fe13 	bl	80058c0 <tcp_tmr>
 8007c9a:	4b08      	ldr	r3, [pc, #32]	; (8007cbc <tcpip_tcp_timer+0x28>)
 8007c9c:	681b      	ldr	r3, [r3, #0]
 8007c9e:	b913      	cbnz	r3, 8007ca6 <tcpip_tcp_timer+0x12>
 8007ca0:	4b07      	ldr	r3, [pc, #28]	; (8007cc0 <tcpip_tcp_timer+0x2c>)
 8007ca2:	681b      	ldr	r3, [r3, #0]
 8007ca4:	b133      	cbz	r3, 8007cb4 <tcpip_tcp_timer+0x20>
 8007ca6:	2200      	movs	r2, #0
 8007ca8:	4906      	ldr	r1, [pc, #24]	; (8007cc4 <tcpip_tcp_timer+0x30>)
 8007caa:	20fa      	movs	r0, #250	; 0xfa
 8007cac:	e8bd 4008 	ldmia.w	sp!, {r3, lr}
 8007cb0:	f7ff bfb8 	b.w	8007c24 <sys_timeout>
 8007cb4:	4a04      	ldr	r2, [pc, #16]	; (8007cc8 <tcpip_tcp_timer+0x34>)
 8007cb6:	6013      	str	r3, [r2, #0]
 8007cb8:	bd08      	pop	{r3, pc}
 8007cba:	bf00      	nop
 8007cbc:	2000aa1c 	.word	0x2000aa1c
 8007cc0:	2000aa34 	.word	0x2000aa34
 8007cc4:	08007c95 	.word	0x08007c95
 8007cc8:	2000aa80 	.word	0x2000aa80

08007ccc <sys_timeouts_init>:
 8007ccc:	b510      	push	{r4, lr}
 8007cce:	4c08      	ldr	r4, [pc, #32]	; (8007cf0 <sys_timeouts_init+0x24>)
 8007cd0:	f44f 707a 	mov.w	r0, #1000	; 0x3e8
 8007cd4:	4907      	ldr	r1, [pc, #28]	; (8007cf4 <sys_timeouts_init+0x28>)
 8007cd6:	f104 0208 	add.w	r2, r4, #8
 8007cda:	f7ff ffa3 	bl	8007c24 <sys_timeout>
 8007cde:	f104 0210 	add.w	r2, r4, #16
 8007ce2:	4904      	ldr	r1, [pc, #16]	; (8007cf4 <sys_timeouts_init+0x28>)
 8007ce4:	f44f 707a 	mov.w	r0, #1000	; 0x3e8
 8007ce8:	e8bd 4010 	ldmia.w	sp!, {r4, lr}
 8007cec:	f7ff bf9a 	b.w	8007c24 <sys_timeout>
 8007cf0:	0800d3d4 	.word	0x0800d3d4
 8007cf4:	08007bf1 	.word	0x08007bf1

08007cf8 <sys_untimeout>:
 8007cf8:	b470      	push	{r4, r5, r6}
 8007cfa:	4d0d      	ldr	r5, [pc, #52]	; (8007d30 <sys_untimeout+0x38>)
 8007cfc:	682b      	ldr	r3, [r5, #0]
 8007cfe:	b1ab      	cbz	r3, 8007d2c <sys_untimeout+0x34>
 8007d00:	2400      	movs	r4, #0
 8007d02:	689a      	ldr	r2, [r3, #8]
 8007d04:	4282      	cmp	r2, r0
 8007d06:	681a      	ldr	r2, [r3, #0]
 8007d08:	d10d      	bne.n	8007d26 <sys_untimeout+0x2e>
 8007d0a:	68de      	ldr	r6, [r3, #12]
 8007d0c:	428e      	cmp	r6, r1
 8007d0e:	d10a      	bne.n	8007d26 <sys_untimeout+0x2e>
 8007d10:	b93c      	cbnz	r4, 8007d22 <sys_untimeout+0x2a>
 8007d12:	602a      	str	r2, [r5, #0]
 8007d14:	4619      	mov	r1, r3
 8007d16:	2006      	movs	r0, #6
 8007d18:	bc70      	pop	{r4, r5, r6}
 8007d1a:	f7fc b9cb 	b.w	80040b4 <memp_free>
 8007d1e:	4613      	mov	r3, r2
 8007d20:	e7ef      	b.n	8007d02 <sys_untimeout+0xa>
 8007d22:	6022      	str	r2, [r4, #0]
 8007d24:	e7f6      	b.n	8007d14 <sys_untimeout+0x1c>
 8007d26:	461c      	mov	r4, r3
 8007d28:	2a00      	cmp	r2, #0
 8007d2a:	d1f8      	bne.n	8007d1e <sys_untimeout+0x26>
 8007d2c:	bc70      	pop	{r4, r5, r6}
 8007d2e:	4770      	bx	lr
 8007d30:	2000aa7c 	.word	0x2000aa7c

08007d34 <sys_check_timeouts>:
 8007d34:	e92d 43f8 	stmdb	sp!, {r3, r4, r5, r6, r7, r8, r9, lr}
 8007d38:	f7fb fbf0 	bl	800351c <sys_now>
 8007d3c:	f8df 8044 	ldr.w	r8, [pc, #68]	; 8007d84 <sys_check_timeouts+0x50>
 8007d40:	4604      	mov	r4, r0
 8007d42:	f8df 9044 	ldr.w	r9, [pc, #68]	; 8007d88 <sys_check_timeouts+0x54>
 8007d46:	4e0e      	ldr	r6, [pc, #56]	; (8007d80 <sys_check_timeouts+0x4c>)
 8007d48:	f898 3000 	ldrb.w	r3, [r8]
 8007d4c:	b10b      	cbz	r3, 8007d52 <sys_check_timeouts+0x1e>
 8007d4e:	f7fc fba7 	bl	80044a0 <pbuf_free_ooseq>
 8007d52:	6831      	ldr	r1, [r6, #0]
 8007d54:	b189      	cbz	r1, 8007d7a <sys_check_timeouts+0x46>
 8007d56:	684b      	ldr	r3, [r1, #4]
 8007d58:	1ae2      	subs	r2, r4, r3
 8007d5a:	2a00      	cmp	r2, #0
 8007d5c:	db0d      	blt.n	8007d7a <sys_check_timeouts+0x46>
 8007d5e:	680a      	ldr	r2, [r1, #0]
 8007d60:	2006      	movs	r0, #6
 8007d62:	f8c9 3000 	str.w	r3, [r9]
 8007d66:	6032      	str	r2, [r6, #0]
 8007d68:	e9d1 5702 	ldrd	r5, r7, [r1, #8]
 8007d6c:	f7fc f9a2 	bl	80040b4 <memp_free>
 8007d70:	2d00      	cmp	r5, #0
 8007d72:	d0e9      	beq.n	8007d48 <sys_check_timeouts+0x14>
 8007d74:	4638      	mov	r0, r7
 8007d76:	47a8      	blx	r5
 8007d78:	e7e5      	b.n	8007d46 <sys_check_timeouts+0x12>
 8007d7a:	e8bd 83f8 	ldmia.w	sp!, {r3, r4, r5, r6, r7, r8, r9, pc}
 8007d7e:	bf00      	nop
 8007d80:	2000aa7c 	.word	0x2000aa7c
 8007d84:	2000aa19 	.word	0x2000aa19
 8007d88:	2000aa78 	.word	0x2000aa78

08007d8c <udp_init>:
 8007d8c:	b508      	push	{r3, lr}
 8007d8e:	f001 fd15 	bl	80097bc <rand>
 8007d92:	ea6f 4080 	mvn.w	r0, r0, lsl #18
 8007d96:	4b02      	ldr	r3, [pc, #8]	; (8007da0 <udp_init+0x14>)
 8007d98:	ea6f 4090 	mvn.w	r0, r0, lsr #18
 8007d9c:	8018      	strh	r0, [r3, #0]
 8007d9e:	bd08      	pop	{r3, pc}
 8007da0:	2000002a 	.word	0x2000002a

08007da4 <udp_input>:
 8007da4:	e92d 4ff0 	stmdb	sp!, {r4, r5, r6, r7, r8, r9, sl, fp, lr}
 8007da8:	4688      	mov	r8, r1
 8007daa:	b085      	sub	sp, #20
 8007dac:	4606      	mov	r6, r0
 8007dae:	b928      	cbnz	r0, 8007dbc <udp_input+0x18>
 8007db0:	4b5f      	ldr	r3, [pc, #380]	; (8007f30 <udp_input+0x18c>)
 8007db2:	22cf      	movs	r2, #207	; 0xcf
 8007db4:	495f      	ldr	r1, [pc, #380]	; (8007f34 <udp_input+0x190>)
 8007db6:	4860      	ldr	r0, [pc, #384]	; (8007f38 <udp_input+0x194>)
 8007db8:	f001 fe84 	bl	8009ac4 <iprintf>
 8007dbc:	f1b8 0f00 	cmp.w	r8, #0
 8007dc0:	d105      	bne.n	8007dce <udp_input+0x2a>
 8007dc2:	4b5b      	ldr	r3, [pc, #364]	; (8007f30 <udp_input+0x18c>)
 8007dc4:	22d0      	movs	r2, #208	; 0xd0
 8007dc6:	495d      	ldr	r1, [pc, #372]	; (8007f3c <udp_input+0x198>)
 8007dc8:	485b      	ldr	r0, [pc, #364]	; (8007f38 <udp_input+0x194>)
 8007dca:	f001 fe7b 	bl	8009ac4 <iprintf>
 8007dce:	8973      	ldrh	r3, [r6, #10]
 8007dd0:	2b07      	cmp	r3, #7
 8007dd2:	d805      	bhi.n	8007de0 <udp_input+0x3c>
 8007dd4:	4630      	mov	r0, r6
 8007dd6:	b005      	add	sp, #20
 8007dd8:	e8bd 4ff0 	ldmia.w	sp!, {r4, r5, r6, r7, r8, r9, sl, fp, lr}
 8007ddc:	f7fc bbe8 	b.w	80045b0 <pbuf_free>
 8007de0:	4f57      	ldr	r7, [pc, #348]	; (8007f40 <udp_input+0x19c>)
 8007de2:	2500      	movs	r5, #0
 8007de4:	6874      	ldr	r4, [r6, #4]
 8007de6:	6839      	ldr	r1, [r7, #0]
 8007de8:	46aa      	mov	sl, r5
 8007dea:	6978      	ldr	r0, [r7, #20]
 8007dec:	f001 f867 	bl	8008ebe <ip4_addr_isbroadcast_u32>
 8007df0:	f8df b15c 	ldr.w	fp, [pc, #348]	; 8007f50 <udp_input+0x1ac>
 8007df4:	4681      	mov	r9, r0
 8007df6:	8820      	ldrh	r0, [r4, #0]
 8007df8:	f7fb fe90 	bl	8003b1c <lwip_htons>
 8007dfc:	9002      	str	r0, [sp, #8]
 8007dfe:	8860      	ldrh	r0, [r4, #2]
 8007e00:	f7fb fe8c 	bl	8003b1c <lwip_htons>
 8007e04:	f8db 4000 	ldr.w	r4, [fp]
 8007e08:	f8df c124 	ldr.w	ip, [pc, #292]	; 8007f30 <udp_input+0x18c>
 8007e0c:	494d      	ldr	r1, [pc, #308]	; (8007f44 <udp_input+0x1a0>)
 8007e0e:	9003      	str	r0, [sp, #12]
 8007e10:	b99c      	cbnz	r4, 8007e3a <udp_input+0x96>
 8007e12:	b925      	cbnz	r5, 8007e1e <udp_input+0x7a>
 8007e14:	f8d8 2004 	ldr.w	r2, [r8, #4]
 8007e18:	697b      	ldr	r3, [r7, #20]
 8007e1a:	429a      	cmp	r2, r3
 8007e1c:	d1da      	bne.n	8007dd4 <udp_input+0x30>
 8007e1e:	2108      	movs	r1, #8
 8007e20:	4630      	mov	r0, r6
 8007e22:	f7fc fb91 	bl	8004548 <pbuf_remove_header>
 8007e26:	2800      	cmp	r0, #0
 8007e28:	d05e      	beq.n	8007ee8 <udp_input+0x144>
 8007e2a:	4b41      	ldr	r3, [pc, #260]	; (8007f30 <udp_input+0x18c>)
 8007e2c:	f44f 72b8 	mov.w	r2, #368	; 0x170
 8007e30:	4945      	ldr	r1, [pc, #276]	; (8007f48 <udp_input+0x1a4>)
 8007e32:	4841      	ldr	r0, [pc, #260]	; (8007f38 <udp_input+0x194>)
 8007e34:	f001 fe46 	bl	8009ac4 <iprintf>
 8007e38:	e7cc      	b.n	8007dd4 <udp_input+0x30>
 8007e3a:	8a62      	ldrh	r2, [r4, #18]
 8007e3c:	9803      	ldr	r0, [sp, #12]
 8007e3e:	4282      	cmp	r2, r0
 8007e40:	d14d      	bne.n	8007ede <udp_input+0x13a>
 8007e42:	f1b8 0f00 	cmp.w	r8, #0
 8007e46:	d107      	bne.n	8007e58 <udp_input+0xb4>
 8007e48:	4663      	mov	r3, ip
 8007e4a:	2288      	movs	r2, #136	; 0x88
 8007e4c:	483a      	ldr	r0, [pc, #232]	; (8007f38 <udp_input+0x194>)
 8007e4e:	f001 fe39 	bl	8009ac4 <iprintf>
 8007e52:	f8df c0dc 	ldr.w	ip, [pc, #220]	; 8007f30 <udp_input+0x18c>
 8007e56:	493b      	ldr	r1, [pc, #236]	; (8007f44 <udp_input+0x1a0>)
 8007e58:	7a20      	ldrb	r0, [r4, #8]
 8007e5a:	b130      	cbz	r0, 8007e6a <udp_input+0xc6>
 8007e5c:	687a      	ldr	r2, [r7, #4]
 8007e5e:	f892 2030 	ldrb.w	r2, [r2, #48]	; 0x30
 8007e62:	3201      	adds	r2, #1
 8007e64:	b2d2      	uxtb	r2, r2
 8007e66:	4290      	cmp	r0, r2
 8007e68:	d139      	bne.n	8007ede <udp_input+0x13a>
 8007e6a:	6822      	ldr	r2, [r4, #0]
 8007e6c:	f1b9 0f00 	cmp.w	r9, #0
 8007e70:	d030      	beq.n	8007ed4 <udp_input+0x130>
 8007e72:	b13a      	cbz	r2, 8007e84 <udp_input+0xe0>
 8007e74:	6978      	ldr	r0, [r7, #20]
 8007e76:	1c43      	adds	r3, r0, #1
 8007e78:	d004      	beq.n	8007e84 <udp_input+0xe0>
 8007e7a:	4050      	eors	r0, r2
 8007e7c:	f8d8 3008 	ldr.w	r3, [r8, #8]
 8007e80:	4218      	tst	r0, r3
 8007e82:	d12c      	bne.n	8007ede <udp_input+0x13a>
 8007e84:	7c20      	ldrb	r0, [r4, #16]
 8007e86:	0743      	lsls	r3, r0, #29
 8007e88:	d40e      	bmi.n	8007ea8 <udp_input+0x104>
 8007e8a:	b35d      	cbz	r5, 8007ee4 <udp_input+0x140>
 8007e8c:	f1b9 0f00 	cmp.w	r9, #0
 8007e90:	d00a      	beq.n	8007ea8 <udp_input+0x104>
 8007e92:	6978      	ldr	r0, [r7, #20]
 8007e94:	3001      	adds	r0, #1
 8007e96:	d107      	bne.n	8007ea8 <udp_input+0x104>
 8007e98:	f8d8 0004 	ldr.w	r0, [r8, #4]
 8007e9c:	682b      	ldr	r3, [r5, #0]
 8007e9e:	4283      	cmp	r3, r0
 8007ea0:	d002      	beq.n	8007ea8 <udp_input+0x104>
 8007ea2:	4290      	cmp	r0, r2
 8007ea4:	bf08      	it	eq
 8007ea6:	4625      	moveq	r5, r4
 8007ea8:	8aa2      	ldrh	r2, [r4, #20]
 8007eaa:	9b02      	ldr	r3, [sp, #8]
 8007eac:	429a      	cmp	r2, r3
 8007eae:	d116      	bne.n	8007ede <udp_input+0x13a>
 8007eb0:	6862      	ldr	r2, [r4, #4]
 8007eb2:	b112      	cbz	r2, 8007eba <udp_input+0x116>
 8007eb4:	6938      	ldr	r0, [r7, #16]
 8007eb6:	4282      	cmp	r2, r0
 8007eb8:	d111      	bne.n	8007ede <udp_input+0x13a>
 8007eba:	f1ba 0f00 	cmp.w	sl, #0
 8007ebe:	d007      	beq.n	8007ed0 <udp_input+0x12c>
 8007ec0:	68e3      	ldr	r3, [r4, #12]
 8007ec2:	f8ca 300c 	str.w	r3, [sl, #12]
 8007ec6:	f8db 3000 	ldr.w	r3, [fp]
 8007eca:	f8cb 4000 	str.w	r4, [fp]
 8007ece:	60e3      	str	r3, [r4, #12]
 8007ed0:	4625      	mov	r5, r4
 8007ed2:	e7a4      	b.n	8007e1e <udp_input+0x7a>
 8007ed4:	2a00      	cmp	r2, #0
 8007ed6:	d0d5      	beq.n	8007e84 <udp_input+0xe0>
 8007ed8:	6978      	ldr	r0, [r7, #20]
 8007eda:	4290      	cmp	r0, r2
 8007edc:	d0d2      	beq.n	8007e84 <udp_input+0xe0>
 8007ede:	46a2      	mov	sl, r4
 8007ee0:	68e4      	ldr	r4, [r4, #12]
 8007ee2:	e795      	b.n	8007e10 <udp_input+0x6c>
 8007ee4:	4625      	mov	r5, r4
 8007ee6:	e7df      	b.n	8007ea8 <udp_input+0x104>
 8007ee8:	b16d      	cbz	r5, 8007f06 <udp_input+0x162>
 8007eea:	69ac      	ldr	r4, [r5, #24]
 8007eec:	2c00      	cmp	r4, #0
 8007eee:	f43f af71 	beq.w	8007dd4 <udp_input+0x30>
 8007ef2:	9b02      	ldr	r3, [sp, #8]
 8007ef4:	4632      	mov	r2, r6
 8007ef6:	4629      	mov	r1, r5
 8007ef8:	9300      	str	r3, [sp, #0]
 8007efa:	4b14      	ldr	r3, [pc, #80]	; (8007f4c <udp_input+0x1a8>)
 8007efc:	69e8      	ldr	r0, [r5, #28]
 8007efe:	47a0      	blx	r4
 8007f00:	b005      	add	sp, #20
 8007f02:	e8bd 8ff0 	ldmia.w	sp!, {r4, r5, r6, r7, r8, r9, sl, fp, pc}
 8007f06:	f1b9 0f00 	cmp.w	r9, #0
 8007f0a:	f47f af63 	bne.w	8007dd4 <udp_input+0x30>
 8007f0e:	697b      	ldr	r3, [r7, #20]
 8007f10:	f003 03f0 	and.w	r3, r3, #240	; 0xf0
 8007f14:	2be0      	cmp	r3, #224	; 0xe0
 8007f16:	f43f af5d 	beq.w	8007dd4 <udp_input+0x30>
 8007f1a:	89b9      	ldrh	r1, [r7, #12]
 8007f1c:	4630      	mov	r0, r6
 8007f1e:	3108      	adds	r1, #8
 8007f20:	b209      	sxth	r1, r1
 8007f22:	f7fc fb3d 	bl	80045a0 <pbuf_header_force>
 8007f26:	2103      	movs	r1, #3
 8007f28:	4630      	mov	r0, r6
 8007f2a:	f000 fe37 	bl	8008b9c <icmp_dest_unreach>
 8007f2e:	e751      	b.n	8007dd4 <udp_input+0x30>
 8007f30:	0800d3ec 	.word	0x0800d3ec
 8007f34:	0800d41b 	.word	0x0800d41b
 8007f38:	0800be06 	.word	0x0800be06
 8007f3c:	0800d433 	.word	0x0800d433
 8007f40:	200052f4 	.word	0x200052f4
 8007f44:	0800d44c 	.word	0x0800d44c
 8007f48:	0800d471 	.word	0x0800d471
 8007f4c:	20005304 	.word	0x20005304
 8007f50:	2000aa84 	.word	0x2000aa84

08007f54 <udp_bind>:
 8007f54:	e92d 41f0 	stmdb	sp!, {r4, r5, r6, r7, r8, lr}
 8007f58:	4d28      	ldr	r5, [pc, #160]	; (8007ffc <udp_bind+0xa8>)
 8007f5a:	2900      	cmp	r1, #0
 8007f5c:	bf18      	it	ne
 8007f5e:	460d      	movne	r5, r1
 8007f60:	b950      	cbnz	r0, 8007f78 <udp_bind+0x24>
 8007f62:	4b27      	ldr	r3, [pc, #156]	; (8008000 <udp_bind+0xac>)
 8007f64:	f240 32b7 	movw	r2, #951	; 0x3b7
 8007f68:	4926      	ldr	r1, [pc, #152]	; (8008004 <udp_bind+0xb0>)
 8007f6a:	4827      	ldr	r0, [pc, #156]	; (8008008 <udp_bind+0xb4>)
 8007f6c:	f001 fdaa 	bl	8009ac4 <iprintf>
 8007f70:	f06f 000f 	mvn.w	r0, #15
 8007f74:	e8bd 81f0 	ldmia.w	sp!, {r4, r5, r6, r7, r8, pc}
 8007f78:	f8df c094 	ldr.w	ip, [pc, #148]	; 8008010 <udp_bind+0xbc>
 8007f7c:	f8dc 4000 	ldr.w	r4, [ip]
 8007f80:	4621      	mov	r1, r4
 8007f82:	b979      	cbnz	r1, 8007fa4 <udp_bind+0x50>
 8007f84:	b1a2      	cbz	r2, 8007fb0 <udp_bind+0x5c>
 8007f86:	682e      	ldr	r6, [r5, #0]
 8007f88:	4623      	mov	r3, r4
 8007f8a:	b303      	cbz	r3, 8007fce <udp_bind+0x7a>
 8007f8c:	4283      	cmp	r3, r0
 8007f8e:	d007      	beq.n	8007fa0 <udp_bind+0x4c>
 8007f90:	8a5f      	ldrh	r7, [r3, #18]
 8007f92:	4297      	cmp	r7, r2
 8007f94:	d104      	bne.n	8007fa0 <udp_bind+0x4c>
 8007f96:	681f      	ldr	r7, [r3, #0]
 8007f98:	42b7      	cmp	r7, r6
 8007f9a:	d02a      	beq.n	8007ff2 <udp_bind+0x9e>
 8007f9c:	b34e      	cbz	r6, 8007ff2 <udp_bind+0x9e>
 8007f9e:	b347      	cbz	r7, 8007ff2 <udp_bind+0x9e>
 8007fa0:	68db      	ldr	r3, [r3, #12]
 8007fa2:	e7f2      	b.n	8007f8a <udp_bind+0x36>
 8007fa4:	4281      	cmp	r1, r0
 8007fa6:	d001      	beq.n	8007fac <udp_bind+0x58>
 8007fa8:	68c9      	ldr	r1, [r1, #12]
 8007faa:	e7ea      	b.n	8007f82 <udp_bind+0x2e>
 8007fac:	2101      	movs	r1, #1
 8007fae:	e7e9      	b.n	8007f84 <udp_bind+0x30>
 8007fb0:	4f16      	ldr	r7, [pc, #88]	; (800800c <udp_bind+0xb8>)
 8007fb2:	f44f 4380 	mov.w	r3, #16384	; 0x4000
 8007fb6:	f64f 7eff 	movw	lr, #65535	; 0xffff
 8007fba:	883a      	ldrh	r2, [r7, #0]
 8007fbc:	4572      	cmp	r2, lr
 8007fbe:	4626      	mov	r6, r4
 8007fc0:	bf16      	itet	ne
 8007fc2:	3201      	addne	r2, #1
 8007fc4:	f44f 4240 	moveq.w	r2, #49152	; 0xc000
 8007fc8:	b292      	uxthne	r2, r2
 8007fca:	b94e      	cbnz	r6, 8007fe0 <udp_bind+0x8c>
 8007fcc:	803a      	strh	r2, [r7, #0]
 8007fce:	682b      	ldr	r3, [r5, #0]
 8007fd0:	8242      	strh	r2, [r0, #18]
 8007fd2:	6003      	str	r3, [r0, #0]
 8007fd4:	b911      	cbnz	r1, 8007fdc <udp_bind+0x88>
 8007fd6:	60c4      	str	r4, [r0, #12]
 8007fd8:	f8cc 0000 	str.w	r0, [ip]
 8007fdc:	2000      	movs	r0, #0
 8007fde:	e7c9      	b.n	8007f74 <udp_bind+0x20>
 8007fe0:	f8b6 8012 	ldrh.w	r8, [r6, #18]
 8007fe4:	4590      	cmp	r8, r2
 8007fe6:	d107      	bne.n	8007ff8 <udp_bind+0xa4>
 8007fe8:	3b01      	subs	r3, #1
 8007fea:	b29b      	uxth	r3, r3
 8007fec:	2b00      	cmp	r3, #0
 8007fee:	d1e5      	bne.n	8007fbc <udp_bind+0x68>
 8007ff0:	803a      	strh	r2, [r7, #0]
 8007ff2:	f06f 0007 	mvn.w	r0, #7
 8007ff6:	e7bd      	b.n	8007f74 <udp_bind+0x20>
 8007ff8:	68f6      	ldr	r6, [r6, #12]
 8007ffa:	e7e6      	b.n	8007fca <udp_bind+0x76>
 8007ffc:	0800d904 	.word	0x0800d904
 8008000:	0800d3ec 	.word	0x0800d3ec
 8008004:	0800d48c 	.word	0x0800d48c
 8008008:	0800be06 	.word	0x0800be06
 800800c:	2000002a 	.word	0x2000002a
 8008010:	2000aa84 	.word	0x2000aa84

08008014 <udp_sendto_if_src>:
 8008014:	e92d 4ff0 	stmdb	sp!, {r4, r5, r6, r7, r8, r9, sl, fp, lr}
 8008018:	b085      	sub	sp, #20
 800801a:	460e      	mov	r6, r1
 800801c:	4690      	mov	r8, r2
 800801e:	4699      	mov	r9, r3
 8008020:	4607      	mov	r7, r0
 8008022:	e9dd ba0e 	ldrd	fp, sl, [sp, #56]	; 0x38
 8008026:	b960      	cbnz	r0, 8008042 <udp_sendto_if_src+0x2e>
 8008028:	4b3e      	ldr	r3, [pc, #248]	; (8008124 <udp_sendto_if_src+0x110>)
 800802a:	f240 22d1 	movw	r2, #721	; 0x2d1
 800802e:	493e      	ldr	r1, [pc, #248]	; (8008128 <udp_sendto_if_src+0x114>)
 8008030:	f06f 040f 	mvn.w	r4, #15
 8008034:	483d      	ldr	r0, [pc, #244]	; (800812c <udp_sendto_if_src+0x118>)
 8008036:	f001 fd45 	bl	8009ac4 <iprintf>
 800803a:	4620      	mov	r0, r4
 800803c:	b005      	add	sp, #20
 800803e:	e8bd 8ff0 	ldmia.w	sp!, {r4, r5, r6, r7, r8, r9, sl, fp, pc}
 8008042:	b921      	cbnz	r1, 800804e <udp_sendto_if_src+0x3a>
 8008044:	4b37      	ldr	r3, [pc, #220]	; (8008124 <udp_sendto_if_src+0x110>)
 8008046:	f240 22d2 	movw	r2, #722	; 0x2d2
 800804a:	4939      	ldr	r1, [pc, #228]	; (8008130 <udp_sendto_if_src+0x11c>)
 800804c:	e7f0      	b.n	8008030 <udp_sendto_if_src+0x1c>
 800804e:	b922      	cbnz	r2, 800805a <udp_sendto_if_src+0x46>
 8008050:	4b34      	ldr	r3, [pc, #208]	; (8008124 <udp_sendto_if_src+0x110>)
 8008052:	f240 22d3 	movw	r2, #723	; 0x2d3
 8008056:	4937      	ldr	r1, [pc, #220]	; (8008134 <udp_sendto_if_src+0x120>)
 8008058:	e7ea      	b.n	8008030 <udp_sendto_if_src+0x1c>
 800805a:	f1ba 0f00 	cmp.w	sl, #0
 800805e:	d104      	bne.n	800806a <udp_sendto_if_src+0x56>
 8008060:	4b30      	ldr	r3, [pc, #192]	; (8008124 <udp_sendto_if_src+0x110>)
 8008062:	f44f 7235 	mov.w	r2, #724	; 0x2d4
 8008066:	4934      	ldr	r1, [pc, #208]	; (8008138 <udp_sendto_if_src+0x124>)
 8008068:	e7e2      	b.n	8008030 <udp_sendto_if_src+0x1c>
 800806a:	f1bb 0f00 	cmp.w	fp, #0
 800806e:	d104      	bne.n	800807a <udp_sendto_if_src+0x66>
 8008070:	4b2c      	ldr	r3, [pc, #176]	; (8008124 <udp_sendto_if_src+0x110>)
 8008072:	f240 22d5 	movw	r2, #725	; 0x2d5
 8008076:	4931      	ldr	r1, [pc, #196]	; (800813c <udp_sendto_if_src+0x128>)
 8008078:	e7da      	b.n	8008030 <udp_sendto_if_src+0x1c>
 800807a:	8a42      	ldrh	r2, [r0, #18]
 800807c:	b13a      	cbz	r2, 800808e <udp_sendto_if_src+0x7a>
 800807e:	8932      	ldrh	r2, [r6, #8]
 8008080:	f64f 73f7 	movw	r3, #65527	; 0xfff7
 8008084:	429a      	cmp	r2, r3
 8008086:	d909      	bls.n	800809c <udp_sendto_if_src+0x88>
 8008088:	f04f 34ff 	mov.w	r4, #4294967295
 800808c:	e7d5      	b.n	800803a <udp_sendto_if_src+0x26>
 800808e:	4601      	mov	r1, r0
 8008090:	f7ff ff60 	bl	8007f54 <udp_bind>
 8008094:	4604      	mov	r4, r0
 8008096:	2800      	cmp	r0, #0
 8008098:	d0f1      	beq.n	800807e <udp_sendto_if_src+0x6a>
 800809a:	e7ce      	b.n	800803a <udp_sendto_if_src+0x26>
 800809c:	2108      	movs	r1, #8
 800809e:	4630      	mov	r0, r6
 80080a0:	f7fc fa4e 	bl	8004540 <pbuf_add_header>
 80080a4:	2800      	cmp	r0, #0
 80080a6:	d03a      	beq.n	800811e <udp_sendto_if_src+0x10a>
 80080a8:	f44f 7220 	mov.w	r2, #640	; 0x280
 80080ac:	2108      	movs	r1, #8
 80080ae:	2022      	movs	r0, #34	; 0x22
 80080b0:	f7fc fae2 	bl	8004678 <pbuf_alloc>
 80080b4:	4605      	mov	r5, r0
 80080b6:	2800      	cmp	r0, #0
 80080b8:	d0e6      	beq.n	8008088 <udp_sendto_if_src+0x74>
 80080ba:	8933      	ldrh	r3, [r6, #8]
 80080bc:	b113      	cbz	r3, 80080c4 <udp_sendto_if_src+0xb0>
 80080be:	4631      	mov	r1, r6
 80080c0:	f7fc fc08 	bl	80048d4 <pbuf_chain>
 80080c4:	896b      	ldrh	r3, [r5, #10]
 80080c6:	2b07      	cmp	r3, #7
 80080c8:	d806      	bhi.n	80080d8 <udp_sendto_if_src+0xc4>
 80080ca:	4b16      	ldr	r3, [pc, #88]	; (8008124 <udp_sendto_if_src+0x110>)
 80080cc:	f240 320d 	movw	r2, #781	; 0x30d
 80080d0:	491b      	ldr	r1, [pc, #108]	; (8008140 <udp_sendto_if_src+0x12c>)
 80080d2:	4816      	ldr	r0, [pc, #88]	; (800812c <udp_sendto_if_src+0x118>)
 80080d4:	f001 fcf6 	bl	8009ac4 <iprintf>
 80080d8:	686c      	ldr	r4, [r5, #4]
 80080da:	8a78      	ldrh	r0, [r7, #18]
 80080dc:	f7fb fd1e 	bl	8003b1c <lwip_htons>
 80080e0:	8020      	strh	r0, [r4, #0]
 80080e2:	4648      	mov	r0, r9
 80080e4:	f7fb fd1a 	bl	8003b1c <lwip_htons>
 80080e8:	2300      	movs	r3, #0
 80080ea:	8060      	strh	r0, [r4, #2]
 80080ec:	71a3      	strb	r3, [r4, #6]
 80080ee:	71e3      	strb	r3, [r4, #7]
 80080f0:	8928      	ldrh	r0, [r5, #8]
 80080f2:	f7fb fd13 	bl	8003b1c <lwip_htons>
 80080f6:	2311      	movs	r3, #17
 80080f8:	80a0      	strh	r0, [r4, #4]
 80080fa:	4642      	mov	r2, r8
 80080fc:	f8cd b008 	str.w	fp, [sp, #8]
 8008100:	4651      	mov	r1, sl
 8008102:	9301      	str	r3, [sp, #4]
 8008104:	4628      	mov	r0, r5
 8008106:	7abb      	ldrb	r3, [r7, #10]
 8008108:	9300      	str	r3, [sp, #0]
 800810a:	7afb      	ldrb	r3, [r7, #11]
 800810c:	f000 fe4a 	bl	8008da4 <ip4_output_if_src>
 8008110:	42b5      	cmp	r5, r6
 8008112:	4604      	mov	r4, r0
 8008114:	d091      	beq.n	800803a <udp_sendto_if_src+0x26>
 8008116:	4628      	mov	r0, r5
 8008118:	f7fc fa4a 	bl	80045b0 <pbuf_free>
 800811c:	e78d      	b.n	800803a <udp_sendto_if_src+0x26>
 800811e:	4635      	mov	r5, r6
 8008120:	e7d0      	b.n	80080c4 <udp_sendto_if_src+0xb0>
 8008122:	bf00      	nop
 8008124:	0800d3ec 	.word	0x0800d3ec
 8008128:	0800d4a2 	.word	0x0800d4a2
 800812c:	0800be06 	.word	0x0800be06
 8008130:	0800d4c1 	.word	0x0800d4c1
 8008134:	0800d4e1 	.word	0x0800d4e1
 8008138:	0800d503 	.word	0x0800d503
 800813c:	0800d525 	.word	0x0800d525
 8008140:	0800d546 	.word	0x0800d546

08008144 <udp_sendto_if>:
 8008144:	b573      	push	{r0, r1, r4, r5, r6, lr}
 8008146:	9c06      	ldr	r4, [sp, #24]
 8008148:	b950      	cbnz	r0, 8008160 <udp_sendto_if+0x1c>
 800814a:	4b18      	ldr	r3, [pc, #96]	; (80081ac <udp_sendto_if+0x68>)
 800814c:	f44f 7220 	mov.w	r2, #640	; 0x280
 8008150:	4917      	ldr	r1, [pc, #92]	; (80081b0 <udp_sendto_if+0x6c>)
 8008152:	4818      	ldr	r0, [pc, #96]	; (80081b4 <udp_sendto_if+0x70>)
 8008154:	f001 fcb6 	bl	8009ac4 <iprintf>
 8008158:	f06f 000f 	mvn.w	r0, #15
 800815c:	b002      	add	sp, #8
 800815e:	bd70      	pop	{r4, r5, r6, pc}
 8008160:	b921      	cbnz	r1, 800816c <udp_sendto_if+0x28>
 8008162:	4b12      	ldr	r3, [pc, #72]	; (80081ac <udp_sendto_if+0x68>)
 8008164:	f240 2281 	movw	r2, #641	; 0x281
 8008168:	4913      	ldr	r1, [pc, #76]	; (80081b8 <udp_sendto_if+0x74>)
 800816a:	e7f2      	b.n	8008152 <udp_sendto_if+0xe>
 800816c:	b922      	cbnz	r2, 8008178 <udp_sendto_if+0x34>
 800816e:	4b0f      	ldr	r3, [pc, #60]	; (80081ac <udp_sendto_if+0x68>)
 8008170:	f240 2282 	movw	r2, #642	; 0x282
 8008174:	4911      	ldr	r1, [pc, #68]	; (80081bc <udp_sendto_if+0x78>)
 8008176:	e7ec      	b.n	8008152 <udp_sendto_if+0xe>
 8008178:	b924      	cbnz	r4, 8008184 <udp_sendto_if+0x40>
 800817a:	4b0c      	ldr	r3, [pc, #48]	; (80081ac <udp_sendto_if+0x68>)
 800817c:	f240 2283 	movw	r2, #643	; 0x283
 8008180:	490f      	ldr	r1, [pc, #60]	; (80081c0 <udp_sendto_if+0x7c>)
 8008182:	e7e6      	b.n	8008152 <udp_sendto_if+0xe>
 8008184:	6805      	ldr	r5, [r0, #0]
 8008186:	b11d      	cbz	r5, 8008190 <udp_sendto_if+0x4c>
 8008188:	f005 06f0 	and.w	r6, r5, #240	; 0xf0
 800818c:	2ee0      	cmp	r6, #224	; 0xe0
 800818e:	d105      	bne.n	800819c <udp_sendto_if+0x58>
 8008190:	1d25      	adds	r5, r4, #4
 8008192:	e9cd 4500 	strd	r4, r5, [sp]
 8008196:	f7ff ff3d 	bl	8008014 <udp_sendto_if_src>
 800819a:	e7df      	b.n	800815c <udp_sendto_if+0x18>
 800819c:	6866      	ldr	r6, [r4, #4]
 800819e:	42b5      	cmp	r5, r6
 80081a0:	d101      	bne.n	80081a6 <udp_sendto_if+0x62>
 80081a2:	4605      	mov	r5, r0
 80081a4:	e7f5      	b.n	8008192 <udp_sendto_if+0x4e>
 80081a6:	f06f 0003 	mvn.w	r0, #3
 80081aa:	e7d7      	b.n	800815c <udp_sendto_if+0x18>
 80081ac:	0800d3ec 	.word	0x0800d3ec
 80081b0:	0800d574 	.word	0x0800d574
 80081b4:	0800be06 	.word	0x0800be06
 80081b8:	0800d58f 	.word	0x0800d58f
 80081bc:	0800d5ab 	.word	0x0800d5ab
 80081c0:	0800d5c9 	.word	0x0800d5c9

080081c4 <udp_sendto>:
 80081c4:	b5f7      	push	{r0, r1, r2, r4, r5, r6, r7, lr}
 80081c6:	460e      	mov	r6, r1
 80081c8:	4615      	mov	r5, r2
 80081ca:	461f      	mov	r7, r3
 80081cc:	4604      	mov	r4, r0
 80081ce:	b950      	cbnz	r0, 80081e6 <udp_sendto+0x22>
 80081d0:	4b15      	ldr	r3, [pc, #84]	; (8008228 <udp_sendto+0x64>)
 80081d2:	f44f 7206 	mov.w	r2, #536	; 0x218
 80081d6:	4915      	ldr	r1, [pc, #84]	; (800822c <udp_sendto+0x68>)
 80081d8:	4815      	ldr	r0, [pc, #84]	; (8008230 <udp_sendto+0x6c>)
 80081da:	f001 fc73 	bl	8009ac4 <iprintf>
 80081de:	f06f 000f 	mvn.w	r0, #15
 80081e2:	b003      	add	sp, #12
 80081e4:	bdf0      	pop	{r4, r5, r6, r7, pc}
 80081e6:	b921      	cbnz	r1, 80081f2 <udp_sendto+0x2e>
 80081e8:	4b0f      	ldr	r3, [pc, #60]	; (8008228 <udp_sendto+0x64>)
 80081ea:	f240 2219 	movw	r2, #537	; 0x219
 80081ee:	4911      	ldr	r1, [pc, #68]	; (8008234 <udp_sendto+0x70>)
 80081f0:	e7f2      	b.n	80081d8 <udp_sendto+0x14>
 80081f2:	b922      	cbnz	r2, 80081fe <udp_sendto+0x3a>
 80081f4:	4b0c      	ldr	r3, [pc, #48]	; (8008228 <udp_sendto+0x64>)
 80081f6:	f240 221a 	movw	r2, #538	; 0x21a
 80081fa:	490f      	ldr	r1, [pc, #60]	; (8008238 <udp_sendto+0x74>)
 80081fc:	e7ec      	b.n	80081d8 <udp_sendto+0x14>
 80081fe:	7a00      	ldrb	r0, [r0, #8]
 8008200:	b150      	cbz	r0, 8008218 <udp_sendto+0x54>
 8008202:	f7fc f8ff 	bl	8004404 <netif_get_by_index>
 8008206:	b158      	cbz	r0, 8008220 <udp_sendto+0x5c>
 8008208:	9000      	str	r0, [sp, #0]
 800820a:	463b      	mov	r3, r7
 800820c:	462a      	mov	r2, r5
 800820e:	4631      	mov	r1, r6
 8008210:	4620      	mov	r0, r4
 8008212:	f7ff ff97 	bl	8008144 <udp_sendto_if>
 8008216:	e7e4      	b.n	80081e2 <udp_sendto+0x1e>
 8008218:	4610      	mov	r0, r2
 800821a:	f000 fce1 	bl	8008be0 <ip4_route>
 800821e:	e7f2      	b.n	8008206 <udp_sendto+0x42>
 8008220:	f06f 0003 	mvn.w	r0, #3
 8008224:	e7dd      	b.n	80081e2 <udp_sendto+0x1e>
 8008226:	bf00      	nop
 8008228:	0800d3ec 	.word	0x0800d3ec
 800822c:	0800d5e6 	.word	0x0800d5e6
 8008230:	0800be06 	.word	0x0800be06
 8008234:	0800d5fe 	.word	0x0800d5fe
 8008238:	0800d617 	.word	0x0800d617

0800823c <udp_recv>:
 800823c:	b930      	cbnz	r0, 800824c <udp_recv+0x10>
 800823e:	4b05      	ldr	r3, [pc, #20]	; (8008254 <udp_recv+0x18>)
 8008240:	f240 428a 	movw	r2, #1162	; 0x48a
 8008244:	4904      	ldr	r1, [pc, #16]	; (8008258 <udp_recv+0x1c>)
 8008246:	4805      	ldr	r0, [pc, #20]	; (800825c <udp_recv+0x20>)
 8008248:	f001 bc3c 	b.w	8009ac4 <iprintf>
 800824c:	e9c0 1206 	strd	r1, r2, [r0, #24]
 8008250:	4770      	bx	lr
 8008252:	bf00      	nop
 8008254:	0800d3ec 	.word	0x0800d3ec
 8008258:	0800d632 	.word	0x0800d632
 800825c:	0800be06 	.word	0x0800be06

08008260 <udp_new>:
 8008260:	b510      	push	{r4, lr}
 8008262:	2000      	movs	r0, #0
 8008264:	f7fb fef6 	bl	8004054 <memp_malloc>
 8008268:	4604      	mov	r4, r0
 800826a:	b128      	cbz	r0, 8008278 <udp_new+0x18>
 800826c:	2220      	movs	r2, #32
 800826e:	2100      	movs	r1, #0
 8008270:	f001 fc8f 	bl	8009b92 <memset>
 8008274:	23ff      	movs	r3, #255	; 0xff
 8008276:	72e3      	strb	r3, [r4, #11]
 8008278:	4620      	mov	r0, r4
 800827a:	bd10      	pop	{r4, pc}

0800827c <udp_new_ip_type>:
 800827c:	f7ff bff0 	b.w	8008260 <udp_new>

08008280 <udp_netif_ip_addr_changed>:
 8008280:	b510      	push	{r4, lr}
 8008282:	b138      	cbz	r0, 8008294 <udp_netif_ip_addr_changed+0x14>
 8008284:	6803      	ldr	r3, [r0, #0]
 8008286:	b12b      	cbz	r3, 8008294 <udp_netif_ip_addr_changed+0x14>
 8008288:	b121      	cbz	r1, 8008294 <udp_netif_ip_addr_changed+0x14>
 800828a:	680b      	ldr	r3, [r1, #0]
 800828c:	b113      	cbz	r3, 8008294 <udp_netif_ip_addr_changed+0x14>
 800828e:	4b06      	ldr	r3, [pc, #24]	; (80082a8 <udp_netif_ip_addr_changed+0x28>)
 8008290:	681b      	ldr	r3, [r3, #0]
 8008292:	b903      	cbnz	r3, 8008296 <udp_netif_ip_addr_changed+0x16>
 8008294:	bd10      	pop	{r4, pc}
 8008296:	681c      	ldr	r4, [r3, #0]
 8008298:	6802      	ldr	r2, [r0, #0]
 800829a:	4294      	cmp	r4, r2
 800829c:	bf04      	itt	eq
 800829e:	680a      	ldreq	r2, [r1, #0]
 80082a0:	601a      	streq	r2, [r3, #0]
 80082a2:	68db      	ldr	r3, [r3, #12]
 80082a4:	e7f5      	b.n	8008292 <udp_netif_ip_addr_changed+0x12>
 80082a6:	bf00      	nop
 80082a8:	2000aa84 	.word	0x2000aa84

080082ac <etharp_free_entry>:
 80082ac:	b570      	push	{r4, r5, r6, lr}
 80082ae:	2618      	movs	r6, #24
 80082b0:	4c07      	ldr	r4, [pc, #28]	; (80082d0 <etharp_free_entry+0x24>)
 80082b2:	4605      	mov	r5, r0
 80082b4:	4346      	muls	r6, r0
 80082b6:	59a0      	ldr	r0, [r4, r6]
 80082b8:	b118      	cbz	r0, 80082c2 <etharp_free_entry+0x16>
 80082ba:	f7fc f979 	bl	80045b0 <pbuf_free>
 80082be:	2300      	movs	r3, #0
 80082c0:	51a3      	str	r3, [r4, r6]
 80082c2:	2318      	movs	r3, #24
 80082c4:	fb03 4005 	mla	r0, r3, r5, r4
 80082c8:	2300      	movs	r3, #0
 80082ca:	7503      	strb	r3, [r0, #20]
 80082cc:	bd70      	pop	{r4, r5, r6, pc}
 80082ce:	bf00      	nop
 80082d0:	2000aa88 	.word	0x2000aa88

080082d4 <etharp_find_entry>:
 80082d4:	e92d 4ff7 	stmdb	sp!, {r0, r1, r2, r4, r5, r6, r7, r8, r9, sl, fp, lr}
 80082d8:	f04f 0c00 	mov.w	ip, #0
 80082dc:	f04f 0e0a 	mov.w	lr, #10
 80082e0:	4606      	mov	r6, r0
 80082e2:	4617      	mov	r7, r2
 80082e4:	4b40      	ldr	r3, [pc, #256]	; (80083e8 <etharp_find_entry+0x114>)
 80082e6:	46e1      	mov	r9, ip
 80082e8:	46e3      	mov	fp, ip
 80082ea:	4674      	mov	r4, lr
 80082ec:	4675      	mov	r5, lr
 80082ee:	46f0      	mov	r8, lr
 80082f0:	9101      	str	r1, [sp, #4]
 80082f2:	f8cd c000 	str.w	ip, [sp]
 80082f6:	2c0a      	cmp	r4, #10
 80082f8:	fa0f f08c 	sxth.w	r0, ip
 80082fc:	f893 a014 	ldrb.w	sl, [r3, #20]
 8008300:	d119      	bne.n	8008336 <etharp_find_entry+0x62>
 8008302:	f1ba 0f00 	cmp.w	sl, #0
 8008306:	d05f      	beq.n	80083c8 <etharp_find_entry+0xf4>
 8008308:	b146      	cbz	r6, 800831c <etharp_find_entry+0x48>
 800830a:	6831      	ldr	r1, [r6, #0]
 800830c:	685a      	ldr	r2, [r3, #4]
 800830e:	4291      	cmp	r1, r2
 8008310:	d104      	bne.n	800831c <etharp_find_entry+0x48>
 8008312:	2f00      	cmp	r7, #0
 8008314:	d04b      	beq.n	80083ae <etharp_find_entry+0xda>
 8008316:	6899      	ldr	r1, [r3, #8]
 8008318:	42b9      	cmp	r1, r7
 800831a:	d048      	beq.n	80083ae <etharp_find_entry+0xda>
 800831c:	f1ba 0f01 	cmp.w	sl, #1
 8008320:	8a59      	ldrh	r1, [r3, #18]
 8008322:	d14c      	bne.n	80083be <etharp_find_entry+0xea>
 8008324:	681a      	ldr	r2, [r3, #0]
 8008326:	2a00      	cmp	r2, #0
 8008328:	d044      	beq.n	80083b4 <etharp_find_entry+0xe0>
 800832a:	9a00      	ldr	r2, [sp, #0]
 800832c:	4291      	cmp	r1, r2
 800832e:	d305      	bcc.n	800833c <etharp_find_entry+0x68>
 8008330:	4686      	mov	lr, r0
 8008332:	9100      	str	r1, [sp, #0]
 8008334:	e002      	b.n	800833c <etharp_find_entry+0x68>
 8008336:	f1ba 0f00 	cmp.w	sl, #0
 800833a:	d1e5      	bne.n	8008308 <etharp_find_entry+0x34>
 800833c:	f10c 0c01 	add.w	ip, ip, #1
 8008340:	3318      	adds	r3, #24
 8008342:	f1bc 0f0a 	cmp.w	ip, #10
 8008346:	d1d6      	bne.n	80082f6 <etharp_find_entry+0x22>
 8008348:	9b01      	ldr	r3, [sp, #4]
 800834a:	2b01      	cmp	r3, #1
 800834c:	d148      	bne.n	80083e0 <etharp_find_entry+0x10c>
 800834e:	2c0a      	cmp	r4, #10
 8008350:	d111      	bne.n	8008376 <etharp_find_entry+0xa2>
 8008352:	2d0a      	cmp	r5, #10
 8008354:	d03a      	beq.n	80083cc <etharp_find_entry+0xf8>
 8008356:	2318      	movs	r3, #24
 8008358:	4a23      	ldr	r2, [pc, #140]	; (80083e8 <etharp_find_entry+0x114>)
 800835a:	436b      	muls	r3, r5
 800835c:	58d3      	ldr	r3, [r2, r3]
 800835e:	b133      	cbz	r3, 800836e <etharp_find_entry+0x9a>
 8008360:	4b22      	ldr	r3, [pc, #136]	; (80083ec <etharp_find_entry+0x118>)
 8008362:	f240 126d 	movw	r2, #365	; 0x16d
 8008366:	4922      	ldr	r1, [pc, #136]	; (80083f0 <etharp_find_entry+0x11c>)
 8008368:	4822      	ldr	r0, [pc, #136]	; (80083f4 <etharp_find_entry+0x120>)
 800836a:	f001 fbab 	bl	8009ac4 <iprintf>
 800836e:	462c      	mov	r4, r5
 8008370:	4628      	mov	r0, r5
 8008372:	f7ff ff9b 	bl	80082ac <etharp_free_entry>
 8008376:	2318      	movs	r3, #24
 8008378:	4a1b      	ldr	r2, [pc, #108]	; (80083e8 <etharp_find_entry+0x114>)
 800837a:	fb03 2304 	mla	r3, r3, r4, r2
 800837e:	7d1b      	ldrb	r3, [r3, #20]
 8008380:	b133      	cbz	r3, 8008390 <etharp_find_entry+0xbc>
 8008382:	4b1a      	ldr	r3, [pc, #104]	; (80083ec <etharp_find_entry+0x118>)
 8008384:	f44f 72c2 	mov.w	r2, #388	; 0x184
 8008388:	491b      	ldr	r1, [pc, #108]	; (80083f8 <etharp_find_entry+0x124>)
 800838a:	481a      	ldr	r0, [pc, #104]	; (80083f4 <etharp_find_entry+0x120>)
 800838c:	f001 fb9a 	bl	8009ac4 <iprintf>
 8008390:	b12e      	cbz	r6, 800839e <etharp_find_entry+0xca>
 8008392:	4b15      	ldr	r3, [pc, #84]	; (80083e8 <etharp_find_entry+0x114>)
 8008394:	2118      	movs	r1, #24
 8008396:	6832      	ldr	r2, [r6, #0]
 8008398:	fb01 3304 	mla	r3, r1, r4, r3
 800839c:	605a      	str	r2, [r3, #4]
 800839e:	4a12      	ldr	r2, [pc, #72]	; (80083e8 <etharp_find_entry+0x114>)
 80083a0:	2318      	movs	r3, #24
 80083a2:	4620      	mov	r0, r4
 80083a4:	fb03 2304 	mla	r3, r3, r4, r2
 80083a8:	2200      	movs	r2, #0
 80083aa:	609f      	str	r7, [r3, #8]
 80083ac:	825a      	strh	r2, [r3, #18]
 80083ae:	b003      	add	sp, #12
 80083b0:	e8bd 8ff0 	ldmia.w	sp!, {r4, r5, r6, r7, r8, r9, sl, fp, pc}
 80083b4:	4559      	cmp	r1, fp
 80083b6:	d3c1      	bcc.n	800833c <etharp_find_entry+0x68>
 80083b8:	468b      	mov	fp, r1
 80083ba:	4680      	mov	r8, r0
 80083bc:	e7be      	b.n	800833c <etharp_find_entry+0x68>
 80083be:	4549      	cmp	r1, r9
 80083c0:	d3bc      	bcc.n	800833c <etharp_find_entry+0x68>
 80083c2:	4689      	mov	r9, r1
 80083c4:	4605      	mov	r5, r0
 80083c6:	e7b9      	b.n	800833c <etharp_find_entry+0x68>
 80083c8:	4604      	mov	r4, r0
 80083ca:	e7b7      	b.n	800833c <etharp_find_entry+0x68>
 80083cc:	f1b8 0f0a 	cmp.w	r8, #10
 80083d0:	d104      	bne.n	80083dc <etharp_find_entry+0x108>
 80083d2:	f1be 0f0a 	cmp.w	lr, #10
 80083d6:	d003      	beq.n	80083e0 <etharp_find_entry+0x10c>
 80083d8:	4675      	mov	r5, lr
 80083da:	e7c8      	b.n	800836e <etharp_find_entry+0x9a>
 80083dc:	4645      	mov	r5, r8
 80083de:	e7c6      	b.n	800836e <etharp_find_entry+0x9a>
 80083e0:	f04f 30ff 	mov.w	r0, #4294967295
 80083e4:	e7e3      	b.n	80083ae <etharp_find_entry+0xda>
 80083e6:	bf00      	nop
 80083e8:	2000aa88 	.word	0x2000aa88
 80083ec:	0800d648 	.word	0x0800d648
 80083f0:	0800d67f 	.word	0x0800d67f
 80083f4:	0800be06 	.word	0x0800be06
 80083f8:	0800d696 	.word	0x0800d696

080083fc <etharp_raw>:
 80083fc:	e92d 47f3 	stmdb	sp!, {r0, r1, r4, r5, r6, r7, r8, r9, sl, lr}
 8008400:	f8dd a02c 	ldr.w	sl, [sp, #44]	; 0x2c
 8008404:	4688      	mov	r8, r1
 8008406:	4691      	mov	r9, r2
 8008408:	461e      	mov	r6, r3
 800840a:	4607      	mov	r7, r0
 800840c:	b930      	cbnz	r0, 800841c <etharp_raw+0x20>
 800840e:	4b2d      	ldr	r3, [pc, #180]	; (80084c4 <etharp_raw+0xc8>)
 8008410:	f240 4257 	movw	r2, #1111	; 0x457
 8008414:	492c      	ldr	r1, [pc, #176]	; (80084c8 <etharp_raw+0xcc>)
 8008416:	482d      	ldr	r0, [pc, #180]	; (80084cc <etharp_raw+0xd0>)
 8008418:	f001 fb54 	bl	8009ac4 <iprintf>
 800841c:	f44f 7220 	mov.w	r2, #640	; 0x280
 8008420:	211c      	movs	r1, #28
 8008422:	200e      	movs	r0, #14
 8008424:	f7fc f928 	bl	8004678 <pbuf_alloc>
 8008428:	4605      	mov	r5, r0
 800842a:	2800      	cmp	r0, #0
 800842c:	d047      	beq.n	80084be <etharp_raw+0xc2>
 800842e:	8943      	ldrh	r3, [r0, #10]
 8008430:	2b1b      	cmp	r3, #27
 8008432:	d806      	bhi.n	8008442 <etharp_raw+0x46>
 8008434:	4b23      	ldr	r3, [pc, #140]	; (80084c4 <etharp_raw+0xc8>)
 8008436:	f240 4262 	movw	r2, #1122	; 0x462
 800843a:	4925      	ldr	r1, [pc, #148]	; (80084d0 <etharp_raw+0xd4>)
 800843c:	4823      	ldr	r0, [pc, #140]	; (80084cc <etharp_raw+0xd0>)
 800843e:	f001 fb41 	bl	8009ac4 <iprintf>
 8008442:	686c      	ldr	r4, [r5, #4]
 8008444:	f8bd 0034 	ldrh.w	r0, [sp, #52]	; 0x34
 8008448:	f7fb fb68 	bl	8003b1c <lwip_htons>
 800844c:	80e0      	strh	r0, [r4, #6]
 800844e:	f897 302c 	ldrb.w	r3, [r7, #44]	; 0x2c
 8008452:	2b06      	cmp	r3, #6
 8008454:	d006      	beq.n	8008464 <etharp_raw+0x68>
 8008456:	4b1b      	ldr	r3, [pc, #108]	; (80084c4 <etharp_raw+0xc8>)
 8008458:	f240 4269 	movw	r2, #1129	; 0x469
 800845c:	491d      	ldr	r1, [pc, #116]	; (80084d4 <etharp_raw+0xd8>)
 800845e:	481b      	ldr	r0, [pc, #108]	; (80084cc <etharp_raw+0xd0>)
 8008460:	f001 fb30 	bl	8009ac4 <iprintf>
 8008464:	6833      	ldr	r3, [r6, #0]
 8008466:	4642      	mov	r2, r8
 8008468:	4629      	mov	r1, r5
 800846a:	4638      	mov	r0, r7
 800846c:	60a3      	str	r3, [r4, #8]
 800846e:	88b3      	ldrh	r3, [r6, #4]
 8008470:	2600      	movs	r6, #0
 8008472:	81a3      	strh	r3, [r4, #12]
 8008474:	f8da 3000 	ldr.w	r3, [sl]
 8008478:	f8c4 3012 	str.w	r3, [r4, #18]
 800847c:	f8ba 3004 	ldrh.w	r3, [sl, #4]
 8008480:	82e3      	strh	r3, [r4, #22]
 8008482:	9b0a      	ldr	r3, [sp, #40]	; 0x28
 8008484:	681b      	ldr	r3, [r3, #0]
 8008486:	f8c4 300e 	str.w	r3, [r4, #14]
 800848a:	9b0c      	ldr	r3, [sp, #48]	; 0x30
 800848c:	681b      	ldr	r3, [r3, #0]
 800848e:	7026      	strb	r6, [r4, #0]
 8008490:	61a3      	str	r3, [r4, #24]
 8008492:	2301      	movs	r3, #1
 8008494:	70e6      	strb	r6, [r4, #3]
 8008496:	7063      	strb	r3, [r4, #1]
 8008498:	2308      	movs	r3, #8
 800849a:	70a3      	strb	r3, [r4, #2]
 800849c:	2306      	movs	r3, #6
 800849e:	7123      	strb	r3, [r4, #4]
 80084a0:	2304      	movs	r3, #4
 80084a2:	7163      	strb	r3, [r4, #5]
 80084a4:	f640 0306 	movw	r3, #2054	; 0x806
 80084a8:	9300      	str	r3, [sp, #0]
 80084aa:	464b      	mov	r3, r9
 80084ac:	f001 f94e 	bl	800974c <ethernet_output>
 80084b0:	4628      	mov	r0, r5
 80084b2:	f7fc f87d 	bl	80045b0 <pbuf_free>
 80084b6:	4630      	mov	r0, r6
 80084b8:	b002      	add	sp, #8
 80084ba:	e8bd 87f0 	ldmia.w	sp!, {r4, r5, r6, r7, r8, r9, sl, pc}
 80084be:	f04f 30ff 	mov.w	r0, #4294967295
 80084c2:	e7f9      	b.n	80084b8 <etharp_raw+0xbc>
 80084c4:	0800d648 	.word	0x0800d648
 80084c8:	0800bdf8 	.word	0x0800bdf8
 80084cc:	0800be06 	.word	0x0800be06
 80084d0:	0800d6bf 	.word	0x0800d6bf
 80084d4:	0800d6f0 	.word	0x0800d6f0

080084d8 <etharp_cleanup_netif>:
 80084d8:	b570      	push	{r4, r5, r6, lr}
 80084da:	4606      	mov	r6, r0
 80084dc:	4d07      	ldr	r5, [pc, #28]	; (80084fc <etharp_cleanup_netif+0x24>)
 80084de:	2400      	movs	r4, #0
 80084e0:	7d2b      	ldrb	r3, [r5, #20]
 80084e2:	b12b      	cbz	r3, 80084f0 <etharp_cleanup_netif+0x18>
 80084e4:	68ab      	ldr	r3, [r5, #8]
 80084e6:	42b3      	cmp	r3, r6
 80084e8:	d102      	bne.n	80084f0 <etharp_cleanup_netif+0x18>
 80084ea:	4620      	mov	r0, r4
 80084ec:	f7ff fede 	bl	80082ac <etharp_free_entry>
 80084f0:	3401      	adds	r4, #1
 80084f2:	3518      	adds	r5, #24
 80084f4:	2c0a      	cmp	r4, #10
 80084f6:	d1f3      	bne.n	80084e0 <etharp_cleanup_netif+0x8>
 80084f8:	bd70      	pop	{r4, r5, r6, pc}
 80084fa:	bf00      	nop
 80084fc:	2000aa88 	.word	0x2000aa88

08008500 <etharp_input>:
 8008500:	e92d 4ff0 	stmdb	sp!, {r4, r5, r6, r7, r8, r9, sl, fp, lr}
 8008504:	4607      	mov	r7, r0
 8008506:	b089      	sub	sp, #36	; 0x24
 8008508:	460c      	mov	r4, r1
 800850a:	b949      	cbnz	r1, 8008520 <etharp_input+0x20>
 800850c:	4b48      	ldr	r3, [pc, #288]	; (8008630 <etharp_input+0x130>)
 800850e:	f240 228a 	movw	r2, #650	; 0x28a
 8008512:	4948      	ldr	r1, [pc, #288]	; (8008634 <etharp_input+0x134>)
 8008514:	4848      	ldr	r0, [pc, #288]	; (8008638 <etharp_input+0x138>)
 8008516:	b009      	add	sp, #36	; 0x24
 8008518:	e8bd 4ff0 	ldmia.w	sp!, {r4, r5, r6, r7, r8, r9, sl, fp, lr}
 800851c:	f001 bad2 	b.w	8009ac4 <iprintf>
 8008520:	6845      	ldr	r5, [r0, #4]
 8008522:	882b      	ldrh	r3, [r5, #0]
 8008524:	f5b3 7f80 	cmp.w	r3, #256	; 0x100
 8008528:	d108      	bne.n	800853c <etharp_input+0x3c>
 800852a:	792b      	ldrb	r3, [r5, #4]
 800852c:	2b06      	cmp	r3, #6
 800852e:	d105      	bne.n	800853c <etharp_input+0x3c>
 8008530:	796b      	ldrb	r3, [r5, #5]
 8008532:	2b04      	cmp	r3, #4
 8008534:	d102      	bne.n	800853c <etharp_input+0x3c>
 8008536:	886b      	ldrh	r3, [r5, #2]
 8008538:	2b08      	cmp	r3, #8
 800853a:	d005      	beq.n	8008548 <etharp_input+0x48>
 800853c:	4638      	mov	r0, r7
 800853e:	b009      	add	sp, #36	; 0x24
 8008540:	e8bd 4ff0 	ldmia.w	sp!, {r4, r5, r6, r7, r8, r9, sl, fp, lr}
 8008544:	f7fc b834 	b.w	80045b0 <pbuf_free>
 8008548:	f8d5 a00e 	ldr.w	sl, [r5, #14]
 800854c:	f105 0808 	add.w	r8, r5, #8
 8008550:	684e      	ldr	r6, [r1, #4]
 8008552:	69ab      	ldr	r3, [r5, #24]
 8008554:	f8cd a01c 	str.w	sl, [sp, #28]
 8008558:	2e00      	cmp	r6, #0
 800855a:	d065      	beq.n	8008628 <etharp_input+0x128>
 800855c:	429e      	cmp	r6, r3
 800855e:	d162      	bne.n	8008626 <etharp_input+0x126>
 8008560:	2601      	movs	r6, #1
 8008562:	46b3      	mov	fp, r6
 8008564:	f894 302c 	ldrb.w	r3, [r4, #44]	; 0x2c
 8008568:	2b06      	cmp	r3, #6
 800856a:	d006      	beq.n	800857a <etharp_input+0x7a>
 800856c:	4b30      	ldr	r3, [pc, #192]	; (8008630 <etharp_input+0x130>)
 800856e:	f240 12a9 	movw	r2, #425	; 0x1a9
 8008572:	4932      	ldr	r1, [pc, #200]	; (800863c <etharp_input+0x13c>)
 8008574:	4830      	ldr	r0, [pc, #192]	; (8008638 <etharp_input+0x138>)
 8008576:	f001 faa5 	bl	8009ac4 <iprintf>
 800857a:	f1ba 0f00 	cmp.w	sl, #0
 800857e:	d03d      	beq.n	80085fc <etharp_input+0xfc>
 8008580:	4621      	mov	r1, r4
 8008582:	4650      	mov	r0, sl
 8008584:	f000 fc9b 	bl	8008ebe <ip4_addr_isbroadcast_u32>
 8008588:	4681      	mov	r9, r0
 800858a:	bbb8      	cbnz	r0, 80085fc <etharp_input+0xfc>
 800858c:	f00a 0af0 	and.w	sl, sl, #240	; 0xf0
 8008590:	f1ba 0fe0 	cmp.w	sl, #224	; 0xe0
 8008594:	d032      	beq.n	80085fc <etharp_input+0xfc>
 8008596:	4622      	mov	r2, r4
 8008598:	4659      	mov	r1, fp
 800859a:	a807      	add	r0, sp, #28
 800859c:	f7ff fe9a 	bl	80082d4 <etharp_find_entry>
 80085a0:	1e03      	subs	r3, r0, #0
 80085a2:	db2b      	blt.n	80085fc <etharp_input+0xfc>
 80085a4:	2018      	movs	r0, #24
 80085a6:	4a26      	ldr	r2, [pc, #152]	; (8008640 <etharp_input+0x140>)
 80085a8:	f04f 0e02 	mov.w	lr, #2
 80085ac:	fb00 fc03 	mul.w	ip, r0, r3
 80085b0:	eb02 010c 	add.w	r1, r2, ip
 80085b4:	f881 e014 	strb.w	lr, [r1, #20]
 80085b8:	f04f 0e0c 	mov.w	lr, #12
 80085bc:	608c      	str	r4, [r1, #8]
 80085be:	fb13 e300 	smlabb	r3, r3, r0, lr
 80085c2:	68a8      	ldr	r0, [r5, #8]
 80085c4:	eb02 0e03 	add.w	lr, r2, r3
 80085c8:	50d0      	str	r0, [r2, r3]
 80085ca:	f8b8 3004 	ldrh.w	r3, [r8, #4]
 80085ce:	f8ae 3004 	strh.w	r3, [lr, #4]
 80085d2:	f8a1 9012 	strh.w	r9, [r1, #18]
 80085d6:	f852 100c 	ldr.w	r1, [r2, ip]
 80085da:	b179      	cbz	r1, 80085fc <etharp_input+0xfc>
 80085dc:	f44f 6300 	mov.w	r3, #2048	; 0x800
 80085e0:	f842 900c 	str.w	r9, [r2, ip]
 80085e4:	4620      	mov	r0, r4
 80085e6:	f104 0226 	add.w	r2, r4, #38	; 0x26
 80085ea:	9300      	str	r3, [sp, #0]
 80085ec:	4643      	mov	r3, r8
 80085ee:	9105      	str	r1, [sp, #20]
 80085f0:	f001 f8ac 	bl	800974c <ethernet_output>
 80085f4:	9905      	ldr	r1, [sp, #20]
 80085f6:	4608      	mov	r0, r1
 80085f8:	f7fb ffda 	bl	80045b0 <pbuf_free>
 80085fc:	88eb      	ldrh	r3, [r5, #6]
 80085fe:	f5b3 7f80 	cmp.w	r3, #256	; 0x100
 8008602:	d19b      	bne.n	800853c <etharp_input+0x3c>
 8008604:	2e00      	cmp	r6, #0
 8008606:	d099      	beq.n	800853c <etharp_input+0x3c>
 8008608:	2202      	movs	r2, #2
 800860a:	f104 0326 	add.w	r3, r4, #38	; 0x26
 800860e:	4620      	mov	r0, r4
 8008610:	9203      	str	r2, [sp, #12]
 8008612:	aa07      	add	r2, sp, #28
 8008614:	4619      	mov	r1, r3
 8008616:	e9cd 8201 	strd	r8, r2, [sp, #4]
 800861a:	1d22      	adds	r2, r4, #4
 800861c:	9200      	str	r2, [sp, #0]
 800861e:	4642      	mov	r2, r8
 8008620:	f7ff feec 	bl	80083fc <etharp_raw>
 8008624:	e78a      	b.n	800853c <etharp_input+0x3c>
 8008626:	2600      	movs	r6, #0
 8008628:	f04f 0b02 	mov.w	fp, #2
 800862c:	e79a      	b.n	8008564 <etharp_input+0x64>
 800862e:	bf00      	nop
 8008630:	0800d648 	.word	0x0800d648
 8008634:	0800bdf8 	.word	0x0800bdf8
 8008638:	0800be06 	.word	0x0800be06
 800863c:	0800d750 	.word	0x0800d750
 8008640:	2000aa88 	.word	0x2000aa88

08008644 <etharp_request>:
 8008644:	b51f      	push	{r0, r1, r2, r3, r4, lr}
 8008646:	4602      	mov	r2, r0
 8008648:	2401      	movs	r4, #1
 800864a:	f100 0326 	add.w	r3, r0, #38	; 0x26
 800864e:	3204      	adds	r2, #4
 8008650:	e9cd 1402 	strd	r1, r4, [sp, #8]
 8008654:	4904      	ldr	r1, [pc, #16]	; (8008668 <etharp_request+0x24>)
 8008656:	9200      	str	r2, [sp, #0]
 8008658:	9101      	str	r1, [sp, #4]
 800865a:	4619      	mov	r1, r3
 800865c:	4a03      	ldr	r2, [pc, #12]	; (800866c <etharp_request+0x28>)
 800865e:	f7ff fecd 	bl	80083fc <etharp_raw>
 8008662:	b004      	add	sp, #16
 8008664:	bd10      	pop	{r4, pc}
 8008666:	bf00      	nop
 8008668:	0800db38 	.word	0x0800db38
 800866c:	0800db32 	.word	0x0800db32

08008670 <etharp_tmr>:
 8008670:	b5f8      	push	{r3, r4, r5, r6, r7, lr}
 8008672:	4c13      	ldr	r4, [pc, #76]	; (80086c0 <etharp_tmr+0x50>)
 8008674:	2500      	movs	r5, #0
 8008676:	2602      	movs	r6, #2
 8008678:	2704      	movs	r7, #4
 800867a:	7d22      	ldrb	r2, [r4, #20]
 800867c:	b16a      	cbz	r2, 800869a <etharp_tmr+0x2a>
 800867e:	8a63      	ldrh	r3, [r4, #18]
 8008680:	3301      	adds	r3, #1
 8008682:	b29b      	uxth	r3, r3
 8008684:	f5b3 7f96 	cmp.w	r3, #300	; 0x12c
 8008688:	8263      	strh	r3, [r4, #18]
 800868a:	d203      	bcs.n	8008694 <etharp_tmr+0x24>
 800868c:	2a01      	cmp	r2, #1
 800868e:	d109      	bne.n	80086a4 <etharp_tmr+0x34>
 8008690:	2b04      	cmp	r3, #4
 8008692:	d90f      	bls.n	80086b4 <etharp_tmr+0x44>
 8008694:	4628      	mov	r0, r5
 8008696:	f7ff fe09 	bl	80082ac <etharp_free_entry>
 800869a:	3501      	adds	r5, #1
 800869c:	3418      	adds	r4, #24
 800869e:	2d0a      	cmp	r5, #10
 80086a0:	d1eb      	bne.n	800867a <etharp_tmr+0xa>
 80086a2:	bdf8      	pop	{r3, r4, r5, r6, r7, pc}
 80086a4:	2a03      	cmp	r2, #3
 80086a6:	d101      	bne.n	80086ac <etharp_tmr+0x3c>
 80086a8:	7527      	strb	r7, [r4, #20]
 80086aa:	e7f6      	b.n	800869a <etharp_tmr+0x2a>
 80086ac:	2a04      	cmp	r2, #4
 80086ae:	d1f4      	bne.n	800869a <etharp_tmr+0x2a>
 80086b0:	7526      	strb	r6, [r4, #20]
 80086b2:	e7f2      	b.n	800869a <etharp_tmr+0x2a>
 80086b4:	1d21      	adds	r1, r4, #4
 80086b6:	68a0      	ldr	r0, [r4, #8]
 80086b8:	f7ff ffc4 	bl	8008644 <etharp_request>
 80086bc:	e7ed      	b.n	800869a <etharp_tmr+0x2a>
 80086be:	bf00      	nop
 80086c0:	2000aa88 	.word	0x2000aa88

080086c4 <etharp_output_to_arp_index>:
 80086c4:	e92d 47ff 	stmdb	sp!, {r0, r1, r2, r3, r4, r5, r6, r7, r8, r9, sl, lr}
 80086c8:	4f24      	ldr	r7, [pc, #144]	; (800875c <etharp_output_to_arp_index+0x98>)
 80086ca:	2318      	movs	r3, #24
 80086cc:	4606      	mov	r6, r0
 80086ce:	4688      	mov	r8, r1
 80086d0:	fb03 7302 	mla	r3, r3, r2, r7
 80086d4:	4614      	mov	r4, r2
 80086d6:	7d1b      	ldrb	r3, [r3, #20]
 80086d8:	2b01      	cmp	r3, #1
 80086da:	d806      	bhi.n	80086ea <etharp_output_to_arp_index+0x26>
 80086dc:	4b20      	ldr	r3, [pc, #128]	; (8008760 <etharp_output_to_arp_index+0x9c>)
 80086de:	f240 22ee 	movw	r2, #750	; 0x2ee
 80086e2:	4920      	ldr	r1, [pc, #128]	; (8008764 <etharp_output_to_arp_index+0xa0>)
 80086e4:	4820      	ldr	r0, [pc, #128]	; (8008768 <etharp_output_to_arp_index+0xa4>)
 80086e6:	f001 f9ed 	bl	8009ac4 <iprintf>
 80086ea:	2318      	movs	r3, #24
 80086ec:	eb04 0544 	add.w	r5, r4, r4, lsl #1
 80086f0:	f106 0926 	add.w	r9, r6, #38	; 0x26
 80086f4:	fb03 7404 	mla	r4, r3, r4, r7
 80086f8:	00ed      	lsls	r5, r5, #3
 80086fa:	7d23      	ldrb	r3, [r4, #20]
 80086fc:	f105 0a0c 	add.w	sl, r5, #12
 8008700:	2b02      	cmp	r3, #2
 8008702:	44ba      	add	sl, r7
 8008704:	d10b      	bne.n	800871e <etharp_output_to_arp_index+0x5a>
 8008706:	8a63      	ldrh	r3, [r4, #18]
 8008708:	f5b3 7f8e 	cmp.w	r3, #284	; 0x11c
 800870c:	d913      	bls.n	8008736 <etharp_output_to_arp_index+0x72>
 800870e:	3504      	adds	r5, #4
 8008710:	4630      	mov	r0, r6
 8008712:	1979      	adds	r1, r7, r5
 8008714:	f7ff ff96 	bl	8008644 <etharp_request>
 8008718:	b908      	cbnz	r0, 800871e <etharp_output_to_arp_index+0x5a>
 800871a:	2303      	movs	r3, #3
 800871c:	7523      	strb	r3, [r4, #20]
 800871e:	f44f 6300 	mov.w	r3, #2048	; 0x800
 8008722:	464a      	mov	r2, r9
 8008724:	4641      	mov	r1, r8
 8008726:	4630      	mov	r0, r6
 8008728:	9300      	str	r3, [sp, #0]
 800872a:	4653      	mov	r3, sl
 800872c:	f001 f80e 	bl	800974c <ethernet_output>
 8008730:	b004      	add	sp, #16
 8008732:	e8bd 87f0 	ldmia.w	sp!, {r4, r5, r6, r7, r8, r9, sl, pc}
 8008736:	f5b3 7f87 	cmp.w	r3, #270	; 0x10e
 800873a:	d3f0      	bcc.n	800871e <etharp_output_to_arp_index+0x5a>
 800873c:	2301      	movs	r3, #1
 800873e:	3504      	adds	r5, #4
 8008740:	4652      	mov	r2, sl
 8008742:	4649      	mov	r1, r9
 8008744:	9303      	str	r3, [sp, #12]
 8008746:	442f      	add	r7, r5
 8008748:	4b08      	ldr	r3, [pc, #32]	; (800876c <etharp_output_to_arp_index+0xa8>)
 800874a:	4630      	mov	r0, r6
 800874c:	9702      	str	r7, [sp, #8]
 800874e:	9301      	str	r3, [sp, #4]
 8008750:	1d33      	adds	r3, r6, #4
 8008752:	9300      	str	r3, [sp, #0]
 8008754:	464b      	mov	r3, r9
 8008756:	f7ff fe51 	bl	80083fc <etharp_raw>
 800875a:	e7dd      	b.n	8008718 <etharp_output_to_arp_index+0x54>
 800875c:	2000aa88 	.word	0x2000aa88
 8008760:	0800d648 	.word	0x0800d648
 8008764:	0800d774 	.word	0x0800d774
 8008768:	0800be06 	.word	0x0800be06
 800876c:	0800db38 	.word	0x0800db38

08008770 <etharp_query>:
 8008770:	e92d 47f3 	stmdb	sp!, {r0, r1, r4, r5, r6, r7, r8, r9, sl, lr}
 8008774:	4688      	mov	r8, r1
 8008776:	4606      	mov	r6, r0
 8008778:	4601      	mov	r1, r0
 800877a:	4615      	mov	r5, r2
 800877c:	f8d8 0000 	ldr.w	r0, [r8]
 8008780:	f000 fb9d 	bl	8008ebe <ip4_addr_isbroadcast_u32>
 8008784:	2800      	cmp	r0, #0
 8008786:	d16c      	bne.n	8008862 <etharp_query+0xf2>
 8008788:	f8d8 3000 	ldr.w	r3, [r8]
 800878c:	f003 02f0 	and.w	r2, r3, #240	; 0xf0
 8008790:	2ae0      	cmp	r2, #224	; 0xe0
 8008792:	d066      	beq.n	8008862 <etharp_query+0xf2>
 8008794:	2b00      	cmp	r3, #0
 8008796:	d064      	beq.n	8008862 <etharp_query+0xf2>
 8008798:	4632      	mov	r2, r6
 800879a:	2101      	movs	r1, #1
 800879c:	4640      	mov	r0, r8
 800879e:	f7ff fd99 	bl	80082d4 <etharp_find_entry>
 80087a2:	1e07      	subs	r7, r0, #0
 80087a4:	da03      	bge.n	80087ae <etharp_query+0x3e>
 80087a6:	b278      	sxtb	r0, r7
 80087a8:	b002      	add	sp, #8
 80087aa:	e8bd 87f0 	ldmia.w	sp!, {r4, r5, r6, r7, r8, r9, sl, pc}
 80087ae:	2f7e      	cmp	r7, #126	; 0x7e
 80087b0:	dd06      	ble.n	80087c0 <etharp_query+0x50>
 80087b2:	4b36      	ldr	r3, [pc, #216]	; (800888c <etharp_query+0x11c>)
 80087b4:	f240 32c1 	movw	r2, #961	; 0x3c1
 80087b8:	4935      	ldr	r1, [pc, #212]	; (8008890 <etharp_query+0x120>)
 80087ba:	4836      	ldr	r0, [pc, #216]	; (8008894 <etharp_query+0x124>)
 80087bc:	f001 f982 	bl	8009ac4 <iprintf>
 80087c0:	b2ff      	uxtb	r7, r7
 80087c2:	f8df 90d8 	ldr.w	r9, [pc, #216]	; 800889c <etharp_query+0x12c>
 80087c6:	2318      	movs	r3, #24
 80087c8:	fb03 9307 	mla	r3, r3, r7, r9
 80087cc:	7d1a      	ldrb	r2, [r3, #20]
 80087ce:	2a00      	cmp	r2, #0
 80087d0:	d156      	bne.n	8008880 <etharp_query+0x110>
 80087d2:	2201      	movs	r2, #1
 80087d4:	609e      	str	r6, [r3, #8]
 80087d6:	751a      	strb	r2, [r3, #20]
 80087d8:	4641      	mov	r1, r8
 80087da:	4630      	mov	r0, r6
 80087dc:	f7ff ff32 	bl	8008644 <etharp_request>
 80087e0:	2d00      	cmp	r5, #0
 80087e2:	d0e1      	beq.n	80087a8 <etharp_query+0x38>
 80087e4:	2318      	movs	r3, #24
 80087e6:	fb03 9207 	mla	r2, r3, r7, r9
 80087ea:	7d12      	ldrb	r2, [r2, #20]
 80087ec:	2a01      	cmp	r2, #1
 80087ee:	d90e      	bls.n	800880e <etharp_query+0x9e>
 80087f0:	4a29      	ldr	r2, [pc, #164]	; (8008898 <etharp_query+0x128>)
 80087f2:	fb03 9307 	mla	r3, r3, r7, r9
 80087f6:	4629      	mov	r1, r5
 80087f8:	4630      	mov	r0, r6
 80087fa:	7017      	strb	r7, [r2, #0]
 80087fc:	f44f 6200 	mov.w	r2, #2048	; 0x800
 8008800:	330c      	adds	r3, #12
 8008802:	9200      	str	r2, [sp, #0]
 8008804:	f106 0226 	add.w	r2, r6, #38	; 0x26
 8008808:	f000 ffa0 	bl	800974c <ethernet_output>
 800880c:	e7cc      	b.n	80087a8 <etharp_query+0x38>
 800880e:	d1cb      	bne.n	80087a8 <etharp_query+0x38>
 8008810:	462c      	mov	r4, r5
 8008812:	4e1e      	ldr	r6, [pc, #120]	; (800888c <etharp_query+0x11c>)
 8008814:	f8df 8088 	ldr.w	r8, [pc, #136]	; 80088a0 <etharp_query+0x130>
 8008818:	f8df a078 	ldr.w	sl, [pc, #120]	; 8008894 <etharp_query+0x124>
 800881c:	8962      	ldrh	r2, [r4, #10]
 800881e:	8923      	ldrh	r3, [r4, #8]
 8008820:	429a      	cmp	r2, r3
 8008822:	d108      	bne.n	8008836 <etharp_query+0xc6>
 8008824:	6823      	ldr	r3, [r4, #0]
 8008826:	b133      	cbz	r3, 8008836 <etharp_query+0xc6>
 8008828:	4633      	mov	r3, r6
 800882a:	f240 32f1 	movw	r2, #1009	; 0x3f1
 800882e:	4641      	mov	r1, r8
 8008830:	4650      	mov	r0, sl
 8008832:	f001 f947 	bl	8009ac4 <iprintf>
 8008836:	7b23      	ldrb	r3, [r4, #12]
 8008838:	065b      	lsls	r3, r3, #25
 800883a:	d415      	bmi.n	8008868 <etharp_query+0xf8>
 800883c:	6824      	ldr	r4, [r4, #0]
 800883e:	2c00      	cmp	r4, #0
 8008840:	d1ec      	bne.n	800881c <etharp_query+0xac>
 8008842:	4628      	mov	r0, r5
 8008844:	f7fb fff8 	bl	8004838 <pbuf_ref>
 8008848:	2418      	movs	r4, #24
 800884a:	fb04 f307 	mul.w	r3, r4, r7
 800884e:	f859 0003 	ldr.w	r0, [r9, r3]
 8008852:	b108      	cbz	r0, 8008858 <etharp_query+0xe8>
 8008854:	f7fb feac 	bl	80045b0 <pbuf_free>
 8008858:	437c      	muls	r4, r7
 800885a:	2000      	movs	r0, #0
 800885c:	f849 5004 	str.w	r5, [r9, r4]
 8008860:	e7a2      	b.n	80087a8 <etharp_query+0x38>
 8008862:	f06f 000f 	mvn.w	r0, #15
 8008866:	e79f      	b.n	80087a8 <etharp_query+0x38>
 8008868:	462a      	mov	r2, r5
 800886a:	f44f 7120 	mov.w	r1, #640	; 0x280
 800886e:	200e      	movs	r0, #14
 8008870:	f7fc f902 	bl	8004a78 <pbuf_clone>
 8008874:	4605      	mov	r5, r0
 8008876:	2800      	cmp	r0, #0
 8008878:	d1e6      	bne.n	8008848 <etharp_query+0xd8>
 800887a:	f04f 30ff 	mov.w	r0, #4294967295
 800887e:	e793      	b.n	80087a8 <etharp_query+0x38>
 8008880:	2d00      	cmp	r5, #0
 8008882:	d0a9      	beq.n	80087d8 <etharp_query+0x68>
 8008884:	f04f 30ff 	mov.w	r0, #4294967295
 8008888:	e7ac      	b.n	80087e4 <etharp_query+0x74>
 800888a:	bf00      	nop
 800888c:	0800d648 	.word	0x0800d648
 8008890:	0800d7a4 	.word	0x0800d7a4
 8008894:	0800be06 	.word	0x0800be06
 8008898:	2000ab78 	.word	0x2000ab78
 800889c:	2000aa88 	.word	0x2000aa88
 80088a0:	0800d7b2 	.word	0x0800d7b2

080088a4 <etharp_output>:
 80088a4:	b5f0      	push	{r4, r5, r6, r7, lr}
 80088a6:	460e      	mov	r6, r1
 80088a8:	b085      	sub	sp, #20
 80088aa:	4615      	mov	r5, r2
 80088ac:	4604      	mov	r4, r0
 80088ae:	b930      	cbnz	r0, 80088be <etharp_output+0x1a>
 80088b0:	4b43      	ldr	r3, [pc, #268]	; (80089c0 <etharp_output+0x11c>)
 80088b2:	f240 321e 	movw	r2, #798	; 0x31e
 80088b6:	4943      	ldr	r1, [pc, #268]	; (80089c4 <etharp_output+0x120>)
 80088b8:	4843      	ldr	r0, [pc, #268]	; (80089c8 <etharp_output+0x124>)
 80088ba:	f001 f903 	bl	8009ac4 <iprintf>
 80088be:	b936      	cbnz	r6, 80088ce <etharp_output+0x2a>
 80088c0:	4b3f      	ldr	r3, [pc, #252]	; (80089c0 <etharp_output+0x11c>)
 80088c2:	f240 321f 	movw	r2, #799	; 0x31f
 80088c6:	4941      	ldr	r1, [pc, #260]	; (80089cc <etharp_output+0x128>)
 80088c8:	483f      	ldr	r0, [pc, #252]	; (80089c8 <etharp_output+0x124>)
 80088ca:	f001 f8fb 	bl	8009ac4 <iprintf>
 80088ce:	b935      	cbnz	r5, 80088de <etharp_output+0x3a>
 80088d0:	4b3b      	ldr	r3, [pc, #236]	; (80089c0 <etharp_output+0x11c>)
 80088d2:	f44f 7248 	mov.w	r2, #800	; 0x320
 80088d6:	493e      	ldr	r1, [pc, #248]	; (80089d0 <etharp_output+0x12c>)
 80088d8:	483b      	ldr	r0, [pc, #236]	; (80089c8 <etharp_output+0x124>)
 80088da:	f001 f8f3 	bl	8009ac4 <iprintf>
 80088de:	4621      	mov	r1, r4
 80088e0:	6828      	ldr	r0, [r5, #0]
 80088e2:	f000 faec 	bl	8008ebe <ip4_addr_isbroadcast_u32>
 80088e6:	2800      	cmp	r0, #0
 80088e8:	d165      	bne.n	80089b6 <etharp_output+0x112>
 80088ea:	682b      	ldr	r3, [r5, #0]
 80088ec:	f003 02f0 	and.w	r2, r3, #240	; 0xf0
 80088f0:	2ae0      	cmp	r2, #224	; 0xe0
 80088f2:	d11c      	bne.n	800892e <etharp_output+0x8a>
 80088f4:	2301      	movs	r3, #1
 80088f6:	f8ad 3008 	strh.w	r3, [sp, #8]
 80088fa:	235e      	movs	r3, #94	; 0x5e
 80088fc:	f88d 300a 	strb.w	r3, [sp, #10]
 8008900:	786b      	ldrb	r3, [r5, #1]
 8008902:	f003 037f 	and.w	r3, r3, #127	; 0x7f
 8008906:	f88d 300b 	strb.w	r3, [sp, #11]
 800890a:	78ab      	ldrb	r3, [r5, #2]
 800890c:	f88d 300c 	strb.w	r3, [sp, #12]
 8008910:	78eb      	ldrb	r3, [r5, #3]
 8008912:	f88d 300d 	strb.w	r3, [sp, #13]
 8008916:	ab02      	add	r3, sp, #8
 8008918:	f44f 6200 	mov.w	r2, #2048	; 0x800
 800891c:	4631      	mov	r1, r6
 800891e:	4620      	mov	r0, r4
 8008920:	9200      	str	r2, [sp, #0]
 8008922:	f104 0226 	add.w	r2, r4, #38	; 0x26
 8008926:	f000 ff11 	bl	800974c <ethernet_output>
 800892a:	b005      	add	sp, #20
 800892c:	bdf0      	pop	{r4, r5, r6, r7, pc}
 800892e:	6862      	ldr	r2, [r4, #4]
 8008930:	68a1      	ldr	r1, [r4, #8]
 8008932:	405a      	eors	r2, r3
 8008934:	420a      	tst	r2, r1
 8008936:	d009      	beq.n	800894c <etharp_output+0xa8>
 8008938:	b29b      	uxth	r3, r3
 800893a:	f64f 62a9 	movw	r2, #65193	; 0xfea9
 800893e:	4293      	cmp	r3, r2
 8008940:	d004      	beq.n	800894c <etharp_output+0xa8>
 8008942:	68e3      	ldr	r3, [r4, #12]
 8008944:	2b00      	cmp	r3, #0
 8008946:	d038      	beq.n	80089ba <etharp_output+0x116>
 8008948:	f104 050c 	add.w	r5, r4, #12
 800894c:	f8df c08c 	ldr.w	ip, [pc, #140]	; 80089dc <etharp_output+0x138>
 8008950:	2118      	movs	r1, #24
 8008952:	4b20      	ldr	r3, [pc, #128]	; (80089d4 <etharp_output+0x130>)
 8008954:	f89c 2000 	ldrb.w	r2, [ip]
 8008958:	fb01 3302 	mla	r3, r1, r2, r3
 800895c:	7d19      	ldrb	r1, [r3, #20]
 800895e:	2901      	cmp	r1, #1
 8008960:	d90d      	bls.n	800897e <etharp_output+0xda>
 8008962:	6899      	ldr	r1, [r3, #8]
 8008964:	42a1      	cmp	r1, r4
 8008966:	d10a      	bne.n	800897e <etharp_output+0xda>
 8008968:	6829      	ldr	r1, [r5, #0]
 800896a:	685b      	ldr	r3, [r3, #4]
 800896c:	4299      	cmp	r1, r3
 800896e:	d106      	bne.n	800897e <etharp_output+0xda>
 8008970:	4631      	mov	r1, r6
 8008972:	4620      	mov	r0, r4
 8008974:	b005      	add	sp, #20
 8008976:	e8bd 40f0 	ldmia.w	sp!, {r4, r5, r6, r7, lr}
 800897a:	f7ff bea3 	b.w	80086c4 <etharp_output_to_arp_index>
 800897e:	4b15      	ldr	r3, [pc, #84]	; (80089d4 <etharp_output+0x130>)
 8008980:	2100      	movs	r1, #0
 8008982:	7d1f      	ldrb	r7, [r3, #20]
 8008984:	b2ca      	uxtb	r2, r1
 8008986:	2f01      	cmp	r7, #1
 8008988:	d909      	bls.n	800899e <etharp_output+0xfa>
 800898a:	689f      	ldr	r7, [r3, #8]
 800898c:	42a7      	cmp	r7, r4
 800898e:	d106      	bne.n	800899e <etharp_output+0xfa>
 8008990:	685f      	ldr	r7, [r3, #4]
 8008992:	6828      	ldr	r0, [r5, #0]
 8008994:	42b8      	cmp	r0, r7
 8008996:	d102      	bne.n	800899e <etharp_output+0xfa>
 8008998:	f88c 2000 	strb.w	r2, [ip]
 800899c:	e7e8      	b.n	8008970 <etharp_output+0xcc>
 800899e:	3101      	adds	r1, #1
 80089a0:	3318      	adds	r3, #24
 80089a2:	290a      	cmp	r1, #10
 80089a4:	d1ed      	bne.n	8008982 <etharp_output+0xde>
 80089a6:	4632      	mov	r2, r6
 80089a8:	4629      	mov	r1, r5
 80089aa:	4620      	mov	r0, r4
 80089ac:	b005      	add	sp, #20
 80089ae:	e8bd 40f0 	ldmia.w	sp!, {r4, r5, r6, r7, lr}
 80089b2:	f7ff bedd 	b.w	8008770 <etharp_query>
 80089b6:	4b08      	ldr	r3, [pc, #32]	; (80089d8 <etharp_output+0x134>)
 80089b8:	e7ae      	b.n	8008918 <etharp_output+0x74>
 80089ba:	f06f 0003 	mvn.w	r0, #3
 80089be:	e7b4      	b.n	800892a <etharp_output+0x86>
 80089c0:	0800d648 	.word	0x0800d648
 80089c4:	0800bdf8 	.word	0x0800bdf8
 80089c8:	0800be06 	.word	0x0800be06
 80089cc:	0800c499 	.word	0x0800c499
 80089d0:	0800d731 	.word	0x0800d731
 80089d4:	2000aa88 	.word	0x2000aa88
 80089d8:	0800db32 	.word	0x0800db32
 80089dc:	2000ab78 	.word	0x2000ab78

080089e0 <icmp_send_response>:
 80089e0:	b5f0      	push	{r4, r5, r6, r7, lr}
 80089e2:	4604      	mov	r4, r0
 80089e4:	b087      	sub	sp, #28
 80089e6:	460f      	mov	r7, r1
 80089e8:	4616      	mov	r6, r2
 80089ea:	2124      	movs	r1, #36	; 0x24
 80089ec:	f44f 7220 	mov.w	r2, #640	; 0x280
 80089f0:	2022      	movs	r0, #34	; 0x22
 80089f2:	f7fb fe41 	bl	8004678 <pbuf_alloc>
 80089f6:	4605      	mov	r5, r0
 80089f8:	b390      	cbz	r0, 8008a60 <icmp_send_response+0x80>
 80089fa:	8943      	ldrh	r3, [r0, #10]
 80089fc:	2b23      	cmp	r3, #35	; 0x23
 80089fe:	d806      	bhi.n	8008a0e <icmp_send_response+0x2e>
 8008a00:	4b18      	ldr	r3, [pc, #96]	; (8008a64 <icmp_send_response+0x84>)
 8008a02:	f44f 72b4 	mov.w	r2, #360	; 0x168
 8008a06:	4918      	ldr	r1, [pc, #96]	; (8008a68 <icmp_send_response+0x88>)
 8008a08:	4818      	ldr	r0, [pc, #96]	; (8008a6c <icmp_send_response+0x8c>)
 8008a0a:	f001 f85b 	bl	8009ac4 <iprintf>
 8008a0e:	6860      	ldr	r0, [r4, #4]
 8008a10:	2300      	movs	r3, #0
 8008a12:	686c      	ldr	r4, [r5, #4]
 8008a14:	f100 011c 	add.w	r1, r0, #28
 8008a18:	7123      	strb	r3, [r4, #4]
 8008a1a:	f104 0208 	add.w	r2, r4, #8
 8008a1e:	7163      	strb	r3, [r4, #5]
 8008a20:	71a3      	strb	r3, [r4, #6]
 8008a22:	71e3      	strb	r3, [r4, #7]
 8008a24:	4603      	mov	r3, r0
 8008a26:	7027      	strb	r7, [r4, #0]
 8008a28:	7066      	strb	r6, [r4, #1]
 8008a2a:	f853 6b04 	ldr.w	r6, [r3], #4
 8008a2e:	428b      	cmp	r3, r1
 8008a30:	f842 6b04 	str.w	r6, [r2], #4
 8008a34:	d1f9      	bne.n	8008a2a <icmp_send_response+0x4a>
 8008a36:	68c3      	ldr	r3, [r0, #12]
 8008a38:	a805      	add	r0, sp, #20
 8008a3a:	9305      	str	r3, [sp, #20]
 8008a3c:	f000 f8d0 	bl	8008be0 <ip4_route>
 8008a40:	b158      	cbz	r0, 8008a5a <icmp_send_response+0x7a>
 8008a42:	2100      	movs	r1, #0
 8008a44:	2301      	movs	r3, #1
 8008a46:	aa05      	add	r2, sp, #20
 8008a48:	70a1      	strb	r1, [r4, #2]
 8008a4a:	70e1      	strb	r1, [r4, #3]
 8008a4c:	9002      	str	r0, [sp, #8]
 8008a4e:	4628      	mov	r0, r5
 8008a50:	e9cd 1300 	strd	r1, r3, [sp]
 8008a54:	23ff      	movs	r3, #255	; 0xff
 8008a56:	f000 fa21 	bl	8008e9c <ip4_output_if>
 8008a5a:	4628      	mov	r0, r5
 8008a5c:	f7fb fda8 	bl	80045b0 <pbuf_free>
 8008a60:	b007      	add	sp, #28
 8008a62:	bdf0      	pop	{r4, r5, r6, r7, pc}
 8008a64:	0800d7cc 	.word	0x0800d7cc
 8008a68:	0800d801 	.word	0x0800d801
 8008a6c:	0800be06 	.word	0x0800be06

08008a70 <icmp_input>:
 8008a70:	e92d 43f0 	stmdb	sp!, {r4, r5, r6, r7, r8, r9, lr}
 8008a74:	4f43      	ldr	r7, [pc, #268]	; (8008b84 <icmp_input+0x114>)
 8008a76:	b087      	sub	sp, #28
 8008a78:	4604      	mov	r4, r0
 8008a7a:	4688      	mov	r8, r1
 8008a7c:	f8d7 9008 	ldr.w	r9, [r7, #8]
 8008a80:	f899 5000 	ldrb.w	r5, [r9]
 8008a84:	f005 050f 	and.w	r5, r5, #15
 8008a88:	00ad      	lsls	r5, r5, #2
 8008a8a:	2d13      	cmp	r5, #19
 8008a8c:	d92f      	bls.n	8008aee <icmp_input+0x7e>
 8008a8e:	8943      	ldrh	r3, [r0, #10]
 8008a90:	2b03      	cmp	r3, #3
 8008a92:	d92c      	bls.n	8008aee <icmp_input+0x7e>
 8008a94:	6843      	ldr	r3, [r0, #4]
 8008a96:	781b      	ldrb	r3, [r3, #0]
 8008a98:	2b08      	cmp	r3, #8
 8008a9a:	d128      	bne.n	8008aee <icmp_input+0x7e>
 8008a9c:	6978      	ldr	r0, [r7, #20]
 8008a9e:	f000 03f0 	and.w	r3, r0, #240	; 0xf0
 8008aa2:	2be0      	cmp	r3, #224	; 0xe0
 8008aa4:	d023      	beq.n	8008aee <icmp_input+0x7e>
 8008aa6:	6839      	ldr	r1, [r7, #0]
 8008aa8:	f000 fa09 	bl	8008ebe <ip4_addr_isbroadcast_u32>
 8008aac:	b9f8      	cbnz	r0, 8008aee <icmp_input+0x7e>
 8008aae:	8923      	ldrh	r3, [r4, #8]
 8008ab0:	2b07      	cmp	r3, #7
 8008ab2:	d91c      	bls.n	8008aee <icmp_input+0x7e>
 8008ab4:	f105 010e 	add.w	r1, r5, #14
 8008ab8:	4620      	mov	r0, r4
 8008aba:	9105      	str	r1, [sp, #20]
 8008abc:	f7fb fd40 	bl	8004540 <pbuf_add_header>
 8008ac0:	9905      	ldr	r1, [sp, #20]
 8008ac2:	2800      	cmp	r0, #0
 8008ac4:	d052      	beq.n	8008b6c <icmp_input+0xfc>
 8008ac6:	8923      	ldrh	r3, [r4, #8]
 8008ac8:	1959      	adds	r1, r3, r5
 8008aca:	b289      	uxth	r1, r1
 8008acc:	428b      	cmp	r3, r1
 8008ace:	d80e      	bhi.n	8008aee <icmp_input+0x7e>
 8008ad0:	f44f 7220 	mov.w	r2, #640	; 0x280
 8008ad4:	200e      	movs	r0, #14
 8008ad6:	f7fb fdcf 	bl	8004678 <pbuf_alloc>
 8008ada:	4606      	mov	r6, r0
 8008adc:	b138      	cbz	r0, 8008aee <icmp_input+0x7e>
 8008ade:	8942      	ldrh	r2, [r0, #10]
 8008ae0:	f105 0308 	add.w	r3, r5, #8
 8008ae4:	429a      	cmp	r2, r3
 8008ae6:	d208      	bcs.n	8008afa <icmp_input+0x8a>
 8008ae8:	4630      	mov	r0, r6
 8008aea:	f7fb fd61 	bl	80045b0 <pbuf_free>
 8008aee:	4620      	mov	r0, r4
 8008af0:	b007      	add	sp, #28
 8008af2:	e8bd 43f0 	ldmia.w	sp!, {r4, r5, r6, r7, r8, r9, lr}
 8008af6:	f7fb bd5b 	b.w	80045b0 <pbuf_free>
 8008afa:	4649      	mov	r1, r9
 8008afc:	462a      	mov	r2, r5
 8008afe:	6840      	ldr	r0, [r0, #4]
 8008b00:	f001 fe29 	bl	800a756 <memcpy>
 8008b04:	4629      	mov	r1, r5
 8008b06:	4630      	mov	r0, r6
 8008b08:	f7fb fd1e 	bl	8004548 <pbuf_remove_header>
 8008b0c:	b130      	cbz	r0, 8008b1c <icmp_input+0xac>
 8008b0e:	4b1e      	ldr	r3, [pc, #120]	; (8008b88 <icmp_input+0x118>)
 8008b10:	22b6      	movs	r2, #182	; 0xb6
 8008b12:	491e      	ldr	r1, [pc, #120]	; (8008b8c <icmp_input+0x11c>)
 8008b14:	481e      	ldr	r0, [pc, #120]	; (8008b90 <icmp_input+0x120>)
 8008b16:	f000 ffd5 	bl	8009ac4 <iprintf>
 8008b1a:	e7e5      	b.n	8008ae8 <icmp_input+0x78>
 8008b1c:	4621      	mov	r1, r4
 8008b1e:	4630      	mov	r0, r6
 8008b20:	f7fb fee2 	bl	80048e8 <pbuf_copy>
 8008b24:	2800      	cmp	r0, #0
 8008b26:	d1df      	bne.n	8008ae8 <icmp_input+0x78>
 8008b28:	4620      	mov	r0, r4
 8008b2a:	4634      	mov	r4, r6
 8008b2c:	f7fb fd40 	bl	80045b0 <pbuf_free>
 8008b30:	4629      	mov	r1, r5
 8008b32:	4620      	mov	r0, r4
 8008b34:	6866      	ldr	r6, [r4, #4]
 8008b36:	f7fb fd03 	bl	8004540 <pbuf_add_header>
 8008b3a:	4602      	mov	r2, r0
 8008b3c:	2800      	cmp	r0, #0
 8008b3e:	d1d6      	bne.n	8008aee <icmp_input+0x7e>
 8008b40:	6860      	ldr	r0, [r4, #4]
 8008b42:	2101      	movs	r1, #1
 8008b44:	697b      	ldr	r3, [r7, #20]
 8008b46:	60c3      	str	r3, [r0, #12]
 8008b48:	693b      	ldr	r3, [r7, #16]
 8008b4a:	6103      	str	r3, [r0, #16]
 8008b4c:	23ff      	movs	r3, #255	; 0xff
 8008b4e:	7032      	strb	r2, [r6, #0]
 8008b50:	70b2      	strb	r2, [r6, #2]
 8008b52:	70f2      	strb	r2, [r6, #3]
 8008b54:	7203      	strb	r3, [r0, #8]
 8008b56:	7282      	strb	r2, [r0, #10]
 8008b58:	72c2      	strb	r2, [r0, #11]
 8008b5a:	4620      	mov	r0, r4
 8008b5c:	f8cd 8008 	str.w	r8, [sp, #8]
 8008b60:	e9cd 2100 	strd	r2, r1, [sp]
 8008b64:	490b      	ldr	r1, [pc, #44]	; (8008b94 <icmp_input+0x124>)
 8008b66:	f000 f999 	bl	8008e9c <ip4_output_if>
 8008b6a:	e7c0      	b.n	8008aee <icmp_input+0x7e>
 8008b6c:	4620      	mov	r0, r4
 8008b6e:	f7fb fceb 	bl	8004548 <pbuf_remove_header>
 8008b72:	2800      	cmp	r0, #0
 8008b74:	d0dc      	beq.n	8008b30 <icmp_input+0xc0>
 8008b76:	4b04      	ldr	r3, [pc, #16]	; (8008b88 <icmp_input+0x118>)
 8008b78:	22c7      	movs	r2, #199	; 0xc7
 8008b7a:	4907      	ldr	r1, [pc, #28]	; (8008b98 <icmp_input+0x128>)
 8008b7c:	4804      	ldr	r0, [pc, #16]	; (8008b90 <icmp_input+0x120>)
 8008b7e:	f000 ffa1 	bl	8009ac4 <iprintf>
 8008b82:	e7b4      	b.n	8008aee <icmp_input+0x7e>
 8008b84:	200052f4 	.word	0x200052f4
 8008b88:	0800d7cc 	.word	0x0800d7cc
 8008b8c:	0800d82d 	.word	0x0800d82d
 8008b90:	0800be06 	.word	0x0800be06
 8008b94:	20005308 	.word	0x20005308
 8008b98:	0800d862 	.word	0x0800d862

08008b9c <icmp_dest_unreach>:
 8008b9c:	460a      	mov	r2, r1
 8008b9e:	2103      	movs	r1, #3
 8008ba0:	f7ff bf1e 	b.w	80089e0 <icmp_send_response>

08008ba4 <icmp_time_exceeded>:
 8008ba4:	460a      	mov	r2, r1
 8008ba6:	210b      	movs	r1, #11
 8008ba8:	f7ff bf1a 	b.w	80089e0 <icmp_send_response>

08008bac <ip4_input_accept>:
 8008bac:	b508      	push	{r3, lr}
 8008bae:	f890 302d 	ldrb.w	r3, [r0, #45]	; 0x2d
 8008bb2:	4601      	mov	r1, r0
 8008bb4:	f013 0301 	ands.w	r3, r3, #1
 8008bb8:	d00b      	beq.n	8008bd2 <ip4_input_accept+0x26>
 8008bba:	6843      	ldr	r3, [r0, #4]
 8008bbc:	b14b      	cbz	r3, 8008bd2 <ip4_input_accept+0x26>
 8008bbe:	4a07      	ldr	r2, [pc, #28]	; (8008bdc <ip4_input_accept+0x30>)
 8008bc0:	6950      	ldr	r0, [r2, #20]
 8008bc2:	4283      	cmp	r3, r0
 8008bc4:	d007      	beq.n	8008bd6 <ip4_input_accept+0x2a>
 8008bc6:	f000 f97a 	bl	8008ebe <ip4_addr_isbroadcast_u32>
 8008bca:	3800      	subs	r0, #0
 8008bcc:	bf18      	it	ne
 8008bce:	2001      	movne	r0, #1
 8008bd0:	bd08      	pop	{r3, pc}
 8008bd2:	4618      	mov	r0, r3
 8008bd4:	e7fc      	b.n	8008bd0 <ip4_input_accept+0x24>
 8008bd6:	2001      	movs	r0, #1
 8008bd8:	e7fa      	b.n	8008bd0 <ip4_input_accept+0x24>
 8008bda:	bf00      	nop
 8008bdc:	200052f4 	.word	0x200052f4

08008be0 <ip4_route>:
 8008be0:	4b14      	ldr	r3, [pc, #80]	; (8008c34 <ip4_route+0x54>)
 8008be2:	b530      	push	{r4, r5, lr}
 8008be4:	681b      	ldr	r3, [r3, #0]
 8008be6:	b97b      	cbnz	r3, 8008c08 <ip4_route+0x28>
 8008be8:	4a13      	ldr	r2, [pc, #76]	; (8008c38 <ip4_route+0x58>)
 8008bea:	6812      	ldr	r2, [r2, #0]
 8008bec:	b1fa      	cbz	r2, 8008c2e <ip4_route+0x4e>
 8008bee:	f892 102d 	ldrb.w	r1, [r2, #45]	; 0x2d
 8008bf2:	f001 0105 	and.w	r1, r1, #5
 8008bf6:	2905      	cmp	r1, #5
 8008bf8:	d119      	bne.n	8008c2e <ip4_route+0x4e>
 8008bfa:	6851      	ldr	r1, [r2, #4]
 8008bfc:	b1b9      	cbz	r1, 8008c2e <ip4_route+0x4e>
 8008bfe:	7801      	ldrb	r1, [r0, #0]
 8008c00:	297f      	cmp	r1, #127	; 0x7f
 8008c02:	bf18      	it	ne
 8008c04:	4613      	movne	r3, r2
 8008c06:	e012      	b.n	8008c2e <ip4_route+0x4e>
 8008c08:	f893 102d 	ldrb.w	r1, [r3, #45]	; 0x2d
 8008c0c:	07cd      	lsls	r5, r1, #31
 8008c0e:	d5e9      	bpl.n	8008be4 <ip4_route+0x4>
 8008c10:	074c      	lsls	r4, r1, #29
 8008c12:	d5e7      	bpl.n	8008be4 <ip4_route+0x4>
 8008c14:	685a      	ldr	r2, [r3, #4]
 8008c16:	2a00      	cmp	r2, #0
 8008c18:	d0e4      	beq.n	8008be4 <ip4_route+0x4>
 8008c1a:	6804      	ldr	r4, [r0, #0]
 8008c1c:	689d      	ldr	r5, [r3, #8]
 8008c1e:	4062      	eors	r2, r4
 8008c20:	422a      	tst	r2, r5
 8008c22:	d004      	beq.n	8008c2e <ip4_route+0x4e>
 8008c24:	078a      	lsls	r2, r1, #30
 8008c26:	d4dd      	bmi.n	8008be4 <ip4_route+0x4>
 8008c28:	68da      	ldr	r2, [r3, #12]
 8008c2a:	4294      	cmp	r4, r2
 8008c2c:	d1da      	bne.n	8008be4 <ip4_route+0x4>
 8008c2e:	4618      	mov	r0, r3
 8008c30:	bd30      	pop	{r4, r5, pc}
 8008c32:	bf00      	nop
 8008c34:	2000aa14 	.word	0x2000aa14
 8008c38:	2000aa10 	.word	0x2000aa10

08008c3c <ip4_input>:
 8008c3c:	e92d 43f8 	stmdb	sp!, {r3, r4, r5, r6, r7, r8, r9, lr}
 8008c40:	f8d0 8004 	ldr.w	r8, [r0, #4]
 8008c44:	4604      	mov	r4, r0
 8008c46:	460e      	mov	r6, r1
 8008c48:	f898 5000 	ldrb.w	r5, [r8]
 8008c4c:	092b      	lsrs	r3, r5, #4
 8008c4e:	2b04      	cmp	r3, #4
 8008c50:	d005      	beq.n	8008c5e <ip4_input+0x22>
 8008c52:	4620      	mov	r0, r4
 8008c54:	f7fb fcac 	bl	80045b0 <pbuf_free>
 8008c58:	2000      	movs	r0, #0
 8008c5a:	e8bd 83f8 	ldmia.w	sp!, {r3, r4, r5, r6, r7, r8, r9, pc}
 8008c5e:	f8b8 0002 	ldrh.w	r0, [r8, #2]
 8008c62:	f005 050f 	and.w	r5, r5, #15
 8008c66:	f7fa ff59 	bl	8003b1c <lwip_htons>
 8008c6a:	8923      	ldrh	r3, [r4, #8]
 8008c6c:	ea4f 0985 	mov.w	r9, r5, lsl #2
 8008c70:	4607      	mov	r7, r0
 8008c72:	4283      	cmp	r3, r0
 8008c74:	464d      	mov	r5, r9
 8008c76:	d903      	bls.n	8008c80 <ip4_input+0x44>
 8008c78:	4601      	mov	r1, r0
 8008c7a:	4620      	mov	r0, r4
 8008c7c:	f7fb fd7c 	bl	8004778 <pbuf_realloc>
 8008c80:	8963      	ldrh	r3, [r4, #10]
 8008c82:	42ab      	cmp	r3, r5
 8008c84:	d3e5      	bcc.n	8008c52 <ip4_input+0x16>
 8008c86:	8923      	ldrh	r3, [r4, #8]
 8008c88:	42bb      	cmp	r3, r7
 8008c8a:	d3e2      	bcc.n	8008c52 <ip4_input+0x16>
 8008c8c:	2d13      	cmp	r5, #19
 8008c8e:	d9e0      	bls.n	8008c52 <ip4_input+0x16>
 8008c90:	f8d8 3010 	ldr.w	r3, [r8, #16]
 8008c94:	4d41      	ldr	r5, [pc, #260]	; (8008d9c <ip4_input+0x160>)
 8008c96:	616b      	str	r3, [r5, #20]
 8008c98:	f003 03f0 	and.w	r3, r3, #240	; 0xf0
 8008c9c:	f8d8 200c 	ldr.w	r2, [r8, #12]
 8008ca0:	2be0      	cmp	r3, #224	; 0xe0
 8008ca2:	612a      	str	r2, [r5, #16]
 8008ca4:	d13c      	bne.n	8008d20 <ip4_input+0xe4>
 8008ca6:	f896 302d 	ldrb.w	r3, [r6, #45]	; 0x2d
 8008caa:	07db      	lsls	r3, r3, #31
 8008cac:	d543      	bpl.n	8008d36 <ip4_input+0xfa>
 8008cae:	6873      	ldr	r3, [r6, #4]
 8008cb0:	2b00      	cmp	r3, #0
 8008cb2:	d040      	beq.n	8008d36 <ip4_input+0xfa>
 8008cb4:	4637      	mov	r7, r6
 8008cb6:	4631      	mov	r1, r6
 8008cb8:	6928      	ldr	r0, [r5, #16]
 8008cba:	f000 f900 	bl	8008ebe <ip4_addr_isbroadcast_u32>
 8008cbe:	2800      	cmp	r0, #0
 8008cc0:	d1c7      	bne.n	8008c52 <ip4_input+0x16>
 8008cc2:	692b      	ldr	r3, [r5, #16]
 8008cc4:	f003 03f0 	and.w	r3, r3, #240	; 0xf0
 8008cc8:	2be0      	cmp	r3, #224	; 0xe0
 8008cca:	d0c2      	beq.n	8008c52 <ip4_input+0x16>
 8008ccc:	2f00      	cmp	r7, #0
 8008cce:	d0c0      	beq.n	8008c52 <ip4_input+0x16>
 8008cd0:	f8b8 3006 	ldrh.w	r3, [r8, #6]
 8008cd4:	f023 03c0 	bic.w	r3, r3, #192	; 0xc0
 8008cd8:	b13b      	cbz	r3, 8008cea <ip4_input+0xae>
 8008cda:	4620      	mov	r0, r4
 8008cdc:	f000 fa22 	bl	8009124 <ip4_reass>
 8008ce0:	4604      	mov	r4, r0
 8008ce2:	2800      	cmp	r0, #0
 8008ce4:	d0b8      	beq.n	8008c58 <ip4_input+0x1c>
 8008ce6:	f8d0 8004 	ldr.w	r8, [r0, #4]
 8008cea:	f8c5 8008 	str.w	r8, [r5, #8]
 8008cee:	4649      	mov	r1, r9
 8008cf0:	4620      	mov	r0, r4
 8008cf2:	e9c5 7600 	strd	r7, r6, [r5]
 8008cf6:	f898 3000 	ldrb.w	r3, [r8]
 8008cfa:	f003 030f 	and.w	r3, r3, #15
 8008cfe:	009b      	lsls	r3, r3, #2
 8008d00:	81ab      	strh	r3, [r5, #12]
 8008d02:	f7fb fc21 	bl	8004548 <pbuf_remove_header>
 8008d06:	f898 3009 	ldrb.w	r3, [r8, #9]
 8008d0a:	2b06      	cmp	r3, #6
 8008d0c:	d02b      	beq.n	8008d66 <ip4_input+0x12a>
 8008d0e:	2b11      	cmp	r3, #17
 8008d10:	d01d      	beq.n	8008d4e <ip4_input+0x112>
 8008d12:	2b01      	cmp	r3, #1
 8008d14:	d12c      	bne.n	8008d70 <ip4_input+0x134>
 8008d16:	4631      	mov	r1, r6
 8008d18:	4620      	mov	r0, r4
 8008d1a:	f7ff fea9 	bl	8008a70 <icmp_input>
 8008d1e:	e01a      	b.n	8008d56 <ip4_input+0x11a>
 8008d20:	4630      	mov	r0, r6
 8008d22:	f7ff ff43 	bl	8008bac <ip4_input_accept>
 8008d26:	2800      	cmp	r0, #0
 8008d28:	d1c4      	bne.n	8008cb4 <ip4_input+0x78>
 8008d2a:	7d2b      	ldrb	r3, [r5, #20]
 8008d2c:	2b7f      	cmp	r3, #127	; 0x7f
 8008d2e:	d002      	beq.n	8008d36 <ip4_input+0xfa>
 8008d30:	4b1b      	ldr	r3, [pc, #108]	; (8008da0 <ip4_input+0x164>)
 8008d32:	681f      	ldr	r7, [r3, #0]
 8008d34:	b90f      	cbnz	r7, 8008d3a <ip4_input+0xfe>
 8008d36:	2700      	movs	r7, #0
 8008d38:	e7bd      	b.n	8008cb6 <ip4_input+0x7a>
 8008d3a:	42b7      	cmp	r7, r6
 8008d3c:	d101      	bne.n	8008d42 <ip4_input+0x106>
 8008d3e:	683f      	ldr	r7, [r7, #0]
 8008d40:	e7f8      	b.n	8008d34 <ip4_input+0xf8>
 8008d42:	4638      	mov	r0, r7
 8008d44:	f7ff ff32 	bl	8008bac <ip4_input_accept>
 8008d48:	2800      	cmp	r0, #0
 8008d4a:	d0f8      	beq.n	8008d3e <ip4_input+0x102>
 8008d4c:	e7b3      	b.n	8008cb6 <ip4_input+0x7a>
 8008d4e:	4631      	mov	r1, r6
 8008d50:	4620      	mov	r0, r4
 8008d52:	f7ff f827 	bl	8007da4 <udp_input>
 8008d56:	2300      	movs	r3, #0
 8008d58:	e9c5 3300 	strd	r3, r3, [r5]
 8008d5c:	60ab      	str	r3, [r5, #8]
 8008d5e:	81ab      	strh	r3, [r5, #12]
 8008d60:	e9c5 3304 	strd	r3, r3, [r5, #16]
 8008d64:	e778      	b.n	8008c58 <ip4_input+0x1c>
 8008d66:	4631      	mov	r1, r6
 8008d68:	4620      	mov	r0, r4
 8008d6a:	f7fd fb25 	bl	80063b8 <tcp_input>
 8008d6e:	e7f2      	b.n	8008d56 <ip4_input+0x11a>
 8008d70:	4639      	mov	r1, r7
 8008d72:	6968      	ldr	r0, [r5, #20]
 8008d74:	f000 f8a3 	bl	8008ebe <ip4_addr_isbroadcast_u32>
 8008d78:	b960      	cbnz	r0, 8008d94 <ip4_input+0x158>
 8008d7a:	696b      	ldr	r3, [r5, #20]
 8008d7c:	f003 03f0 	and.w	r3, r3, #240	; 0xf0
 8008d80:	2be0      	cmp	r3, #224	; 0xe0
 8008d82:	d007      	beq.n	8008d94 <ip4_input+0x158>
 8008d84:	4649      	mov	r1, r9
 8008d86:	4620      	mov	r0, r4
 8008d88:	f7fb fc0a 	bl	80045a0 <pbuf_header_force>
 8008d8c:	2102      	movs	r1, #2
 8008d8e:	4620      	mov	r0, r4
 8008d90:	f7ff ff04 	bl	8008b9c <icmp_dest_unreach>
 8008d94:	4620      	mov	r0, r4
 8008d96:	f7fb fc0b 	bl	80045b0 <pbuf_free>
 8008d9a:	e7dc      	b.n	8008d56 <ip4_input+0x11a>
 8008d9c:	200052f4 	.word	0x200052f4
 8008da0:	2000aa14 	.word	0x2000aa14

08008da4 <ip4_output_if_src>:
 8008da4:	e92d 47f3 	stmdb	sp!, {r0, r1, r4, r5, r6, r7, r8, r9, sl, lr}
 8008da8:	4698      	mov	r8, r3
 8008daa:	7b83      	ldrb	r3, [r0, #14]
 8008dac:	4604      	mov	r4, r0
 8008dae:	4689      	mov	r9, r1
 8008db0:	2b01      	cmp	r3, #1
 8008db2:	4616      	mov	r6, r2
 8008db4:	9f0c      	ldr	r7, [sp, #48]	; 0x30
 8008db6:	d006      	beq.n	8008dc6 <ip4_output_if_src+0x22>
 8008db8:	4b32      	ldr	r3, [pc, #200]	; (8008e84 <ip4_output_if_src+0xe0>)
 8008dba:	f44f 7255 	mov.w	r2, #852	; 0x354
 8008dbe:	4932      	ldr	r1, [pc, #200]	; (8008e88 <ip4_output_if_src+0xe4>)
 8008dc0:	4832      	ldr	r0, [pc, #200]	; (8008e8c <ip4_output_if_src+0xe8>)
 8008dc2:	f000 fe7f 	bl	8009ac4 <iprintf>
 8008dc6:	2e00      	cmp	r6, #0
 8008dc8:	d04e      	beq.n	8008e68 <ip4_output_if_src+0xc4>
 8008dca:	2114      	movs	r1, #20
 8008dcc:	4620      	mov	r0, r4
 8008dce:	f7fb fbb7 	bl	8004540 <pbuf_add_header>
 8008dd2:	b120      	cbz	r0, 8008dde <ip4_output_if_src+0x3a>
 8008dd4:	f06f 0001 	mvn.w	r0, #1
 8008dd8:	b002      	add	sp, #8
 8008dda:	e8bd 87f0 	ldmia.w	sp!, {r4, r5, r6, r7, r8, r9, sl, pc}
 8008dde:	8963      	ldrh	r3, [r4, #10]
 8008de0:	6865      	ldr	r5, [r4, #4]
 8008de2:	2b13      	cmp	r3, #19
 8008de4:	d806      	bhi.n	8008df4 <ip4_output_if_src+0x50>
 8008de6:	4b27      	ldr	r3, [pc, #156]	; (8008e84 <ip4_output_if_src+0xe0>)
 8008de8:	f44f 7262 	mov.w	r2, #904	; 0x388
 8008dec:	4928      	ldr	r1, [pc, #160]	; (8008e90 <ip4_output_if_src+0xec>)
 8008dee:	4827      	ldr	r0, [pc, #156]	; (8008e8c <ip4_output_if_src+0xe8>)
 8008df0:	f000 fe68 	bl	8009ac4 <iprintf>
 8008df4:	f89d 302c 	ldrb.w	r3, [sp, #44]	; 0x2c
 8008df8:	f885 8008 	strb.w	r8, [r5, #8]
 8008dfc:	f04f 0800 	mov.w	r8, #0
 8008e00:	726b      	strb	r3, [r5, #9]
 8008e02:	6833      	ldr	r3, [r6, #0]
 8008e04:	f8df a090 	ldr.w	sl, [pc, #144]	; 8008e98 <ip4_output_if_src+0xf4>
 8008e08:	612b      	str	r3, [r5, #16]
 8008e0a:	2345      	movs	r3, #69	; 0x45
 8008e0c:	702b      	strb	r3, [r5, #0]
 8008e0e:	f89d 3028 	ldrb.w	r3, [sp, #40]	; 0x28
 8008e12:	706b      	strb	r3, [r5, #1]
 8008e14:	8920      	ldrh	r0, [r4, #8]
 8008e16:	f7fa fe81 	bl	8003b1c <lwip_htons>
 8008e1a:	f885 8006 	strb.w	r8, [r5, #6]
 8008e1e:	8068      	strh	r0, [r5, #2]
 8008e20:	f885 8007 	strb.w	r8, [r5, #7]
 8008e24:	f8ba 0000 	ldrh.w	r0, [sl]
 8008e28:	f7fa fe78 	bl	8003b1c <lwip_htons>
 8008e2c:	f8ba 3000 	ldrh.w	r3, [sl]
 8008e30:	80a8      	strh	r0, [r5, #4]
 8008e32:	3301      	adds	r3, #1
 8008e34:	f8aa 3000 	strh.w	r3, [sl]
 8008e38:	f1b9 0f00 	cmp.w	r9, #0
 8008e3c:	d111      	bne.n	8008e62 <ip4_output_if_src+0xbe>
 8008e3e:	4b15      	ldr	r3, [pc, #84]	; (8008e94 <ip4_output_if_src+0xf0>)
 8008e40:	681b      	ldr	r3, [r3, #0]
 8008e42:	60eb      	str	r3, [r5, #12]
 8008e44:	f885 800a 	strb.w	r8, [r5, #10]
 8008e48:	f885 800b 	strb.w	r8, [r5, #11]
 8008e4c:	8cbb      	ldrh	r3, [r7, #36]	; 0x24
 8008e4e:	b19b      	cbz	r3, 8008e78 <ip4_output_if_src+0xd4>
 8008e50:	8922      	ldrh	r2, [r4, #8]
 8008e52:	429a      	cmp	r2, r3
 8008e54:	d910      	bls.n	8008e78 <ip4_output_if_src+0xd4>
 8008e56:	4632      	mov	r2, r6
 8008e58:	4639      	mov	r1, r7
 8008e5a:	4620      	mov	r0, r4
 8008e5c:	f000 fb3a 	bl	80094d4 <ip4_frag>
 8008e60:	e7ba      	b.n	8008dd8 <ip4_output_if_src+0x34>
 8008e62:	f8d9 3000 	ldr.w	r3, [r9]
 8008e66:	e7ec      	b.n	8008e42 <ip4_output_if_src+0x9e>
 8008e68:	8963      	ldrh	r3, [r4, #10]
 8008e6a:	2b13      	cmp	r3, #19
 8008e6c:	d9b2      	bls.n	8008dd4 <ip4_output_if_src+0x30>
 8008e6e:	6863      	ldr	r3, [r4, #4]
 8008e70:	ae01      	add	r6, sp, #4
 8008e72:	691b      	ldr	r3, [r3, #16]
 8008e74:	9301      	str	r3, [sp, #4]
 8008e76:	e7e9      	b.n	8008e4c <ip4_output_if_src+0xa8>
 8008e78:	697b      	ldr	r3, [r7, #20]
 8008e7a:	4632      	mov	r2, r6
 8008e7c:	4621      	mov	r1, r4
 8008e7e:	4638      	mov	r0, r7
 8008e80:	4798      	blx	r3
 8008e82:	e7a9      	b.n	8008dd8 <ip4_output_if_src+0x34>
 8008e84:	0800d894 	.word	0x0800d894
 8008e88:	0800d8c8 	.word	0x0800d8c8
 8008e8c:	0800be06 	.word	0x0800be06
 8008e90:	0800d8d4 	.word	0x0800d8d4
 8008e94:	0800d904 	.word	0x0800d904
 8008e98:	2000ab7a 	.word	0x2000ab7a

08008e9c <ip4_output_if>:
 8008e9c:	b4f0      	push	{r4, r5, r6, r7}
 8008e9e:	9c06      	ldr	r4, [sp, #24]
 8008ea0:	f89d 5010 	ldrb.w	r5, [sp, #16]
 8008ea4:	f89d 6014 	ldrb.w	r6, [sp, #20]
 8008ea8:	b11a      	cbz	r2, 8008eb2 <ip4_output_if+0x16>
 8008eaa:	b109      	cbz	r1, 8008eb0 <ip4_output_if+0x14>
 8008eac:	680f      	ldr	r7, [r1, #0]
 8008eae:	b907      	cbnz	r7, 8008eb2 <ip4_output_if+0x16>
 8008eb0:	1d21      	adds	r1, r4, #4
 8008eb2:	9504      	str	r5, [sp, #16]
 8008eb4:	e9cd 6405 	strd	r6, r4, [sp, #20]
 8008eb8:	bcf0      	pop	{r4, r5, r6, r7}
 8008eba:	f7ff bf73 	b.w	8008da4 <ip4_output_if_src>

08008ebe <ip4_addr_isbroadcast_u32>:
 8008ebe:	1e43      	subs	r3, r0, #1
 8008ec0:	3303      	adds	r3, #3
 8008ec2:	d813      	bhi.n	8008eec <ip4_addr_isbroadcast_u32+0x2e>
 8008ec4:	f891 302d 	ldrb.w	r3, [r1, #45]	; 0x2d
 8008ec8:	f013 0302 	ands.w	r3, r3, #2
 8008ecc:	d00c      	beq.n	8008ee8 <ip4_addr_isbroadcast_u32+0x2a>
 8008ece:	684b      	ldr	r3, [r1, #4]
 8008ed0:	4283      	cmp	r3, r0
 8008ed2:	d00d      	beq.n	8008ef0 <ip4_addr_isbroadcast_u32+0x32>
 8008ed4:	688a      	ldr	r2, [r1, #8]
 8008ed6:	4043      	eors	r3, r0
 8008ed8:	4213      	tst	r3, r2
 8008eda:	d109      	bne.n	8008ef0 <ip4_addr_isbroadcast_u32+0x32>
 8008edc:	43d3      	mvns	r3, r2
 8008ede:	ea20 0002 	bic.w	r0, r0, r2
 8008ee2:	1ac2      	subs	r2, r0, r3
 8008ee4:	4253      	negs	r3, r2
 8008ee6:	4153      	adcs	r3, r2
 8008ee8:	4618      	mov	r0, r3
 8008eea:	4770      	bx	lr
 8008eec:	2301      	movs	r3, #1
 8008eee:	e7fb      	b.n	8008ee8 <ip4_addr_isbroadcast_u32+0x2a>
 8008ef0:	2300      	movs	r3, #0
 8008ef2:	e7f9      	b.n	8008ee8 <ip4_addr_isbroadcast_u32+0x2a>

08008ef4 <ip_reass_dequeue_datagram>:
 8008ef4:	b538      	push	{r3, r4, r5, lr}
 8008ef6:	4b0c      	ldr	r3, [pc, #48]	; (8008f28 <ip_reass_dequeue_datagram+0x34>)
 8008ef8:	4604      	mov	r4, r0
 8008efa:	460d      	mov	r5, r1
 8008efc:	681a      	ldr	r2, [r3, #0]
 8008efe:	4282      	cmp	r2, r0
 8008f00:	d107      	bne.n	8008f12 <ip_reass_dequeue_datagram+0x1e>
 8008f02:	6802      	ldr	r2, [r0, #0]
 8008f04:	601a      	str	r2, [r3, #0]
 8008f06:	4621      	mov	r1, r4
 8008f08:	2004      	movs	r0, #4
 8008f0a:	e8bd 4038 	ldmia.w	sp!, {r3, r4, r5, lr}
 8008f0e:	f7fb b8d1 	b.w	80040b4 <memp_free>
 8008f12:	b931      	cbnz	r1, 8008f22 <ip_reass_dequeue_datagram+0x2e>
 8008f14:	4b05      	ldr	r3, [pc, #20]	; (8008f2c <ip_reass_dequeue_datagram+0x38>)
 8008f16:	f240 1245 	movw	r2, #325	; 0x145
 8008f1a:	4905      	ldr	r1, [pc, #20]	; (8008f30 <ip_reass_dequeue_datagram+0x3c>)
 8008f1c:	4805      	ldr	r0, [pc, #20]	; (8008f34 <ip_reass_dequeue_datagram+0x40>)
 8008f1e:	f000 fdd1 	bl	8009ac4 <iprintf>
 8008f22:	6823      	ldr	r3, [r4, #0]
 8008f24:	602b      	str	r3, [r5, #0]
 8008f26:	e7ee      	b.n	8008f06 <ip_reass_dequeue_datagram+0x12>
 8008f28:	2000ab80 	.word	0x2000ab80
 8008f2c:	0800d908 	.word	0x0800d908
 8008f30:	0800d941 	.word	0x0800d941
 8008f34:	0800be06 	.word	0x0800be06

08008f38 <ip_reass_free_complete_datagram>:
 8008f38:	4281      	cmp	r1, r0
 8008f3a:	e92d 4ff8 	stmdb	sp!, {r3, r4, r5, r6, r7, r8, r9, sl, fp, lr}
 8008f3e:	4604      	mov	r4, r0
 8008f40:	460e      	mov	r6, r1
 8008f42:	d105      	bne.n	8008f50 <ip_reass_free_complete_datagram+0x18>
 8008f44:	4b2f      	ldr	r3, [pc, #188]	; (8009004 <ip_reass_free_complete_datagram+0xcc>)
 8008f46:	22ab      	movs	r2, #171	; 0xab
 8008f48:	492f      	ldr	r1, [pc, #188]	; (8009008 <ip_reass_free_complete_datagram+0xd0>)
 8008f4a:	4830      	ldr	r0, [pc, #192]	; (800900c <ip_reass_free_complete_datagram+0xd4>)
 8008f4c:	f000 fdba 	bl	8009ac4 <iprintf>
 8008f50:	b146      	cbz	r6, 8008f64 <ip_reass_free_complete_datagram+0x2c>
 8008f52:	6833      	ldr	r3, [r6, #0]
 8008f54:	42a3      	cmp	r3, r4
 8008f56:	d005      	beq.n	8008f64 <ip_reass_free_complete_datagram+0x2c>
 8008f58:	4b2a      	ldr	r3, [pc, #168]	; (8009004 <ip_reass_free_complete_datagram+0xcc>)
 8008f5a:	22ad      	movs	r2, #173	; 0xad
 8008f5c:	492c      	ldr	r1, [pc, #176]	; (8009010 <ip_reass_free_complete_datagram+0xd8>)
 8008f5e:	482b      	ldr	r0, [pc, #172]	; (800900c <ip_reass_free_complete_datagram+0xd4>)
 8008f60:	f000 fdb0 	bl	8009ac4 <iprintf>
 8008f64:	6867      	ldr	r7, [r4, #4]
 8008f66:	687b      	ldr	r3, [r7, #4]
 8008f68:	889a      	ldrh	r2, [r3, #4]
 8008f6a:	bb92      	cbnz	r2, 8008fd2 <ip_reass_free_complete_datagram+0x9a>
 8008f6c:	681a      	ldr	r2, [r3, #0]
 8008f6e:	f104 011c 	add.w	r1, r4, #28
 8008f72:	6062      	str	r2, [r4, #4]
 8008f74:	f104 0208 	add.w	r2, r4, #8
 8008f78:	f852 0b04 	ldr.w	r0, [r2], #4
 8008f7c:	428a      	cmp	r2, r1
 8008f7e:	f843 0b04 	str.w	r0, [r3], #4
 8008f82:	d1f9      	bne.n	8008f78 <ip_reass_free_complete_datagram+0x40>
 8008f84:	2101      	movs	r1, #1
 8008f86:	4638      	mov	r0, r7
 8008f88:	f7ff fe0c 	bl	8008ba4 <icmp_time_exceeded>
 8008f8c:	4638      	mov	r0, r7
 8008f8e:	f7fb fc4b 	bl	8004828 <pbuf_clen>
 8008f92:	4605      	mov	r5, r0
 8008f94:	4638      	mov	r0, r7
 8008f96:	f7fb fb0b 	bl	80045b0 <pbuf_free>
 8008f9a:	6867      	ldr	r7, [r4, #4]
 8008f9c:	f8df 8064 	ldr.w	r8, [pc, #100]	; 8009004 <ip_reass_free_complete_datagram+0xcc>
 8008fa0:	f8df 9078 	ldr.w	r9, [pc, #120]	; 800901c <ip_reass_free_complete_datagram+0xe4>
 8008fa4:	f8df a064 	ldr.w	sl, [pc, #100]	; 800900c <ip_reass_free_complete_datagram+0xd4>
 8008fa8:	b9af      	cbnz	r7, 8008fd6 <ip_reass_free_complete_datagram+0x9e>
 8008faa:	4620      	mov	r0, r4
 8008fac:	4c19      	ldr	r4, [pc, #100]	; (8009014 <ip_reass_free_complete_datagram+0xdc>)
 8008fae:	4631      	mov	r1, r6
 8008fb0:	f7ff ffa0 	bl	8008ef4 <ip_reass_dequeue_datagram>
 8008fb4:	8823      	ldrh	r3, [r4, #0]
 8008fb6:	42ab      	cmp	r3, r5
 8008fb8:	d205      	bcs.n	8008fc6 <ip_reass_free_complete_datagram+0x8e>
 8008fba:	4b12      	ldr	r3, [pc, #72]	; (8009004 <ip_reass_free_complete_datagram+0xcc>)
 8008fbc:	22d2      	movs	r2, #210	; 0xd2
 8008fbe:	4916      	ldr	r1, [pc, #88]	; (8009018 <ip_reass_free_complete_datagram+0xe0>)
 8008fc0:	4812      	ldr	r0, [pc, #72]	; (800900c <ip_reass_free_complete_datagram+0xd4>)
 8008fc2:	f000 fd7f 	bl	8009ac4 <iprintf>
 8008fc6:	8823      	ldrh	r3, [r4, #0]
 8008fc8:	4628      	mov	r0, r5
 8008fca:	1b5b      	subs	r3, r3, r5
 8008fcc:	8023      	strh	r3, [r4, #0]
 8008fce:	e8bd 8ff8 	ldmia.w	sp!, {r3, r4, r5, r6, r7, r8, r9, sl, fp, pc}
 8008fd2:	2500      	movs	r5, #0
 8008fd4:	e7e1      	b.n	8008f9a <ip_reass_free_complete_datagram+0x62>
 8008fd6:	687b      	ldr	r3, [r7, #4]
 8008fd8:	4638      	mov	r0, r7
 8008fda:	f8d3 b000 	ldr.w	fp, [r3]
 8008fde:	f7fb fc23 	bl	8004828 <pbuf_clen>
 8008fe2:	4405      	add	r5, r0
 8008fe4:	f5b5 3f80 	cmp.w	r5, #65536	; 0x10000
 8008fe8:	db05      	blt.n	8008ff6 <ip_reass_free_complete_datagram+0xbe>
 8008fea:	4643      	mov	r3, r8
 8008fec:	22cc      	movs	r2, #204	; 0xcc
 8008fee:	4649      	mov	r1, r9
 8008ff0:	4650      	mov	r0, sl
 8008ff2:	f000 fd67 	bl	8009ac4 <iprintf>
 8008ff6:	4638      	mov	r0, r7
 8008ff8:	b2ad      	uxth	r5, r5
 8008ffa:	465f      	mov	r7, fp
 8008ffc:	f7fb fad8 	bl	80045b0 <pbuf_free>
 8009000:	e7d2      	b.n	8008fa8 <ip_reass_free_complete_datagram+0x70>
 8009002:	bf00      	nop
 8009004:	0800d908 	.word	0x0800d908
 8009008:	0800d95a 	.word	0x0800d95a
 800900c:	0800be06 	.word	0x0800be06
 8009010:	0800d966 	.word	0x0800d966
 8009014:	2000ab7c 	.word	0x2000ab7c
 8009018:	0800d995 	.word	0x0800d995
 800901c:	0800d978 	.word	0x0800d978

08009020 <ip_reass_remove_oldest_datagram>:
 8009020:	e92d 41f0 	stmdb	sp!, {r4, r5, r6, r7, r8, lr}
 8009024:	4605      	mov	r5, r0
 8009026:	460f      	mov	r7, r1
 8009028:	2600      	movs	r6, #0
 800902a:	f8df 8068 	ldr.w	r8, [pc, #104]	; 8009094 <ip_reass_remove_oldest_datagram+0x74>
 800902e:	2400      	movs	r4, #0
 8009030:	f8d8 3000 	ldr.w	r3, [r8]
 8009034:	4621      	mov	r1, r4
 8009036:	46a4      	mov	ip, r4
 8009038:	4620      	mov	r0, r4
 800903a:	b953      	cbnz	r3, 8009052 <ip_reass_remove_oldest_datagram+0x32>
 800903c:	b110      	cbz	r0, 8009044 <ip_reass_remove_oldest_datagram+0x24>
 800903e:	f7ff ff7b 	bl	8008f38 <ip_reass_free_complete_datagram>
 8009042:	4406      	add	r6, r0
 8009044:	42be      	cmp	r6, r7
 8009046:	da01      	bge.n	800904c <ip_reass_remove_oldest_datagram+0x2c>
 8009048:	2c01      	cmp	r4, #1
 800904a:	dcf0      	bgt.n	800902e <ip_reass_remove_oldest_datagram+0xe>
 800904c:	4630      	mov	r0, r6
 800904e:	e8bd 81f0 	ldmia.w	sp!, {r4, r5, r6, r7, r8, pc}
 8009052:	f8d5 e00c 	ldr.w	lr, [r5, #12]
 8009056:	695a      	ldr	r2, [r3, #20]
 8009058:	4572      	cmp	r2, lr
 800905a:	d109      	bne.n	8009070 <ip_reass_remove_oldest_datagram+0x50>
 800905c:	f8d5 e010 	ldr.w	lr, [r5, #16]
 8009060:	699a      	ldr	r2, [r3, #24]
 8009062:	4572      	cmp	r2, lr
 8009064:	d104      	bne.n	8009070 <ip_reass_remove_oldest_datagram+0x50>
 8009066:	f8b3 e00c 	ldrh.w	lr, [r3, #12]
 800906a:	88aa      	ldrh	r2, [r5, #4]
 800906c:	4596      	cmp	lr, r2
 800906e:	d008      	beq.n	8009082 <ip_reass_remove_oldest_datagram+0x62>
 8009070:	3401      	adds	r4, #1
 8009072:	b160      	cbz	r0, 800908e <ip_reass_remove_oldest_datagram+0x6e>
 8009074:	7fc2      	ldrb	r2, [r0, #31]
 8009076:	f893 e01f 	ldrb.w	lr, [r3, #31]
 800907a:	4596      	cmp	lr, r2
 800907c:	bf9c      	itt	ls
 800907e:	4661      	movls	r1, ip
 8009080:	4618      	movls	r0, r3
 8009082:	681a      	ldr	r2, [r3, #0]
 8009084:	2a00      	cmp	r2, #0
 8009086:	bf18      	it	ne
 8009088:	469c      	movne	ip, r3
 800908a:	4613      	mov	r3, r2
 800908c:	e7d5      	b.n	800903a <ip_reass_remove_oldest_datagram+0x1a>
 800908e:	4661      	mov	r1, ip
 8009090:	4618      	mov	r0, r3
 8009092:	e7f6      	b.n	8009082 <ip_reass_remove_oldest_datagram+0x62>
 8009094:	2000ab80 	.word	0x2000ab80

08009098 <ip_frag_free_pbuf_custom_ref>:
 8009098:	b510      	push	{r4, lr}
 800909a:	4604      	mov	r4, r0
 800909c:	b930      	cbnz	r0, 80090ac <ip_frag_free_pbuf_custom_ref+0x14>
 800909e:	4b06      	ldr	r3, [pc, #24]	; (80090b8 <ip_frag_free_pbuf_custom_ref+0x20>)
 80090a0:	f44f 7231 	mov.w	r2, #708	; 0x2c4
 80090a4:	4905      	ldr	r1, [pc, #20]	; (80090bc <ip_frag_free_pbuf_custom_ref+0x24>)
 80090a6:	4806      	ldr	r0, [pc, #24]	; (80090c0 <ip_frag_free_pbuf_custom_ref+0x28>)
 80090a8:	f000 fd0c 	bl	8009ac4 <iprintf>
 80090ac:	4621      	mov	r1, r4
 80090ae:	2005      	movs	r0, #5
 80090b0:	e8bd 4010 	ldmia.w	sp!, {r4, lr}
 80090b4:	f7fa bffe 	b.w	80040b4 <memp_free>
 80090b8:	0800d908 	.word	0x0800d908
 80090bc:	0800c481 	.word	0x0800c481
 80090c0:	0800be06 	.word	0x0800be06

080090c4 <ipfrag_free_pbuf_custom>:
 80090c4:	b510      	push	{r4, lr}
 80090c6:	4604      	mov	r4, r0
 80090c8:	b930      	cbnz	r0, 80090d8 <ipfrag_free_pbuf_custom+0x14>
 80090ca:	4b08      	ldr	r3, [pc, #32]	; (80090ec <ipfrag_free_pbuf_custom+0x28>)
 80090cc:	f240 22ce 	movw	r2, #718	; 0x2ce
 80090d0:	4907      	ldr	r1, [pc, #28]	; (80090f0 <ipfrag_free_pbuf_custom+0x2c>)
 80090d2:	4808      	ldr	r0, [pc, #32]	; (80090f4 <ipfrag_free_pbuf_custom+0x30>)
 80090d4:	f000 fcf6 	bl	8009ac4 <iprintf>
 80090d8:	6960      	ldr	r0, [r4, #20]
 80090da:	b108      	cbz	r0, 80090e0 <ipfrag_free_pbuf_custom+0x1c>
 80090dc:	f7fb fa68 	bl	80045b0 <pbuf_free>
 80090e0:	4620      	mov	r0, r4
 80090e2:	e8bd 4010 	ldmia.w	sp!, {r4, lr}
 80090e6:	f7ff bfd7 	b.w	8009098 <ip_frag_free_pbuf_custom_ref>
 80090ea:	bf00      	nop
 80090ec:	0800d908 	.word	0x0800d908
 80090f0:	0800d9b7 	.word	0x0800d9b7
 80090f4:	0800be06 	.word	0x0800be06

080090f8 <ip_reass_tmr>:
 80090f8:	b538      	push	{r3, r4, r5, lr}
 80090fa:	4b09      	ldr	r3, [pc, #36]	; (8009120 <ip_reass_tmr+0x28>)
 80090fc:	2400      	movs	r4, #0
 80090fe:	6818      	ldr	r0, [r3, #0]
 8009100:	b900      	cbnz	r0, 8009104 <ip_reass_tmr+0xc>
 8009102:	bd38      	pop	{r3, r4, r5, pc}
 8009104:	7fc3      	ldrb	r3, [r0, #31]
 8009106:	6805      	ldr	r5, [r0, #0]
 8009108:	b123      	cbz	r3, 8009114 <ip_reass_tmr+0x1c>
 800910a:	3b01      	subs	r3, #1
 800910c:	77c3      	strb	r3, [r0, #31]
 800910e:	4604      	mov	r4, r0
 8009110:	4628      	mov	r0, r5
 8009112:	e7f5      	b.n	8009100 <ip_reass_tmr+0x8>
 8009114:	4621      	mov	r1, r4
 8009116:	f7ff ff0f 	bl	8008f38 <ip_reass_free_complete_datagram>
 800911a:	4620      	mov	r0, r4
 800911c:	e7f7      	b.n	800910e <ip_reass_tmr+0x16>
 800911e:	bf00      	nop
 8009120:	2000ab80 	.word	0x2000ab80

08009124 <ip4_reass>:
 8009124:	e92d 4ff7 	stmdb	sp!, {r0, r1, r2, r4, r5, r6, r7, r8, r9, sl, fp, lr}
 8009128:	6845      	ldr	r5, [r0, #4]
 800912a:	4680      	mov	r8, r0
 800912c:	782b      	ldrb	r3, [r5, #0]
 800912e:	f003 030f 	and.w	r3, r3, #15
 8009132:	2b05      	cmp	r3, #5
 8009134:	f040 80a1 	bne.w	800927a <ip4_reass+0x156>
 8009138:	88e8      	ldrh	r0, [r5, #6]
 800913a:	f7fa fcef 	bl	8003b1c <lwip_htons>
 800913e:	4607      	mov	r7, r0
 8009140:	8868      	ldrh	r0, [r5, #2]
 8009142:	f7fa fceb 	bl	8003b1c <lwip_htons>
 8009146:	782b      	ldrb	r3, [r5, #0]
 8009148:	f003 030f 	and.w	r3, r3, #15
 800914c:	ebb0 0f83 	cmp.w	r0, r3, lsl #2
 8009150:	ea4f 0283 	mov.w	r2, r3, lsl #2
 8009154:	f0c0 8091 	bcc.w	800927a <ip4_reass+0x156>
 8009158:	1a83      	subs	r3, r0, r2
 800915a:	4cb5      	ldr	r4, [pc, #724]	; (8009430 <ip4_reass+0x30c>)
 800915c:	4640      	mov	r0, r8
 800915e:	b29b      	uxth	r3, r3
 8009160:	9301      	str	r3, [sp, #4]
 8009162:	f7fb fb61 	bl	8004828 <pbuf_clen>
 8009166:	8823      	ldrh	r3, [r4, #0]
 8009168:	4681      	mov	r9, r0
 800916a:	4403      	add	r3, r0
 800916c:	2b0a      	cmp	r3, #10
 800916e:	dc7a      	bgt.n	8009266 <ip4_reass+0x142>
 8009170:	4eb0      	ldr	r6, [pc, #704]	; (8009434 <ip4_reass+0x310>)
 8009172:	6834      	ldr	r4, [r6, #0]
 8009174:	2c00      	cmp	r4, #0
 8009176:	f040 8085 	bne.w	8009284 <ip4_reass+0x160>
 800917a:	2004      	movs	r0, #4
 800917c:	f7fa ff6a 	bl	8004054 <memp_malloc>
 8009180:	4604      	mov	r4, r0
 8009182:	b958      	cbnz	r0, 800919c <ip4_reass+0x78>
 8009184:	4649      	mov	r1, r9
 8009186:	4628      	mov	r0, r5
 8009188:	f7ff ff4a 	bl	8009020 <ip_reass_remove_oldest_datagram>
 800918c:	4581      	cmp	r9, r0
 800918e:	dc74      	bgt.n	800927a <ip4_reass+0x156>
 8009190:	2004      	movs	r0, #4
 8009192:	f7fa ff5f 	bl	8004054 <memp_malloc>
 8009196:	4604      	mov	r4, r0
 8009198:	2800      	cmp	r0, #0
 800919a:	d06e      	beq.n	800927a <ip4_reass+0x156>
 800919c:	221c      	movs	r2, #28
 800919e:	2100      	movs	r1, #0
 80091a0:	1d20      	adds	r0, r4, #4
 80091a2:	f000 fcf6 	bl	8009b92 <memset>
 80091a6:	230f      	movs	r3, #15
 80091a8:	f104 0208 	add.w	r2, r4, #8
 80091ac:	f105 0114 	add.w	r1, r5, #20
 80091b0:	77e3      	strb	r3, [r4, #31]
 80091b2:	6833      	ldr	r3, [r6, #0]
 80091b4:	6034      	str	r4, [r6, #0]
 80091b6:	6023      	str	r3, [r4, #0]
 80091b8:	462b      	mov	r3, r5
 80091ba:	f853 0b04 	ldr.w	r0, [r3], #4
 80091be:	428b      	cmp	r3, r1
 80091c0:	f842 0b04 	str.w	r0, [r2], #4
 80091c4:	d1f9      	bne.n	80091ba <ip4_reass+0x96>
 80091c6:	f8b5 b006 	ldrh.w	fp, [r5, #6]
 80091ca:	f3c7 070c 	ubfx	r7, r7, #0, #13
 80091ce:	f01b 0b20 	ands.w	fp, fp, #32
 80091d2:	ea4f 07c7 	mov.w	r7, r7, lsl #3
 80091d6:	d10a      	bne.n	80091ee <ip4_reass+0xca>
 80091d8:	9b01      	ldr	r3, [sp, #4]
 80091da:	18fb      	adds	r3, r7, r3
 80091dc:	b29b      	uxth	r3, r3
 80091de:	429f      	cmp	r7, r3
 80091e0:	f200 8138 	bhi.w	8009454 <ip4_reass+0x330>
 80091e4:	f64f 72eb 	movw	r2, #65515	; 0xffeb
 80091e8:	4293      	cmp	r3, r2
 80091ea:	f200 8133 	bhi.w	8009454 <ip4_reass+0x330>
 80091ee:	f8d8 5004 	ldr.w	r5, [r8, #4]
 80091f2:	8868      	ldrh	r0, [r5, #2]
 80091f4:	f7fa fc92 	bl	8003b1c <lwip_htons>
 80091f8:	782b      	ldrb	r3, [r5, #0]
 80091fa:	f003 030f 	and.w	r3, r3, #15
 80091fe:	ebb0 0f83 	cmp.w	r0, r3, lsl #2
 8009202:	ea4f 0283 	mov.w	r2, r3, lsl #2
 8009206:	f0c0 8125 	bcc.w	8009454 <ip4_reass+0x330>
 800920a:	1a80      	subs	r0, r0, r2
 800920c:	fa1f fa80 	uxth.w	sl, r0
 8009210:	88e8      	ldrh	r0, [r5, #6]
 8009212:	f7fa fc83 	bl	8003b1c <lwip_htons>
 8009216:	f3c0 000c 	ubfx	r0, r0, #0, #13
 800921a:	f8d8 6004 	ldr.w	r6, [r8, #4]
 800921e:	2500      	movs	r5, #0
 8009220:	00c3      	lsls	r3, r0, #3
 8009222:	7035      	strb	r5, [r6, #0]
 8009224:	eb0a 0003 	add.w	r0, sl, r3
 8009228:	7075      	strb	r5, [r6, #1]
 800922a:	70b5      	strb	r5, [r6, #2]
 800922c:	fa1f fc80 	uxth.w	ip, r0
 8009230:	70f5      	strb	r5, [r6, #3]
 8009232:	80b3      	strh	r3, [r6, #4]
 8009234:	4563      	cmp	r3, ip
 8009236:	80f0      	strh	r0, [r6, #6]
 8009238:	f200 810c 	bhi.w	8009454 <ip4_reass+0x330>
 800923c:	f8d4 e004 	ldr.w	lr, [r4, #4]
 8009240:	f04f 0a01 	mov.w	sl, #1
 8009244:	4670      	mov	r0, lr
 8009246:	bb60      	cbnz	r0, 80092a2 <ip4_reass+0x17e>
 8009248:	2d00      	cmp	r5, #0
 800924a:	f040 80a9 	bne.w	80093a0 <ip4_reass+0x27c>
 800924e:	f1be 0f00 	cmp.w	lr, #0
 8009252:	f000 8095 	beq.w	8009380 <ip4_reass+0x25c>
 8009256:	4b78      	ldr	r3, [pc, #480]	; (8009438 <ip4_reass+0x314>)
 8009258:	f44f 72df 	mov.w	r2, #446	; 0x1be
 800925c:	4977      	ldr	r1, [pc, #476]	; (800943c <ip4_reass+0x318>)
 800925e:	4878      	ldr	r0, [pc, #480]	; (8009440 <ip4_reass+0x31c>)
 8009260:	f000 fc30 	bl	8009ac4 <iprintf>
 8009264:	e08c      	b.n	8009380 <ip4_reass+0x25c>
 8009266:	4601      	mov	r1, r0
 8009268:	4628      	mov	r0, r5
 800926a:	f7ff fed9 	bl	8009020 <ip_reass_remove_oldest_datagram>
 800926e:	b120      	cbz	r0, 800927a <ip4_reass+0x156>
 8009270:	8823      	ldrh	r3, [r4, #0]
 8009272:	444b      	add	r3, r9
 8009274:	2b0a      	cmp	r3, #10
 8009276:	f77f af7b 	ble.w	8009170 <ip4_reass+0x4c>
 800927a:	4640      	mov	r0, r8
 800927c:	f7fb f998 	bl	80045b0 <pbuf_free>
 8009280:	2700      	movs	r7, #0
 8009282:	e077      	b.n	8009374 <ip4_reass+0x250>
 8009284:	68eb      	ldr	r3, [r5, #12]
 8009286:	6962      	ldr	r2, [r4, #20]
 8009288:	429a      	cmp	r2, r3
 800928a:	d108      	bne.n	800929e <ip4_reass+0x17a>
 800928c:	692b      	ldr	r3, [r5, #16]
 800928e:	69a2      	ldr	r2, [r4, #24]
 8009290:	429a      	cmp	r2, r3
 8009292:	d104      	bne.n	800929e <ip4_reass+0x17a>
 8009294:	89a2      	ldrh	r2, [r4, #12]
 8009296:	88ab      	ldrh	r3, [r5, #4]
 8009298:	429a      	cmp	r2, r3
 800929a:	f000 80ef 	beq.w	800947c <ip4_reass+0x358>
 800929e:	6824      	ldr	r4, [r4, #0]
 80092a0:	e768      	b.n	8009174 <ip4_reass+0x50>
 80092a2:	6842      	ldr	r2, [r0, #4]
 80092a4:	8891      	ldrh	r1, [r2, #4]
 80092a6:	428b      	cmp	r3, r1
 80092a8:	d26d      	bcs.n	8009386 <ip4_reass+0x262>
 80092aa:	6030      	str	r0, [r6, #0]
 80092ac:	2d00      	cmp	r5, #0
 80092ae:	d065      	beq.n	800937c <ip4_reass+0x258>
 80092b0:	88ea      	ldrh	r2, [r5, #6]
 80092b2:	4293      	cmp	r3, r2
 80092b4:	f0c0 80ce 	bcc.w	8009454 <ip4_reass+0x330>
 80092b8:	458c      	cmp	ip, r1
 80092ba:	f200 80cb 	bhi.w	8009454 <ip4_reass+0x330>
 80092be:	4293      	cmp	r3, r2
 80092c0:	f8c5 8000 	str.w	r8, [r5]
 80092c4:	f040 80f6 	bne.w	80094b4 <ip4_reass+0x390>
 80092c8:	f1bb 0f00 	cmp.w	fp, #0
 80092cc:	d004      	beq.n	80092d8 <ip4_reass+0x1b4>
 80092ce:	7fa3      	ldrb	r3, [r4, #30]
 80092d0:	f013 0301 	ands.w	r3, r3, #1
 80092d4:	f000 809b 	beq.w	800940e <ip4_reass+0x2ea>
 80092d8:	f1ba 0f00 	cmp.w	sl, #0
 80092dc:	d170      	bne.n	80093c0 <ip4_reass+0x29c>
 80092de:	f04f 0a00 	mov.w	sl, #0
 80092e2:	4e53      	ldr	r6, [pc, #332]	; (8009430 <ip4_reass+0x30c>)
 80092e4:	8833      	ldrh	r3, [r6, #0]
 80092e6:	444b      	add	r3, r9
 80092e8:	8033      	strh	r3, [r6, #0]
 80092ea:	f1bb 0f00 	cmp.w	fp, #0
 80092ee:	d106      	bne.n	80092fe <ip4_reass+0x1da>
 80092f0:	9b01      	ldr	r3, [sp, #4]
 80092f2:	441f      	add	r7, r3
 80092f4:	7fa3      	ldrb	r3, [r4, #30]
 80092f6:	f043 0301 	orr.w	r3, r3, #1
 80092fa:	83a7      	strh	r7, [r4, #28]
 80092fc:	77a3      	strb	r3, [r4, #30]
 80092fe:	f1ba 0f01 	cmp.w	sl, #1
 8009302:	d1bd      	bne.n	8009280 <ip4_reass+0x15c>
 8009304:	6863      	ldr	r3, [r4, #4]
 8009306:	f104 011c 	add.w	r1, r4, #28
 800930a:	8ba0      	ldrh	r0, [r4, #28]
 800930c:	685f      	ldr	r7, [r3, #4]
 800930e:	f104 0308 	add.w	r3, r4, #8
 8009312:	3014      	adds	r0, #20
 8009314:	683d      	ldr	r5, [r7, #0]
 8009316:	463a      	mov	r2, r7
 8009318:	b280      	uxth	r0, r0
 800931a:	f853 cb04 	ldr.w	ip, [r3], #4
 800931e:	428b      	cmp	r3, r1
 8009320:	f842 cb04 	str.w	ip, [r2], #4
 8009324:	d1f9      	bne.n	800931a <ip4_reass+0x1f6>
 8009326:	f7fa fbf9 	bl	8003b1c <lwip_htons>
 800932a:	2300      	movs	r3, #0
 800932c:	8078      	strh	r0, [r7, #2]
 800932e:	71bb      	strb	r3, [r7, #6]
 8009330:	71fb      	strb	r3, [r7, #7]
 8009332:	72bb      	strb	r3, [r7, #10]
 8009334:	72fb      	strb	r3, [r7, #11]
 8009336:	6867      	ldr	r7, [r4, #4]
 8009338:	2d00      	cmp	r5, #0
 800933a:	d16a      	bne.n	8009412 <ip4_reass+0x2ee>
 800933c:	4b3d      	ldr	r3, [pc, #244]	; (8009434 <ip4_reass+0x310>)
 800933e:	681b      	ldr	r3, [r3, #0]
 8009340:	42a3      	cmp	r3, r4
 8009342:	d002      	beq.n	800934a <ip4_reass+0x226>
 8009344:	461d      	mov	r5, r3
 8009346:	2b00      	cmp	r3, #0
 8009348:	d170      	bne.n	800942c <ip4_reass+0x308>
 800934a:	4620      	mov	r0, r4
 800934c:	4629      	mov	r1, r5
 800934e:	f7ff fdd1 	bl	8008ef4 <ip_reass_dequeue_datagram>
 8009352:	4638      	mov	r0, r7
 8009354:	f7fb fa68 	bl	8004828 <pbuf_clen>
 8009358:	8833      	ldrh	r3, [r6, #0]
 800935a:	4604      	mov	r4, r0
 800935c:	4283      	cmp	r3, r0
 800935e:	d206      	bcs.n	800936e <ip4_reass+0x24a>
 8009360:	4b35      	ldr	r3, [pc, #212]	; (8009438 <ip4_reass+0x314>)
 8009362:	f240 229b 	movw	r2, #667	; 0x29b
 8009366:	4937      	ldr	r1, [pc, #220]	; (8009444 <ip4_reass+0x320>)
 8009368:	4835      	ldr	r0, [pc, #212]	; (8009440 <ip4_reass+0x31c>)
 800936a:	f000 fbab 	bl	8009ac4 <iprintf>
 800936e:	8833      	ldrh	r3, [r6, #0]
 8009370:	1b1b      	subs	r3, r3, r4
 8009372:	8033      	strh	r3, [r6, #0]
 8009374:	4638      	mov	r0, r7
 8009376:	b003      	add	sp, #12
 8009378:	e8bd 8ff0 	ldmia.w	sp!, {r4, r5, r6, r7, r8, r9, sl, fp, pc}
 800937c:	458c      	cmp	ip, r1
 800937e:	d869      	bhi.n	8009454 <ip4_reass+0x330>
 8009380:	f8c4 8004 	str.w	r8, [r4, #4]
 8009384:	e7a0      	b.n	80092c8 <ip4_reass+0x1a4>
 8009386:	d065      	beq.n	8009454 <ip4_reass+0x330>
 8009388:	88d0      	ldrh	r0, [r2, #6]
 800938a:	4298      	cmp	r0, r3
 800938c:	d862      	bhi.n	8009454 <ip4_reass+0x330>
 800938e:	b125      	cbz	r5, 800939a <ip4_reass+0x276>
 8009390:	88e8      	ldrh	r0, [r5, #6]
 8009392:	4288      	cmp	r0, r1
 8009394:	bf18      	it	ne
 8009396:	f04f 0a00 	movne.w	sl, #0
 800939a:	6810      	ldr	r0, [r2, #0]
 800939c:	4615      	mov	r5, r2
 800939e:	e752      	b.n	8009246 <ip4_reass+0x122>
 80093a0:	88ea      	ldrh	r2, [r5, #6]
 80093a2:	429a      	cmp	r2, r3
 80093a4:	d906      	bls.n	80093b4 <ip4_reass+0x290>
 80093a6:	4b24      	ldr	r3, [pc, #144]	; (8009438 <ip4_reass+0x314>)
 80093a8:	f44f 72db 	mov.w	r2, #438	; 0x1b6
 80093ac:	4926      	ldr	r1, [pc, #152]	; (8009448 <ip4_reass+0x324>)
 80093ae:	4824      	ldr	r0, [pc, #144]	; (8009440 <ip4_reass+0x31c>)
 80093b0:	f000 fb88 	bl	8009ac4 <iprintf>
 80093b4:	88ea      	ldrh	r2, [r5, #6]
 80093b6:	f8c5 8000 	str.w	r8, [r5]
 80093ba:	88b3      	ldrh	r3, [r6, #4]
 80093bc:	429a      	cmp	r2, r3
 80093be:	e781      	b.n	80092c4 <ip4_reass+0x1a0>
 80093c0:	6863      	ldr	r3, [r4, #4]
 80093c2:	2b00      	cmp	r3, #0
 80093c4:	d08b      	beq.n	80092de <ip4_reass+0x1ba>
 80093c6:	6859      	ldr	r1, [r3, #4]
 80093c8:	888b      	ldrh	r3, [r1, #4]
 80093ca:	2b00      	cmp	r3, #0
 80093cc:	d187      	bne.n	80092de <ip4_reass+0x1ba>
 80093ce:	6833      	ldr	r3, [r6, #0]
 80093d0:	b9a3      	cbnz	r3, 80093fc <ip4_reass+0x2d8>
 80093d2:	42b1      	cmp	r1, r6
 80093d4:	d106      	bne.n	80093e4 <ip4_reass+0x2c0>
 80093d6:	4b18      	ldr	r3, [pc, #96]	; (8009438 <ip4_reass+0x314>)
 80093d8:	f44f 72f0 	mov.w	r2, #480	; 0x1e0
 80093dc:	491b      	ldr	r1, [pc, #108]	; (800944c <ip4_reass+0x328>)
 80093de:	4818      	ldr	r0, [pc, #96]	; (8009440 <ip4_reass+0x31c>)
 80093e0:	f000 fb70 	bl	8009ac4 <iprintf>
 80093e4:	6833      	ldr	r3, [r6, #0]
 80093e6:	2b00      	cmp	r3, #0
 80093e8:	f43f af7b 	beq.w	80092e2 <ip4_reass+0x1be>
 80093ec:	4b12      	ldr	r3, [pc, #72]	; (8009438 <ip4_reass+0x314>)
 80093ee:	f44f 72f1 	mov.w	r2, #482	; 0x1e2
 80093f2:	4917      	ldr	r1, [pc, #92]	; (8009450 <ip4_reass+0x32c>)
 80093f4:	4812      	ldr	r0, [pc, #72]	; (8009440 <ip4_reass+0x31c>)
 80093f6:	f000 fb65 	bl	8009ac4 <iprintf>
 80093fa:	e772      	b.n	80092e2 <ip4_reass+0x1be>
 80093fc:	685a      	ldr	r2, [r3, #4]
 80093fe:	88f0      	ldrh	r0, [r6, #6]
 8009400:	8893      	ldrh	r3, [r2, #4]
 8009402:	4298      	cmp	r0, r3
 8009404:	f47f af6b 	bne.w	80092de <ip4_reass+0x1ba>
 8009408:	6813      	ldr	r3, [r2, #0]
 800940a:	4616      	mov	r6, r2
 800940c:	e7e0      	b.n	80093d0 <ip4_reass+0x2ac>
 800940e:	469a      	mov	sl, r3
 8009410:	e767      	b.n	80092e2 <ip4_reass+0x1be>
 8009412:	f8d5 8004 	ldr.w	r8, [r5, #4]
 8009416:	2114      	movs	r1, #20
 8009418:	4628      	mov	r0, r5
 800941a:	f7fb f895 	bl	8004548 <pbuf_remove_header>
 800941e:	4629      	mov	r1, r5
 8009420:	4638      	mov	r0, r7
 8009422:	f7fb fa1d 	bl	8004860 <pbuf_cat>
 8009426:	f8d8 5000 	ldr.w	r5, [r8]
 800942a:	e785      	b.n	8009338 <ip4_reass+0x214>
 800942c:	682b      	ldr	r3, [r5, #0]
 800942e:	e787      	b.n	8009340 <ip4_reass+0x21c>
 8009430:	2000ab7c 	.word	0x2000ab7c
 8009434:	2000ab80 	.word	0x2000ab80
 8009438:	0800d908 	.word	0x0800d908
 800943c:	0800d9e1 	.word	0x0800d9e1
 8009440:	0800be06 	.word	0x0800be06
 8009444:	0800da47 	.word	0x0800da47
 8009448:	0800d9c3 	.word	0x0800d9c3
 800944c:	0800da18 	.word	0x0800da18
 8009450:	0800da25 	.word	0x0800da25
 8009454:	6863      	ldr	r3, [r4, #4]
 8009456:	2b00      	cmp	r3, #0
 8009458:	f47f af0f 	bne.w	800927a <ip4_reass+0x156>
 800945c:	4b19      	ldr	r3, [pc, #100]	; (80094c4 <ip4_reass+0x3a0>)
 800945e:	681b      	ldr	r3, [r3, #0]
 8009460:	42a3      	cmp	r3, r4
 8009462:	d006      	beq.n	8009472 <ip4_reass+0x34e>
 8009464:	4b18      	ldr	r3, [pc, #96]	; (80094c8 <ip4_reass+0x3a4>)
 8009466:	f240 22ab 	movw	r2, #683	; 0x2ab
 800946a:	4918      	ldr	r1, [pc, #96]	; (80094cc <ip4_reass+0x3a8>)
 800946c:	4818      	ldr	r0, [pc, #96]	; (80094d0 <ip4_reass+0x3ac>)
 800946e:	f000 fb29 	bl	8009ac4 <iprintf>
 8009472:	2100      	movs	r1, #0
 8009474:	4620      	mov	r0, r4
 8009476:	f7ff fd3d 	bl	8008ef4 <ip_reass_dequeue_datagram>
 800947a:	e6fe      	b.n	800927a <ip4_reass+0x156>
 800947c:	88e8      	ldrh	r0, [r5, #6]
 800947e:	f7fa fb4d 	bl	8003b1c <lwip_htons>
 8009482:	f3c0 000c 	ubfx	r0, r0, #0, #13
 8009486:	2800      	cmp	r0, #0
 8009488:	f47f ae9d 	bne.w	80091c6 <ip4_reass+0xa2>
 800948c:	89e0      	ldrh	r0, [r4, #14]
 800948e:	f7fa fb45 	bl	8003b1c <lwip_htons>
 8009492:	f3c0 000c 	ubfx	r0, r0, #0, #13
 8009496:	2800      	cmp	r0, #0
 8009498:	f43f ae95 	beq.w	80091c6 <ip4_reass+0xa2>
 800949c:	462b      	mov	r3, r5
 800949e:	f104 0208 	add.w	r2, r4, #8
 80094a2:	f105 0114 	add.w	r1, r5, #20
 80094a6:	f853 0b04 	ldr.w	r0, [r3], #4
 80094aa:	428b      	cmp	r3, r1
 80094ac:	f842 0b04 	str.w	r0, [r2], #4
 80094b0:	d1f9      	bne.n	80094a6 <ip4_reass+0x382>
 80094b2:	e688      	b.n	80091c6 <ip4_reass+0xa2>
 80094b4:	f1bb 0f00 	cmp.w	fp, #0
 80094b8:	f43f af11 	beq.w	80092de <ip4_reass+0x1ba>
 80094bc:	f04f 0a00 	mov.w	sl, #0
 80094c0:	e705      	b.n	80092ce <ip4_reass+0x1aa>
 80094c2:	bf00      	nop
 80094c4:	2000ab80 	.word	0x2000ab80
 80094c8:	0800d908 	.word	0x0800d908
 80094cc:	0800da62 	.word	0x0800da62
 80094d0:	0800be06 	.word	0x0800be06

080094d4 <ip4_frag>:
 80094d4:	8c8b      	ldrh	r3, [r1, #36]	; 0x24
 80094d6:	e92d 4ff0 	stmdb	sp!, {r4, r5, r6, r7, r8, r9, sl, fp, lr}
 80094da:	ed2d 8b02 	vpush	{d8}
 80094de:	ee08 2a10 	vmov	s16, r2
 80094e2:	f1b3 0214 	subs.w	r2, r3, #20
 80094e6:	b08b      	sub	sp, #44	; 0x2c
 80094e8:	4605      	mov	r5, r0
 80094ea:	bf48      	it	mi
 80094ec:	f1a3 020d 	submi.w	r2, r3, #13
 80094f0:	468a      	mov	sl, r1
 80094f2:	f3c2 03cf 	ubfx	r3, r2, #3, #16
 80094f6:	9305      	str	r3, [sp, #20]
 80094f8:	6843      	ldr	r3, [r0, #4]
 80094fa:	9302      	str	r3, [sp, #8]
 80094fc:	781b      	ldrb	r3, [r3, #0]
 80094fe:	f003 030f 	and.w	r3, r3, #15
 8009502:	2b05      	cmp	r3, #5
 8009504:	ea4f 0783 	mov.w	r7, r3, lsl #2
 8009508:	d109      	bne.n	800951e <ip4_frag+0x4a>
 800950a:	8943      	ldrh	r3, [r0, #10]
 800950c:	2b13      	cmp	r3, #19
 800950e:	d809      	bhi.n	8009524 <ip4_frag+0x50>
 8009510:	4b60      	ldr	r3, [pc, #384]	; (8009694 <ip4_frag+0x1c0>)
 8009512:	f44f 723f 	mov.w	r2, #764	; 0x2fc
 8009516:	4960      	ldr	r1, [pc, #384]	; (8009698 <ip4_frag+0x1c4>)
 8009518:	4860      	ldr	r0, [pc, #384]	; (800969c <ip4_frag+0x1c8>)
 800951a:	f000 fad3 	bl	8009ac4 <iprintf>
 800951e:	f06f 0005 	mvn.w	r0, #5
 8009522:	e013      	b.n	800954c <ip4_frag+0x78>
 8009524:	9b02      	ldr	r3, [sp, #8]
 8009526:	2600      	movs	r6, #0
 8009528:	88d8      	ldrh	r0, [r3, #6]
 800952a:	f7fa faf7 	bl	8003b1c <lwip_htons>
 800952e:	f3c0 030c 	ubfx	r3, r0, #0, #13
 8009532:	892c      	ldrh	r4, [r5, #8]
 8009534:	9303      	str	r3, [sp, #12]
 8009536:	f400 5300 	and.w	r3, r0, #8192	; 0x2000
 800953a:	3c14      	subs	r4, #20
 800953c:	9307      	str	r3, [sp, #28]
 800953e:	9b05      	ldr	r3, [sp, #20]
 8009540:	b2a4      	uxth	r4, r4
 8009542:	00db      	lsls	r3, r3, #3
 8009544:	b29b      	uxth	r3, r3
 8009546:	9306      	str	r3, [sp, #24]
 8009548:	b92c      	cbnz	r4, 8009556 <ip4_frag+0x82>
 800954a:	4620      	mov	r0, r4
 800954c:	b00b      	add	sp, #44	; 0x2c
 800954e:	ecbd 8b02 	vpop	{d8}
 8009552:	e8bd 8ff0 	ldmia.w	sp!, {r4, r5, r6, r7, r8, r9, sl, fp, pc}
 8009556:	9b06      	ldr	r3, [sp, #24]
 8009558:	f44f 7220 	mov.w	r2, #640	; 0x280
 800955c:	2114      	movs	r1, #20
 800955e:	200e      	movs	r0, #14
 8009560:	42a3      	cmp	r3, r4
 8009562:	bf28      	it	cs
 8009564:	4623      	movcs	r3, r4
 8009566:	9304      	str	r3, [sp, #16]
 8009568:	f7fb f886 	bl	8004678 <pbuf_alloc>
 800956c:	4680      	mov	r8, r0
 800956e:	2800      	cmp	r0, #0
 8009570:	d036      	beq.n	80095e0 <ip4_frag+0x10c>
 8009572:	8943      	ldrh	r3, [r0, #10]
 8009574:	2b13      	cmp	r3, #19
 8009576:	d806      	bhi.n	8009586 <ip4_frag+0xb2>
 8009578:	4b46      	ldr	r3, [pc, #280]	; (8009694 <ip4_frag+0x1c0>)
 800957a:	f44f 7249 	mov.w	r2, #804	; 0x324
 800957e:	4948      	ldr	r1, [pc, #288]	; (80096a0 <ip4_frag+0x1cc>)
 8009580:	4846      	ldr	r0, [pc, #280]	; (800969c <ip4_frag+0x1c8>)
 8009582:	f000 fa9f 	bl	8009ac4 <iprintf>
 8009586:	9b02      	ldr	r3, [sp, #8]
 8009588:	f8d8 2004 	ldr.w	r2, [r8, #4]
 800958c:	4619      	mov	r1, r3
 800958e:	3114      	adds	r1, #20
 8009590:	f853 0b04 	ldr.w	r0, [r3], #4
 8009594:	428b      	cmp	r3, r1
 8009596:	f842 0b04 	str.w	r0, [r2], #4
 800959a:	d1f9      	bne.n	8009590 <ip4_frag+0xbc>
 800959c:	f8d8 b004 	ldr.w	fp, [r8, #4]
 80095a0:	f8dd 9010 	ldr.w	r9, [sp, #16]
 80095a4:	f1b9 0f00 	cmp.w	r9, #0
 80095a8:	d041      	beq.n	800962e <ip4_frag+0x15a>
 80095aa:	896b      	ldrh	r3, [r5, #10]
 80095ac:	1bde      	subs	r6, r3, r7
 80095ae:	42bb      	cmp	r3, r7
 80095b0:	b2b6      	uxth	r6, r6
 80095b2:	d206      	bcs.n	80095c2 <ip4_frag+0xee>
 80095b4:	4b37      	ldr	r3, [pc, #220]	; (8009694 <ip4_frag+0x1c0>)
 80095b6:	f240 322d 	movw	r2, #813	; 0x32d
 80095ba:	493a      	ldr	r1, [pc, #232]	; (80096a4 <ip4_frag+0x1d0>)
 80095bc:	4837      	ldr	r0, [pc, #220]	; (800969c <ip4_frag+0x1c8>)
 80095be:	f000 fa81 	bl	8009ac4 <iprintf>
 80095c2:	454e      	cmp	r6, r9
 80095c4:	bf28      	it	cs
 80095c6:	464e      	movcs	r6, r9
 80095c8:	b916      	cbnz	r6, 80095d0 <ip4_frag+0xfc>
 80095ca:	682d      	ldr	r5, [r5, #0]
 80095cc:	2700      	movs	r7, #0
 80095ce:	e7e9      	b.n	80095a4 <ip4_frag+0xd0>
 80095d0:	2005      	movs	r0, #5
 80095d2:	f7fa fd3f 	bl	8004054 <memp_malloc>
 80095d6:	4603      	mov	r3, r0
 80095d8:	b928      	cbnz	r0, 80095e6 <ip4_frag+0x112>
 80095da:	4640      	mov	r0, r8
 80095dc:	f7fa ffe8 	bl	80045b0 <pbuf_free>
 80095e0:	f04f 30ff 	mov.w	r0, #4294967295
 80095e4:	e7b2      	b.n	800954c <ip4_frag+0x78>
 80095e6:	9601      	str	r6, [sp, #4]
 80095e8:	4631      	mov	r1, r6
 80095ea:	686a      	ldr	r2, [r5, #4]
 80095ec:	9008      	str	r0, [sp, #32]
 80095ee:	2000      	movs	r0, #0
 80095f0:	443a      	add	r2, r7
 80095f2:	9200      	str	r2, [sp, #0]
 80095f4:	2241      	movs	r2, #65	; 0x41
 80095f6:	f7fa ff89 	bl	800450c <pbuf_alloced_custom>
 80095fa:	9b08      	ldr	r3, [sp, #32]
 80095fc:	b918      	cbnz	r0, 8009606 <ip4_frag+0x132>
 80095fe:	4618      	mov	r0, r3
 8009600:	f7ff fd4a 	bl	8009098 <ip_frag_free_pbuf_custom_ref>
 8009604:	e7e9      	b.n	80095da <ip4_frag+0x106>
 8009606:	e9cd 0308 	strd	r0, r3, [sp, #32]
 800960a:	eba9 0906 	sub.w	r9, r9, r6
 800960e:	4628      	mov	r0, r5
 8009610:	f7fb f912 	bl	8004838 <pbuf_ref>
 8009614:	9b09      	ldr	r3, [sp, #36]	; 0x24
 8009616:	4a24      	ldr	r2, [pc, #144]	; (80096a8 <ip4_frag+0x1d4>)
 8009618:	fa1f f989 	uxth.w	r9, r9
 800961c:	9908      	ldr	r1, [sp, #32]
 800961e:	4640      	mov	r0, r8
 8009620:	615d      	str	r5, [r3, #20]
 8009622:	611a      	str	r2, [r3, #16]
 8009624:	f7fb f91c 	bl	8004860 <pbuf_cat>
 8009628:	f1b9 0f00 	cmp.w	r9, #0
 800962c:	d1cd      	bne.n	80095ca <ip4_frag+0xf6>
 800962e:	9b03      	ldr	r3, [sp, #12]
 8009630:	4437      	add	r7, r6
 8009632:	f3c3 000c 	ubfx	r0, r3, #0, #13
 8009636:	f8ba 3024 	ldrh.w	r3, [sl, #36]	; 0x24
 800963a:	b2bf      	uxth	r7, r7
 800963c:	3b13      	subs	r3, #19
 800963e:	42a3      	cmp	r3, r4
 8009640:	dd01      	ble.n	8009646 <ip4_frag+0x172>
 8009642:	9b07      	ldr	r3, [sp, #28]
 8009644:	b10b      	cbz	r3, 800964a <ip4_frag+0x176>
 8009646:	f440 5000 	orr.w	r0, r0, #8192	; 0x2000
 800964a:	f7fa fa67 	bl	8003b1c <lwip_htons>
 800964e:	9b04      	ldr	r3, [sp, #16]
 8009650:	f8ab 0006 	strh.w	r0, [fp, #6]
 8009654:	f103 0014 	add.w	r0, r3, #20
 8009658:	b280      	uxth	r0, r0
 800965a:	f7fa fa5f 	bl	8003b1c <lwip_htons>
 800965e:	2300      	movs	r3, #0
 8009660:	ee18 2a10 	vmov	r2, s16
 8009664:	4641      	mov	r1, r8
 8009666:	f8ab 0002 	strh.w	r0, [fp, #2]
 800966a:	4650      	mov	r0, sl
 800966c:	f88b 300a 	strb.w	r3, [fp, #10]
 8009670:	f88b 300b 	strb.w	r3, [fp, #11]
 8009674:	f8da 3014 	ldr.w	r3, [sl, #20]
 8009678:	4798      	blx	r3
 800967a:	4640      	mov	r0, r8
 800967c:	f7fa ff98 	bl	80045b0 <pbuf_free>
 8009680:	9b04      	ldr	r3, [sp, #16]
 8009682:	9a05      	ldr	r2, [sp, #20]
 8009684:	1ae3      	subs	r3, r4, r3
 8009686:	b29c      	uxth	r4, r3
 8009688:	9b03      	ldr	r3, [sp, #12]
 800968a:	4413      	add	r3, r2
 800968c:	b29b      	uxth	r3, r3
 800968e:	9303      	str	r3, [sp, #12]
 8009690:	e75a      	b.n	8009548 <ip4_frag+0x74>
 8009692:	bf00      	nop
 8009694:	0800d908 	.word	0x0800d908
 8009698:	0800da82 	.word	0x0800da82
 800969c:	0800be06 	.word	0x0800be06
 80096a0:	0800da9d 	.word	0x0800da9d
 80096a4:	0800dabd 	.word	0x0800dabd
 80096a8:	080090c5 	.word	0x080090c5

080096ac <ethernet_input>:
 80096ac:	8943      	ldrh	r3, [r0, #10]
 80096ae:	2b0e      	cmp	r3, #14
 80096b0:	b570      	push	{r4, r5, r6, lr}
 80096b2:	4604      	mov	r4, r0
 80096b4:	460d      	mov	r5, r1
 80096b6:	d91a      	bls.n	80096ee <ethernet_input+0x42>
 80096b8:	7bc3      	ldrb	r3, [r0, #15]
 80096ba:	b91b      	cbnz	r3, 80096c4 <ethernet_input+0x18>
 80096bc:	f891 3030 	ldrb.w	r3, [r1, #48]	; 0x30
 80096c0:	3301      	adds	r3, #1
 80096c2:	73c3      	strb	r3, [r0, #15]
 80096c4:	6860      	ldr	r0, [r4, #4]
 80096c6:	7803      	ldrb	r3, [r0, #0]
 80096c8:	8986      	ldrh	r6, [r0, #12]
 80096ca:	07d9      	lsls	r1, r3, #31
 80096cc:	d50a      	bpl.n	80096e4 <ethernet_input+0x38>
 80096ce:	2b01      	cmp	r3, #1
 80096d0:	d111      	bne.n	80096f6 <ethernet_input+0x4a>
 80096d2:	7843      	ldrb	r3, [r0, #1]
 80096d4:	b933      	cbnz	r3, 80096e4 <ethernet_input+0x38>
 80096d6:	7883      	ldrb	r3, [r0, #2]
 80096d8:	2b5e      	cmp	r3, #94	; 0x5e
 80096da:	d103      	bne.n	80096e4 <ethernet_input+0x38>
 80096dc:	7b63      	ldrb	r3, [r4, #13]
 80096de:	f043 0310 	orr.w	r3, r3, #16
 80096e2:	7363      	strb	r3, [r4, #13]
 80096e4:	2e08      	cmp	r6, #8
 80096e6:	d010      	beq.n	800970a <ethernet_input+0x5e>
 80096e8:	f5b6 6fc1 	cmp.w	r6, #1544	; 0x608
 80096ec:	d01d      	beq.n	800972a <ethernet_input+0x7e>
 80096ee:	4620      	mov	r0, r4
 80096f0:	f7fa ff5e 	bl	80045b0 <pbuf_free>
 80096f4:	e017      	b.n	8009726 <ethernet_input+0x7a>
 80096f6:	2206      	movs	r2, #6
 80096f8:	4913      	ldr	r1, [pc, #76]	; (8009748 <ethernet_input+0x9c>)
 80096fa:	f000 fa3a 	bl	8009b72 <memcmp>
 80096fe:	2800      	cmp	r0, #0
 8009700:	d1f0      	bne.n	80096e4 <ethernet_input+0x38>
 8009702:	7b63      	ldrb	r3, [r4, #13]
 8009704:	f043 0308 	orr.w	r3, r3, #8
 8009708:	e7eb      	b.n	80096e2 <ethernet_input+0x36>
 800970a:	f895 302d 	ldrb.w	r3, [r5, #45]	; 0x2d
 800970e:	071a      	lsls	r2, r3, #28
 8009710:	d5ed      	bpl.n	80096ee <ethernet_input+0x42>
 8009712:	210e      	movs	r1, #14
 8009714:	4620      	mov	r0, r4
 8009716:	f7fa ff17 	bl	8004548 <pbuf_remove_header>
 800971a:	2800      	cmp	r0, #0
 800971c:	d1e7      	bne.n	80096ee <ethernet_input+0x42>
 800971e:	4629      	mov	r1, r5
 8009720:	4620      	mov	r0, r4
 8009722:	f7ff fa8b 	bl	8008c3c <ip4_input>
 8009726:	2000      	movs	r0, #0
 8009728:	bd70      	pop	{r4, r5, r6, pc}
 800972a:	f895 302d 	ldrb.w	r3, [r5, #45]	; 0x2d
 800972e:	071b      	lsls	r3, r3, #28
 8009730:	d5dd      	bpl.n	80096ee <ethernet_input+0x42>
 8009732:	210e      	movs	r1, #14
 8009734:	4620      	mov	r0, r4
 8009736:	f7fa ff07 	bl	8004548 <pbuf_remove_header>
 800973a:	2800      	cmp	r0, #0
 800973c:	d1d7      	bne.n	80096ee <ethernet_input+0x42>
 800973e:	4629      	mov	r1, r5
 8009740:	4620      	mov	r0, r4
 8009742:	f7fe fedd 	bl	8008500 <etharp_input>
 8009746:	e7ee      	b.n	8009726 <ethernet_input+0x7a>
 8009748:	0800db32 	.word	0x0800db32

0800974c <ethernet_output>:
 800974c:	e92d 41f0 	stmdb	sp!, {r4, r5, r6, r7, r8, lr}
 8009750:	460d      	mov	r5, r1
 8009752:	4604      	mov	r4, r0
 8009754:	f8bd 0018 	ldrh.w	r0, [sp, #24]
 8009758:	4616      	mov	r6, r2
 800975a:	461f      	mov	r7, r3
 800975c:	f7fa f9de 	bl	8003b1c <lwip_htons>
 8009760:	210e      	movs	r1, #14
 8009762:	4680      	mov	r8, r0
 8009764:	4628      	mov	r0, r5
 8009766:	f7fa feeb 	bl	8004540 <pbuf_add_header>
 800976a:	b9e0      	cbnz	r0, 80097a6 <ethernet_output+0x5a>
 800976c:	6869      	ldr	r1, [r5, #4]
 800976e:	f8a1 800c 	strh.w	r8, [r1, #12]
 8009772:	683b      	ldr	r3, [r7, #0]
 8009774:	600b      	str	r3, [r1, #0]
 8009776:	88bb      	ldrh	r3, [r7, #4]
 8009778:	808b      	strh	r3, [r1, #4]
 800977a:	6833      	ldr	r3, [r6, #0]
 800977c:	f8c1 3006 	str.w	r3, [r1, #6]
 8009780:	88b3      	ldrh	r3, [r6, #4]
 8009782:	814b      	strh	r3, [r1, #10]
 8009784:	f894 302c 	ldrb.w	r3, [r4, #44]	; 0x2c
 8009788:	2b06      	cmp	r3, #6
 800978a:	d006      	beq.n	800979a <ethernet_output+0x4e>
 800978c:	4b08      	ldr	r3, [pc, #32]	; (80097b0 <ethernet_output+0x64>)
 800978e:	f44f 7299 	mov.w	r2, #306	; 0x132
 8009792:	4908      	ldr	r1, [pc, #32]	; (80097b4 <ethernet_output+0x68>)
 8009794:	4808      	ldr	r0, [pc, #32]	; (80097b8 <ethernet_output+0x6c>)
 8009796:	f000 f995 	bl	8009ac4 <iprintf>
 800979a:	69a3      	ldr	r3, [r4, #24]
 800979c:	4629      	mov	r1, r5
 800979e:	4620      	mov	r0, r4
 80097a0:	e8bd 41f0 	ldmia.w	sp!, {r4, r5, r6, r7, r8, lr}
 80097a4:	4718      	bx	r3
 80097a6:	f06f 0001 	mvn.w	r0, #1
 80097aa:	e8bd 81f0 	ldmia.w	sp!, {r4, r5, r6, r7, r8, pc}
 80097ae:	bf00      	nop
 80097b0:	0800dacc 	.word	0x0800dacc
 80097b4:	0800db01 	.word	0x0800db01
 80097b8:	0800be06 	.word	0x0800be06

080097bc <rand>:
 80097bc:	4b16      	ldr	r3, [pc, #88]	; (8009818 <rand+0x5c>)
 80097be:	b510      	push	{r4, lr}
 80097c0:	681c      	ldr	r4, [r3, #0]
 80097c2:	6b23      	ldr	r3, [r4, #48]	; 0x30
 80097c4:	b9b3      	cbnz	r3, 80097f4 <rand+0x38>
 80097c6:	2018      	movs	r0, #24
 80097c8:	f001 f896 	bl	800a8f8 <malloc>
 80097cc:	4602      	mov	r2, r0
 80097ce:	6320      	str	r0, [r4, #48]	; 0x30
 80097d0:	b920      	cbnz	r0, 80097dc <rand+0x20>
 80097d2:	4b12      	ldr	r3, [pc, #72]	; (800981c <rand+0x60>)
 80097d4:	4812      	ldr	r0, [pc, #72]	; (8009820 <rand+0x64>)
 80097d6:	2152      	movs	r1, #82	; 0x52
 80097d8:	f000 ffcc 	bl	800a774 <__assert_func>
 80097dc:	4911      	ldr	r1, [pc, #68]	; (8009824 <rand+0x68>)
 80097de:	4b12      	ldr	r3, [pc, #72]	; (8009828 <rand+0x6c>)
 80097e0:	e9c0 1300 	strd	r1, r3, [r0]
 80097e4:	4b11      	ldr	r3, [pc, #68]	; (800982c <rand+0x70>)
 80097e6:	6083      	str	r3, [r0, #8]
 80097e8:	230b      	movs	r3, #11
 80097ea:	8183      	strh	r3, [r0, #12]
 80097ec:	2100      	movs	r1, #0
 80097ee:	2001      	movs	r0, #1
 80097f0:	e9c2 0104 	strd	r0, r1, [r2, #16]
 80097f4:	6b21      	ldr	r1, [r4, #48]	; 0x30
 80097f6:	480e      	ldr	r0, [pc, #56]	; (8009830 <rand+0x74>)
 80097f8:	690b      	ldr	r3, [r1, #16]
 80097fa:	694c      	ldr	r4, [r1, #20]
 80097fc:	4a0d      	ldr	r2, [pc, #52]	; (8009834 <rand+0x78>)
 80097fe:	4358      	muls	r0, r3
 8009800:	fb02 0004 	mla	r0, r2, r4, r0
 8009804:	fba3 3202 	umull	r3, r2, r3, r2
 8009808:	3301      	adds	r3, #1
 800980a:	eb40 0002 	adc.w	r0, r0, r2
 800980e:	e9c1 3004 	strd	r3, r0, [r1, #16]
 8009812:	f020 4000 	bic.w	r0, r0, #2147483648	; 0x80000000
 8009816:	bd10      	pop	{r4, pc}
 8009818:	2000008c 	.word	0x2000008c
 800981c:	0800db3e 	.word	0x0800db3e
 8009820:	0800db55 	.word	0x0800db55
 8009824:	abcd330e 	.word	0xabcd330e
 8009828:	e66d1234 	.word	0xe66d1234
 800982c:	0005deec 	.word	0x0005deec
 8009830:	5851f42d 	.word	0x5851f42d
 8009834:	4c957f2d 	.word	0x4c957f2d

08009838 <_strtol_l.constprop.0>:
 8009838:	2b01      	cmp	r3, #1
 800983a:	e92d 47f0 	stmdb	sp!, {r4, r5, r6, r7, r8, r9, sl, lr}
 800983e:	d001      	beq.n	8009844 <_strtol_l.constprop.0+0xc>
 8009840:	2b24      	cmp	r3, #36	; 0x24
 8009842:	d906      	bls.n	8009852 <_strtol_l.constprop.0+0x1a>
 8009844:	f000 ff50 	bl	800a6e8 <__errno>
 8009848:	2316      	movs	r3, #22
 800984a:	6003      	str	r3, [r0, #0]
 800984c:	2000      	movs	r0, #0
 800984e:	e8bd 87f0 	ldmia.w	sp!, {r4, r5, r6, r7, r8, r9, sl, pc}
 8009852:	f8df c0e4 	ldr.w	ip, [pc, #228]	; 8009938 <_strtol_l.constprop.0+0x100>
 8009856:	460d      	mov	r5, r1
 8009858:	462e      	mov	r6, r5
 800985a:	f815 4b01 	ldrb.w	r4, [r5], #1
 800985e:	f81c 7004 	ldrb.w	r7, [ip, r4]
 8009862:	f017 0708 	ands.w	r7, r7, #8
 8009866:	d1f7      	bne.n	8009858 <_strtol_l.constprop.0+0x20>
 8009868:	2c2d      	cmp	r4, #45	; 0x2d
 800986a:	d132      	bne.n	80098d2 <_strtol_l.constprop.0+0x9a>
 800986c:	782c      	ldrb	r4, [r5, #0]
 800986e:	2701      	movs	r7, #1
 8009870:	1cb5      	adds	r5, r6, #2
 8009872:	2b00      	cmp	r3, #0
 8009874:	d05b      	beq.n	800992e <_strtol_l.constprop.0+0xf6>
 8009876:	2b10      	cmp	r3, #16
 8009878:	d109      	bne.n	800988e <_strtol_l.constprop.0+0x56>
 800987a:	2c30      	cmp	r4, #48	; 0x30
 800987c:	d107      	bne.n	800988e <_strtol_l.constprop.0+0x56>
 800987e:	782c      	ldrb	r4, [r5, #0]
 8009880:	f004 04df 	and.w	r4, r4, #223	; 0xdf
 8009884:	2c58      	cmp	r4, #88	; 0x58
 8009886:	d14d      	bne.n	8009924 <_strtol_l.constprop.0+0xec>
 8009888:	786c      	ldrb	r4, [r5, #1]
 800988a:	2310      	movs	r3, #16
 800988c:	3502      	adds	r5, #2
 800988e:	f107 4800 	add.w	r8, r7, #2147483648	; 0x80000000
 8009892:	f108 38ff 	add.w	r8, r8, #4294967295
 8009896:	f04f 0e00 	mov.w	lr, #0
 800989a:	fbb8 f9f3 	udiv	r9, r8, r3
 800989e:	4676      	mov	r6, lr
 80098a0:	fb03 8a19 	mls	sl, r3, r9, r8
 80098a4:	f1a4 0c30 	sub.w	ip, r4, #48	; 0x30
 80098a8:	f1bc 0f09 	cmp.w	ip, #9
 80098ac:	d816      	bhi.n	80098dc <_strtol_l.constprop.0+0xa4>
 80098ae:	4664      	mov	r4, ip
 80098b0:	42a3      	cmp	r3, r4
 80098b2:	dd24      	ble.n	80098fe <_strtol_l.constprop.0+0xc6>
 80098b4:	f1be 3fff 	cmp.w	lr, #4294967295
 80098b8:	d008      	beq.n	80098cc <_strtol_l.constprop.0+0x94>
 80098ba:	45b1      	cmp	r9, r6
 80098bc:	d31c      	bcc.n	80098f8 <_strtol_l.constprop.0+0xc0>
 80098be:	d101      	bne.n	80098c4 <_strtol_l.constprop.0+0x8c>
 80098c0:	45a2      	cmp	sl, r4
 80098c2:	db19      	blt.n	80098f8 <_strtol_l.constprop.0+0xc0>
 80098c4:	fb06 4603 	mla	r6, r6, r3, r4
 80098c8:	f04f 0e01 	mov.w	lr, #1
 80098cc:	f815 4b01 	ldrb.w	r4, [r5], #1
 80098d0:	e7e8      	b.n	80098a4 <_strtol_l.constprop.0+0x6c>
 80098d2:	2c2b      	cmp	r4, #43	; 0x2b
 80098d4:	bf04      	itt	eq
 80098d6:	782c      	ldrbeq	r4, [r5, #0]
 80098d8:	1cb5      	addeq	r5, r6, #2
 80098da:	e7ca      	b.n	8009872 <_strtol_l.constprop.0+0x3a>
 80098dc:	f1a4 0c41 	sub.w	ip, r4, #65	; 0x41
 80098e0:	f1bc 0f19 	cmp.w	ip, #25
 80098e4:	d801      	bhi.n	80098ea <_strtol_l.constprop.0+0xb2>
 80098e6:	3c37      	subs	r4, #55	; 0x37
 80098e8:	e7e2      	b.n	80098b0 <_strtol_l.constprop.0+0x78>
 80098ea:	f1a4 0c61 	sub.w	ip, r4, #97	; 0x61
 80098ee:	f1bc 0f19 	cmp.w	ip, #25
 80098f2:	d804      	bhi.n	80098fe <_strtol_l.constprop.0+0xc6>
 80098f4:	3c57      	subs	r4, #87	; 0x57
 80098f6:	e7db      	b.n	80098b0 <_strtol_l.constprop.0+0x78>
 80098f8:	f04f 3eff 	mov.w	lr, #4294967295
 80098fc:	e7e6      	b.n	80098cc <_strtol_l.constprop.0+0x94>
 80098fe:	f1be 3fff 	cmp.w	lr, #4294967295
 8009902:	d105      	bne.n	8009910 <_strtol_l.constprop.0+0xd8>
 8009904:	2322      	movs	r3, #34	; 0x22
 8009906:	6003      	str	r3, [r0, #0]
 8009908:	4646      	mov	r6, r8
 800990a:	b942      	cbnz	r2, 800991e <_strtol_l.constprop.0+0xe6>
 800990c:	4630      	mov	r0, r6
 800990e:	e79e      	b.n	800984e <_strtol_l.constprop.0+0x16>
 8009910:	b107      	cbz	r7, 8009914 <_strtol_l.constprop.0+0xdc>
 8009912:	4276      	negs	r6, r6
 8009914:	2a00      	cmp	r2, #0
 8009916:	d0f9      	beq.n	800990c <_strtol_l.constprop.0+0xd4>
 8009918:	f1be 0f00 	cmp.w	lr, #0
 800991c:	d000      	beq.n	8009920 <_strtol_l.constprop.0+0xe8>
 800991e:	1e69      	subs	r1, r5, #1
 8009920:	6011      	str	r1, [r2, #0]
 8009922:	e7f3      	b.n	800990c <_strtol_l.constprop.0+0xd4>
 8009924:	2430      	movs	r4, #48	; 0x30
 8009926:	2b00      	cmp	r3, #0
 8009928:	d1b1      	bne.n	800988e <_strtol_l.constprop.0+0x56>
 800992a:	2308      	movs	r3, #8
 800992c:	e7af      	b.n	800988e <_strtol_l.constprop.0+0x56>
 800992e:	2c30      	cmp	r4, #48	; 0x30
 8009930:	d0a5      	beq.n	800987e <_strtol_l.constprop.0+0x46>
 8009932:	230a      	movs	r3, #10
 8009934:	e7ab      	b.n	800988e <_strtol_l.constprop.0+0x56>
 8009936:	bf00      	nop
 8009938:	0800dbae 	.word	0x0800dbae

0800993c <_strtol_r>:
 800993c:	f7ff bf7c 	b.w	8009838 <_strtol_l.constprop.0>

08009940 <std>:
 8009940:	2300      	movs	r3, #0
 8009942:	b510      	push	{r4, lr}
 8009944:	4604      	mov	r4, r0
 8009946:	e9c0 3300 	strd	r3, r3, [r0]
 800994a:	e9c0 3304 	strd	r3, r3, [r0, #16]
 800994e:	6083      	str	r3, [r0, #8]
 8009950:	8181      	strh	r1, [r0, #12]
 8009952:	6643      	str	r3, [r0, #100]	; 0x64
 8009954:	81c2      	strh	r2, [r0, #14]
 8009956:	6183      	str	r3, [r0, #24]
 8009958:	4619      	mov	r1, r3
 800995a:	2208      	movs	r2, #8
 800995c:	305c      	adds	r0, #92	; 0x5c
 800995e:	f000 f918 	bl	8009b92 <memset>
 8009962:	4b0d      	ldr	r3, [pc, #52]	; (8009998 <std+0x58>)
 8009964:	6263      	str	r3, [r4, #36]	; 0x24
 8009966:	4b0d      	ldr	r3, [pc, #52]	; (800999c <std+0x5c>)
 8009968:	62a3      	str	r3, [r4, #40]	; 0x28
 800996a:	4b0d      	ldr	r3, [pc, #52]	; (80099a0 <std+0x60>)
 800996c:	62e3      	str	r3, [r4, #44]	; 0x2c
 800996e:	4b0d      	ldr	r3, [pc, #52]	; (80099a4 <std+0x64>)
 8009970:	6323      	str	r3, [r4, #48]	; 0x30
 8009972:	4b0d      	ldr	r3, [pc, #52]	; (80099a8 <std+0x68>)
 8009974:	6224      	str	r4, [r4, #32]
 8009976:	429c      	cmp	r4, r3
 8009978:	d006      	beq.n	8009988 <std+0x48>
 800997a:	f103 0268 	add.w	r2, r3, #104	; 0x68
 800997e:	4294      	cmp	r4, r2
 8009980:	d002      	beq.n	8009988 <std+0x48>
 8009982:	33d0      	adds	r3, #208	; 0xd0
 8009984:	429c      	cmp	r4, r3
 8009986:	d105      	bne.n	8009994 <std+0x54>
 8009988:	f104 0058 	add.w	r0, r4, #88	; 0x58
 800998c:	e8bd 4010 	ldmia.w	sp!, {r4, lr}
 8009990:	f000 bed4 	b.w	800a73c <__retarget_lock_init_recursive>
 8009994:	bd10      	pop	{r4, pc}
 8009996:	bf00      	nop
 8009998:	08009ae9 	.word	0x08009ae9
 800999c:	08009b0f 	.word	0x08009b0f
 80099a0:	08009b47 	.word	0x08009b47
 80099a4:	08009b6b 	.word	0x08009b6b
 80099a8:	2000ab84 	.word	0x2000ab84

080099ac <stdio_exit_handler>:
 80099ac:	4a02      	ldr	r2, [pc, #8]	; (80099b8 <stdio_exit_handler+0xc>)
 80099ae:	4903      	ldr	r1, [pc, #12]	; (80099bc <stdio_exit_handler+0x10>)
 80099b0:	4803      	ldr	r0, [pc, #12]	; (80099c0 <stdio_exit_handler+0x14>)
 80099b2:	f000 b869 	b.w	8009a88 <_fwalk_sglue>
 80099b6:	bf00      	nop
 80099b8:	2000002c 	.word	0x2000002c
 80099bc:	0800b221 	.word	0x0800b221
 80099c0:	20000040 	.word	0x20000040

080099c4 <cleanup_stdio>:
 80099c4:	6841      	ldr	r1, [r0, #4]
 80099c6:	4b0c      	ldr	r3, [pc, #48]	; (80099f8 <cleanup_stdio+0x34>)
 80099c8:	4299      	cmp	r1, r3
 80099ca:	b510      	push	{r4, lr}
 80099cc:	4604      	mov	r4, r0
 80099ce:	d001      	beq.n	80099d4 <cleanup_stdio+0x10>
 80099d0:	f001 fc26 	bl	800b220 <_fflush_r>
 80099d4:	68a1      	ldr	r1, [r4, #8]
 80099d6:	4b09      	ldr	r3, [pc, #36]	; (80099fc <cleanup_stdio+0x38>)
 80099d8:	4299      	cmp	r1, r3
 80099da:	d002      	beq.n	80099e2 <cleanup_stdio+0x1e>
 80099dc:	4620      	mov	r0, r4
 80099de:	f001 fc1f 	bl	800b220 <_fflush_r>
 80099e2:	68e1      	ldr	r1, [r4, #12]
 80099e4:	4b06      	ldr	r3, [pc, #24]	; (8009a00 <cleanup_stdio+0x3c>)
 80099e6:	4299      	cmp	r1, r3
 80099e8:	d004      	beq.n	80099f4 <cleanup_stdio+0x30>
 80099ea:	4620      	mov	r0, r4
 80099ec:	e8bd 4010 	ldmia.w	sp!, {r4, lr}
 80099f0:	f001 bc16 	b.w	800b220 <_fflush_r>
 80099f4:	bd10      	pop	{r4, pc}
 80099f6:	bf00      	nop
 80099f8:	2000ab84 	.word	0x2000ab84
 80099fc:	2000abec 	.word	0x2000abec
 8009a00:	2000ac54 	.word	0x2000ac54

08009a04 <global_stdio_init.part.0>:
 8009a04:	b510      	push	{r4, lr}
 8009a06:	4b0b      	ldr	r3, [pc, #44]	; (8009a34 <global_stdio_init.part.0+0x30>)
 8009a08:	4c0b      	ldr	r4, [pc, #44]	; (8009a38 <global_stdio_init.part.0+0x34>)
 8009a0a:	4a0c      	ldr	r2, [pc, #48]	; (8009a3c <global_stdio_init.part.0+0x38>)
 8009a0c:	601a      	str	r2, [r3, #0]
 8009a0e:	4620      	mov	r0, r4
 8009a10:	2200      	movs	r2, #0
 8009a12:	2104      	movs	r1, #4
 8009a14:	f7ff ff94 	bl	8009940 <std>
 8009a18:	f104 0068 	add.w	r0, r4, #104	; 0x68
 8009a1c:	2201      	movs	r2, #1
 8009a1e:	2109      	movs	r1, #9
 8009a20:	f7ff ff8e 	bl	8009940 <std>
 8009a24:	f104 00d0 	add.w	r0, r4, #208	; 0xd0
 8009a28:	2202      	movs	r2, #2
 8009a2a:	e8bd 4010 	ldmia.w	sp!, {r4, lr}
 8009a2e:	2112      	movs	r1, #18
 8009a30:	f7ff bf86 	b.w	8009940 <std>
 8009a34:	2000acbc 	.word	0x2000acbc
 8009a38:	2000ab84 	.word	0x2000ab84
 8009a3c:	080099ad 	.word	0x080099ad

08009a40 <__sfp_lock_acquire>:
 8009a40:	4801      	ldr	r0, [pc, #4]	; (8009a48 <__sfp_lock_acquire+0x8>)
 8009a42:	f000 be7d 	b.w	800a740 <__retarget_lock_acquire_recursive>
 8009a46:	bf00      	nop
 8009a48:	2000acea 	.word	0x2000acea

08009a4c <__sfp_lock_release>:
 8009a4c:	4801      	ldr	r0, [pc, #4]	; (8009a54 <__sfp_lock_release+0x8>)
 8009a4e:	f000 be79 	b.w	800a744 <__retarget_lock_release_recursive>
 8009a52:	bf00      	nop
 8009a54:	2000acea 	.word	0x2000acea

08009a58 <__sinit>:
 8009a58:	b510      	push	{r4, lr}
 8009a5a:	4604      	mov	r4, r0
 8009a5c:	f7ff fff0 	bl	8009a40 <__sfp_lock_acquire>
 8009a60:	6a23      	ldr	r3, [r4, #32]
 8009a62:	b11b      	cbz	r3, 8009a6c <__sinit+0x14>
 8009a64:	e8bd 4010 	ldmia.w	sp!, {r4, lr}
 8009a68:	f7ff bff0 	b.w	8009a4c <__sfp_lock_release>
 8009a6c:	4b04      	ldr	r3, [pc, #16]	; (8009a80 <__sinit+0x28>)
 8009a6e:	6223      	str	r3, [r4, #32]
 8009a70:	4b04      	ldr	r3, [pc, #16]	; (8009a84 <__sinit+0x2c>)
 8009a72:	681b      	ldr	r3, [r3, #0]
 8009a74:	2b00      	cmp	r3, #0
 8009a76:	d1f5      	bne.n	8009a64 <__sinit+0xc>
 8009a78:	f7ff ffc4 	bl	8009a04 <global_stdio_init.part.0>
 8009a7c:	e7f2      	b.n	8009a64 <__sinit+0xc>
 8009a7e:	bf00      	nop
 8009a80:	080099c5 	.word	0x080099c5
 8009a84:	2000acbc 	.word	0x2000acbc

08009a88 <_fwalk_sglue>:
 8009a88:	e92d 43f8 	stmdb	sp!, {r3, r4, r5, r6, r7, r8, r9, lr}
 8009a8c:	4607      	mov	r7, r0
 8009a8e:	4688      	mov	r8, r1
 8009a90:	4614      	mov	r4, r2
 8009a92:	2600      	movs	r6, #0
 8009a94:	e9d4 9501 	ldrd	r9, r5, [r4, #4]
 8009a98:	f1b9 0901 	subs.w	r9, r9, #1
 8009a9c:	d505      	bpl.n	8009aaa <_fwalk_sglue+0x22>
 8009a9e:	6824      	ldr	r4, [r4, #0]
 8009aa0:	2c00      	cmp	r4, #0
 8009aa2:	d1f7      	bne.n	8009a94 <_fwalk_sglue+0xc>
 8009aa4:	4630      	mov	r0, r6
 8009aa6:	e8bd 83f8 	ldmia.w	sp!, {r3, r4, r5, r6, r7, r8, r9, pc}
 8009aaa:	89ab      	ldrh	r3, [r5, #12]
 8009aac:	2b01      	cmp	r3, #1
 8009aae:	d907      	bls.n	8009ac0 <_fwalk_sglue+0x38>
 8009ab0:	f9b5 300e 	ldrsh.w	r3, [r5, #14]
 8009ab4:	3301      	adds	r3, #1
 8009ab6:	d003      	beq.n	8009ac0 <_fwalk_sglue+0x38>
 8009ab8:	4629      	mov	r1, r5
 8009aba:	4638      	mov	r0, r7
 8009abc:	47c0      	blx	r8
 8009abe:	4306      	orrs	r6, r0
 8009ac0:	3568      	adds	r5, #104	; 0x68
 8009ac2:	e7e9      	b.n	8009a98 <_fwalk_sglue+0x10>

08009ac4 <iprintf>:
 8009ac4:	b40f      	push	{r0, r1, r2, r3}
 8009ac6:	b507      	push	{r0, r1, r2, lr}
 8009ac8:	4906      	ldr	r1, [pc, #24]	; (8009ae4 <iprintf+0x20>)
 8009aca:	ab04      	add	r3, sp, #16
 8009acc:	6808      	ldr	r0, [r1, #0]
 8009ace:	f853 2b04 	ldr.w	r2, [r3], #4
 8009ad2:	6881      	ldr	r1, [r0, #8]
 8009ad4:	9301      	str	r3, [sp, #4]
 8009ad6:	f001 f873 	bl	800abc0 <_vfiprintf_r>
 8009ada:	b003      	add	sp, #12
 8009adc:	f85d eb04 	ldr.w	lr, [sp], #4
 8009ae0:	b004      	add	sp, #16
 8009ae2:	4770      	bx	lr
 8009ae4:	2000008c 	.word	0x2000008c

08009ae8 <__sread>:
 8009ae8:	b510      	push	{r4, lr}
 8009aea:	460c      	mov	r4, r1
 8009aec:	f9b1 100e 	ldrsh.w	r1, [r1, #14]
 8009af0:	f000 fdd6 	bl	800a6a0 <_read_r>
 8009af4:	2800      	cmp	r0, #0
 8009af6:	bfab      	itete	ge
 8009af8:	6d63      	ldrge	r3, [r4, #84]	; 0x54
 8009afa:	89a3      	ldrhlt	r3, [r4, #12]
 8009afc:	181b      	addge	r3, r3, r0
 8009afe:	f423 5380 	biclt.w	r3, r3, #4096	; 0x1000
 8009b02:	bfac      	ite	ge
 8009b04:	6563      	strge	r3, [r4, #84]	; 0x54
 8009b06:	81a3      	strhlt	r3, [r4, #12]
 8009b08:	bd10      	pop	{r4, pc}

08009b0a <__seofread>:
 8009b0a:	2000      	movs	r0, #0
 8009b0c:	4770      	bx	lr

08009b0e <__swrite>:
 8009b0e:	e92d 41f0 	stmdb	sp!, {r4, r5, r6, r7, r8, lr}
 8009b12:	461f      	mov	r7, r3
 8009b14:	898b      	ldrh	r3, [r1, #12]
 8009b16:	05db      	lsls	r3, r3, #23
 8009b18:	4605      	mov	r5, r0
 8009b1a:	460c      	mov	r4, r1
 8009b1c:	4616      	mov	r6, r2
 8009b1e:	d505      	bpl.n	8009b2c <__swrite+0x1e>
 8009b20:	f9b1 100e 	ldrsh.w	r1, [r1, #14]
 8009b24:	2302      	movs	r3, #2
 8009b26:	2200      	movs	r2, #0
 8009b28:	f000 fda8 	bl	800a67c <_lseek_r>
 8009b2c:	89a3      	ldrh	r3, [r4, #12]
 8009b2e:	f9b4 100e 	ldrsh.w	r1, [r4, #14]
 8009b32:	f423 5380 	bic.w	r3, r3, #4096	; 0x1000
 8009b36:	81a3      	strh	r3, [r4, #12]
 8009b38:	4632      	mov	r2, r6
 8009b3a:	463b      	mov	r3, r7
 8009b3c:	4628      	mov	r0, r5
 8009b3e:	e8bd 41f0 	ldmia.w	sp!, {r4, r5, r6, r7, r8, lr}
 8009b42:	f000 bdbf 	b.w	800a6c4 <_write_r>

08009b46 <__sseek>:
 8009b46:	b510      	push	{r4, lr}
 8009b48:	460c      	mov	r4, r1
 8009b4a:	f9b1 100e 	ldrsh.w	r1, [r1, #14]
 8009b4e:	f000 fd95 	bl	800a67c <_lseek_r>
 8009b52:	1c43      	adds	r3, r0, #1
 8009b54:	89a3      	ldrh	r3, [r4, #12]
 8009b56:	bf15      	itete	ne
 8009b58:	6560      	strne	r0, [r4, #84]	; 0x54
 8009b5a:	f423 5380 	biceq.w	r3, r3, #4096	; 0x1000
 8009b5e:	f443 5380 	orrne.w	r3, r3, #4096	; 0x1000
 8009b62:	81a3      	strheq	r3, [r4, #12]
 8009b64:	bf18      	it	ne
 8009b66:	81a3      	strhne	r3, [r4, #12]
 8009b68:	bd10      	pop	{r4, pc}

08009b6a <__sclose>:
 8009b6a:	f9b1 100e 	ldrsh.w	r1, [r1, #14]
 8009b6e:	f000 bd75 	b.w	800a65c <_close_r>

08009b72 <memcmp>:
 8009b72:	b510      	push	{r4, lr}
 8009b74:	3901      	subs	r1, #1
 8009b76:	4402      	add	r2, r0
 8009b78:	4290      	cmp	r0, r2
 8009b7a:	d101      	bne.n	8009b80 <memcmp+0xe>
 8009b7c:	2000      	movs	r0, #0
 8009b7e:	e005      	b.n	8009b8c <memcmp+0x1a>
 8009b80:	7803      	ldrb	r3, [r0, #0]
 8009b82:	f811 4f01 	ldrb.w	r4, [r1, #1]!
 8009b86:	42a3      	cmp	r3, r4
 8009b88:	d001      	beq.n	8009b8e <memcmp+0x1c>
 8009b8a:	1b18      	subs	r0, r3, r4
 8009b8c:	bd10      	pop	{r4, pc}
 8009b8e:	3001      	adds	r0, #1
 8009b90:	e7f2      	b.n	8009b78 <memcmp+0x6>

08009b92 <memset>:
 8009b92:	4402      	add	r2, r0
 8009b94:	4603      	mov	r3, r0
 8009b96:	4293      	cmp	r3, r2
 8009b98:	d100      	bne.n	8009b9c <memset+0xa>
 8009b9a:	4770      	bx	lr
 8009b9c:	f803 1b01 	strb.w	r1, [r3], #1
 8009ba0:	e7f9      	b.n	8009b96 <memset+0x4>

08009ba2 <strncmp>:
 8009ba2:	b510      	push	{r4, lr}
 8009ba4:	b16a      	cbz	r2, 8009bc2 <strncmp+0x20>
 8009ba6:	3901      	subs	r1, #1
 8009ba8:	1884      	adds	r4, r0, r2
 8009baa:	f810 2b01 	ldrb.w	r2, [r0], #1
 8009bae:	f811 3f01 	ldrb.w	r3, [r1, #1]!
 8009bb2:	429a      	cmp	r2, r3
 8009bb4:	d103      	bne.n	8009bbe <strncmp+0x1c>
 8009bb6:	42a0      	cmp	r0, r4
 8009bb8:	d001      	beq.n	8009bbe <strncmp+0x1c>
 8009bba:	2a00      	cmp	r2, #0
 8009bbc:	d1f5      	bne.n	8009baa <strncmp+0x8>
 8009bbe:	1ad0      	subs	r0, r2, r3
 8009bc0:	bd10      	pop	{r4, pc}
 8009bc2:	4610      	mov	r0, r2
 8009bc4:	e7fc      	b.n	8009bc0 <strncmp+0x1e>
	...

08009bc8 <validate_structure>:
 8009bc8:	b5f7      	push	{r0, r1, r2, r4, r5, r6, r7, lr}
 8009bca:	6801      	ldr	r1, [r0, #0]
 8009bcc:	293b      	cmp	r1, #59	; 0x3b
 8009bce:	4604      	mov	r4, r0
 8009bd0:	d911      	bls.n	8009bf6 <validate_structure+0x2e>
 8009bd2:	223c      	movs	r2, #60	; 0x3c
 8009bd4:	4668      	mov	r0, sp
 8009bd6:	f000 fdeb 	bl	800a7b0 <div>
 8009bda:	9a01      	ldr	r2, [sp, #4]
 8009bdc:	6863      	ldr	r3, [r4, #4]
 8009bde:	9900      	ldr	r1, [sp, #0]
 8009be0:	2a00      	cmp	r2, #0
 8009be2:	440b      	add	r3, r1
 8009be4:	6063      	str	r3, [r4, #4]
 8009be6:	bfbb      	ittet	lt
 8009be8:	323c      	addlt	r2, #60	; 0x3c
 8009bea:	f103 33ff 	addlt.w	r3, r3, #4294967295
 8009bee:	6022      	strge	r2, [r4, #0]
 8009bf0:	6022      	strlt	r2, [r4, #0]
 8009bf2:	bfb8      	it	lt
 8009bf4:	6063      	strlt	r3, [r4, #4]
 8009bf6:	6861      	ldr	r1, [r4, #4]
 8009bf8:	293b      	cmp	r1, #59	; 0x3b
 8009bfa:	d911      	bls.n	8009c20 <validate_structure+0x58>
 8009bfc:	223c      	movs	r2, #60	; 0x3c
 8009bfe:	4668      	mov	r0, sp
 8009c00:	f000 fdd6 	bl	800a7b0 <div>
 8009c04:	9a01      	ldr	r2, [sp, #4]
 8009c06:	68a3      	ldr	r3, [r4, #8]
 8009c08:	9900      	ldr	r1, [sp, #0]
 8009c0a:	2a00      	cmp	r2, #0
 8009c0c:	440b      	add	r3, r1
 8009c0e:	60a3      	str	r3, [r4, #8]
 8009c10:	bfbb      	ittet	lt
 8009c12:	323c      	addlt	r2, #60	; 0x3c
 8009c14:	f103 33ff 	addlt.w	r3, r3, #4294967295
 8009c18:	6062      	strge	r2, [r4, #4]
 8009c1a:	6062      	strlt	r2, [r4, #4]
 8009c1c:	bfb8      	it	lt
 8009c1e:	60a3      	strlt	r3, [r4, #8]
 8009c20:	68a1      	ldr	r1, [r4, #8]
 8009c22:	2917      	cmp	r1, #23
 8009c24:	d911      	bls.n	8009c4a <validate_structure+0x82>
 8009c26:	2218      	movs	r2, #24
 8009c28:	4668      	mov	r0, sp
 8009c2a:	f000 fdc1 	bl	800a7b0 <div>
 8009c2e:	9a01      	ldr	r2, [sp, #4]
 8009c30:	68e3      	ldr	r3, [r4, #12]
 8009c32:	9900      	ldr	r1, [sp, #0]
 8009c34:	2a00      	cmp	r2, #0
 8009c36:	440b      	add	r3, r1
 8009c38:	60e3      	str	r3, [r4, #12]
 8009c3a:	bfbb      	ittet	lt
 8009c3c:	3218      	addlt	r2, #24
 8009c3e:	f103 33ff 	addlt.w	r3, r3, #4294967295
 8009c42:	60a2      	strge	r2, [r4, #8]
 8009c44:	60a2      	strlt	r2, [r4, #8]
 8009c46:	bfb8      	it	lt
 8009c48:	60e3      	strlt	r3, [r4, #12]
 8009c4a:	6921      	ldr	r1, [r4, #16]
 8009c4c:	290b      	cmp	r1, #11
 8009c4e:	d911      	bls.n	8009c74 <validate_structure+0xac>
 8009c50:	220c      	movs	r2, #12
 8009c52:	4668      	mov	r0, sp
 8009c54:	f000 fdac 	bl	800a7b0 <div>
 8009c58:	9a01      	ldr	r2, [sp, #4]
 8009c5a:	6963      	ldr	r3, [r4, #20]
 8009c5c:	9900      	ldr	r1, [sp, #0]
 8009c5e:	2a00      	cmp	r2, #0
 8009c60:	440b      	add	r3, r1
 8009c62:	6163      	str	r3, [r4, #20]
 8009c64:	bfbb      	ittet	lt
 8009c66:	320c      	addlt	r2, #12
 8009c68:	f103 33ff 	addlt.w	r3, r3, #4294967295
 8009c6c:	6122      	strge	r2, [r4, #16]
 8009c6e:	6122      	strlt	r2, [r4, #16]
 8009c70:	bfb8      	it	lt
 8009c72:	6163      	strlt	r3, [r4, #20]
 8009c74:	6963      	ldr	r3, [r4, #20]
 8009c76:	079a      	lsls	r2, r3, #30
 8009c78:	d11e      	bne.n	8009cb8 <validate_structure+0xf0>
 8009c7a:	2164      	movs	r1, #100	; 0x64
 8009c7c:	fb93 f2f1 	sdiv	r2, r3, r1
 8009c80:	fb01 3212 	mls	r2, r1, r2, r3
 8009c84:	b9d2      	cbnz	r2, 8009cbc <validate_structure+0xf4>
 8009c86:	f203 736c 	addw	r3, r3, #1900	; 0x76c
 8009c8a:	f44f 72c8 	mov.w	r2, #400	; 0x190
 8009c8e:	fb93 f1f2 	sdiv	r1, r3, r2
 8009c92:	fb02 3311 	mls	r3, r2, r1, r3
 8009c96:	2b00      	cmp	r3, #0
 8009c98:	bf14      	ite	ne
 8009c9a:	231c      	movne	r3, #28
 8009c9c:	231d      	moveq	r3, #29
 8009c9e:	68e2      	ldr	r2, [r4, #12]
 8009ca0:	2a00      	cmp	r2, #0
 8009ca2:	dc0d      	bgt.n	8009cc0 <validate_structure+0xf8>
 8009ca4:	4e32      	ldr	r6, [pc, #200]	; (8009d70 <validate_structure+0x1a8>)
 8009ca6:	250b      	movs	r5, #11
 8009ca8:	2164      	movs	r1, #100	; 0x64
 8009caa:	f44f 70c8 	mov.w	r0, #400	; 0x190
 8009cae:	68e7      	ldr	r7, [r4, #12]
 8009cb0:	2f00      	cmp	r7, #0
 8009cb2:	dd31      	ble.n	8009d18 <validate_structure+0x150>
 8009cb4:	b003      	add	sp, #12
 8009cb6:	bdf0      	pop	{r4, r5, r6, r7, pc}
 8009cb8:	231c      	movs	r3, #28
 8009cba:	e7f0      	b.n	8009c9e <validate_structure+0xd6>
 8009cbc:	231d      	movs	r3, #29
 8009cbe:	e7ee      	b.n	8009c9e <validate_structure+0xd6>
 8009cc0:	4e2b      	ldr	r6, [pc, #172]	; (8009d70 <validate_structure+0x1a8>)
 8009cc2:	2700      	movs	r7, #0
 8009cc4:	2064      	movs	r0, #100	; 0x64
 8009cc6:	f44f 75c8 	mov.w	r5, #400	; 0x190
 8009cca:	e9d4 1203 	ldrd	r1, r2, [r4, #12]
 8009cce:	2a01      	cmp	r2, #1
 8009cd0:	bf14      	ite	ne
 8009cd2:	f856 c022 	ldrne.w	ip, [r6, r2, lsl #2]
 8009cd6:	469c      	moveq	ip, r3
 8009cd8:	4561      	cmp	r1, ip
 8009cda:	ddeb      	ble.n	8009cb4 <validate_structure+0xec>
 8009cdc:	3201      	adds	r2, #1
 8009cde:	eba1 010c 	sub.w	r1, r1, ip
 8009ce2:	2a0c      	cmp	r2, #12
 8009ce4:	60e1      	str	r1, [r4, #12]
 8009ce6:	6122      	str	r2, [r4, #16]
 8009ce8:	d1ef      	bne.n	8009cca <validate_structure+0x102>
 8009cea:	6963      	ldr	r3, [r4, #20]
 8009cec:	1c5a      	adds	r2, r3, #1
 8009cee:	0791      	lsls	r1, r2, #30
 8009cf0:	e9c4 7204 	strd	r7, r2, [r4, #16]
 8009cf4:	d138      	bne.n	8009d68 <validate_structure+0x1a0>
 8009cf6:	fb92 f1f0 	sdiv	r1, r2, r0
 8009cfa:	fb00 2211 	mls	r2, r0, r1, r2
 8009cfe:	2a00      	cmp	r2, #0
 8009d00:	d134      	bne.n	8009d6c <validate_structure+0x1a4>
 8009d02:	f203 736d 	addw	r3, r3, #1901	; 0x76d
 8009d06:	fb93 f2f5 	sdiv	r2, r3, r5
 8009d0a:	fb05 3312 	mls	r3, r5, r2, r3
 8009d0e:	2b00      	cmp	r3, #0
 8009d10:	bf14      	ite	ne
 8009d12:	231c      	movne	r3, #28
 8009d14:	231d      	moveq	r3, #29
 8009d16:	e7d8      	b.n	8009cca <validate_structure+0x102>
 8009d18:	6922      	ldr	r2, [r4, #16]
 8009d1a:	3a01      	subs	r2, #1
 8009d1c:	6122      	str	r2, [r4, #16]
 8009d1e:	3201      	adds	r2, #1
 8009d20:	d115      	bne.n	8009d4e <validate_structure+0x186>
 8009d22:	6963      	ldr	r3, [r4, #20]
 8009d24:	1e5a      	subs	r2, r3, #1
 8009d26:	f012 0f03 	tst.w	r2, #3
 8009d2a:	e9c4 5204 	strd	r5, r2, [r4, #16]
 8009d2e:	d117      	bne.n	8009d60 <validate_structure+0x198>
 8009d30:	fb92 fcf1 	sdiv	ip, r2, r1
 8009d34:	fb01 221c 	mls	r2, r1, ip, r2
 8009d38:	b9a2      	cbnz	r2, 8009d64 <validate_structure+0x19c>
 8009d3a:	f203 736b 	addw	r3, r3, #1899	; 0x76b
 8009d3e:	fb93 f2f0 	sdiv	r2, r3, r0
 8009d42:	fb00 3312 	mls	r3, r0, r2, r3
 8009d46:	2b00      	cmp	r3, #0
 8009d48:	bf14      	ite	ne
 8009d4a:	231c      	movne	r3, #28
 8009d4c:	231d      	moveq	r3, #29
 8009d4e:	6922      	ldr	r2, [r4, #16]
 8009d50:	2a01      	cmp	r2, #1
 8009d52:	bf14      	ite	ne
 8009d54:	f856 2022 	ldrne.w	r2, [r6, r2, lsl #2]
 8009d58:	461a      	moveq	r2, r3
 8009d5a:	443a      	add	r2, r7
 8009d5c:	60e2      	str	r2, [r4, #12]
 8009d5e:	e7a6      	b.n	8009cae <validate_structure+0xe6>
 8009d60:	231c      	movs	r3, #28
 8009d62:	e7f4      	b.n	8009d4e <validate_structure+0x186>
 8009d64:	231d      	movs	r3, #29
 8009d66:	e7f2      	b.n	8009d4e <validate_structure+0x186>
 8009d68:	231c      	movs	r3, #28
 8009d6a:	e7ae      	b.n	8009cca <validate_structure+0x102>
 8009d6c:	231d      	movs	r3, #29
 8009d6e:	e7ac      	b.n	8009cca <validate_structure+0x102>
 8009d70:	0800dcb0 	.word	0x0800dcb0

08009d74 <mktime>:
 8009d74:	e92d 4ff0 	stmdb	sp!, {r4, r5, r6, r7, r8, r9, sl, fp, lr}
 8009d78:	b085      	sub	sp, #20
 8009d7a:	4607      	mov	r7, r0
 8009d7c:	f001 fb4c 	bl	800b418 <__gettzinfo>
 8009d80:	4681      	mov	r9, r0
 8009d82:	4638      	mov	r0, r7
 8009d84:	f7ff ff20 	bl	8009bc8 <validate_structure>
 8009d88:	e9d7 4300 	ldrd	r4, r3, [r7]
 8009d8c:	223c      	movs	r2, #60	; 0x3c
 8009d8e:	fb02 4403 	mla	r4, r2, r3, r4
 8009d92:	68bb      	ldr	r3, [r7, #8]
 8009d94:	697e      	ldr	r6, [r7, #20]
 8009d96:	f44f 6261 	mov.w	r2, #3600	; 0xe10
 8009d9a:	fb02 4403 	mla	r4, r2, r3, r4
 8009d9e:	e9d7 5303 	ldrd	r5, r3, [r7, #12]
 8009da2:	4abb      	ldr	r2, [pc, #748]	; (800a090 <mktime+0x31c>)
 8009da4:	f852 2023 	ldr.w	r2, [r2, r3, lsl #2]
 8009da8:	3d01      	subs	r5, #1
 8009daa:	2b01      	cmp	r3, #1
 8009dac:	4415      	add	r5, r2
 8009dae:	dd11      	ble.n	8009dd4 <mktime+0x60>
 8009db0:	07b1      	lsls	r1, r6, #30
 8009db2:	d10f      	bne.n	8009dd4 <mktime+0x60>
 8009db4:	2264      	movs	r2, #100	; 0x64
 8009db6:	fb96 f3f2 	sdiv	r3, r6, r2
 8009dba:	fb02 6313 	mls	r3, r2, r3, r6
 8009dbe:	b943      	cbnz	r3, 8009dd2 <mktime+0x5e>
 8009dc0:	f206 736c 	addw	r3, r6, #1900	; 0x76c
 8009dc4:	f44f 72c8 	mov.w	r2, #400	; 0x190
 8009dc8:	fb93 f1f2 	sdiv	r1, r3, r2
 8009dcc:	fb02 3311 	mls	r3, r2, r1, r3
 8009dd0:	b903      	cbnz	r3, 8009dd4 <mktime+0x60>
 8009dd2:	3501      	adds	r5, #1
 8009dd4:	f506 531c 	add.w	r3, r6, #9984	; 0x2700
 8009dd8:	3310      	adds	r3, #16
 8009dda:	f644 6220 	movw	r2, #20000	; 0x4e20
 8009dde:	4293      	cmp	r3, r2
 8009de0:	61fd      	str	r5, [r7, #28]
 8009de2:	f200 815e 	bhi.w	800a0a2 <mktime+0x32e>
 8009de6:	2e46      	cmp	r6, #70	; 0x46
 8009de8:	dd72      	ble.n	8009ed0 <mktime+0x15c>
 8009dea:	2346      	movs	r3, #70	; 0x46
 8009dec:	f240 1c6d 	movw	ip, #365	; 0x16d
 8009df0:	2164      	movs	r1, #100	; 0x64
 8009df2:	f44f 70c8 	mov.w	r0, #400	; 0x190
 8009df6:	079a      	lsls	r2, r3, #30
 8009df8:	d164      	bne.n	8009ec4 <mktime+0x150>
 8009dfa:	fb93 f2f1 	sdiv	r2, r3, r1
 8009dfe:	fb01 3212 	mls	r2, r1, r2, r3
 8009e02:	2a00      	cmp	r2, #0
 8009e04:	d161      	bne.n	8009eca <mktime+0x156>
 8009e06:	f203 726c 	addw	r2, r3, #1900	; 0x76c
 8009e0a:	fb92 fef0 	sdiv	lr, r2, r0
 8009e0e:	fb00 221e 	mls	r2, r0, lr, r2
 8009e12:	2a00      	cmp	r2, #0
 8009e14:	bf14      	ite	ne
 8009e16:	4662      	movne	r2, ip
 8009e18:	f44f 72b7 	moveq.w	r2, #366	; 0x16e
 8009e1c:	3301      	adds	r3, #1
 8009e1e:	429e      	cmp	r6, r3
 8009e20:	4415      	add	r5, r2
 8009e22:	d1e8      	bne.n	8009df6 <mktime+0x82>
 8009e24:	4b9b      	ldr	r3, [pc, #620]	; (800a094 <mktime+0x320>)
 8009e26:	ea4f 78e4 	mov.w	r8, r4, asr #31
 8009e2a:	fbc5 4803 	smlal	r4, r8, r5, r3
 8009e2e:	f000 f9e3 	bl	800a1f8 <__tz_lock>
 8009e32:	f000 f9ed 	bl	800a210 <_tzset_unlocked>
 8009e36:	4b98      	ldr	r3, [pc, #608]	; (800a098 <mktime+0x324>)
 8009e38:	f8d3 b000 	ldr.w	fp, [r3]
 8009e3c:	f1bb 0f00 	cmp.w	fp, #0
 8009e40:	d03a      	beq.n	8009eb8 <mktime+0x144>
 8009e42:	f8d7 b020 	ldr.w	fp, [r7, #32]
 8009e46:	6978      	ldr	r0, [r7, #20]
 8009e48:	f8d9 3004 	ldr.w	r3, [r9, #4]
 8009e4c:	f1bb 0f01 	cmp.w	fp, #1
 8009e50:	f200 706c 	addw	r0, r0, #1900	; 0x76c
 8009e54:	46da      	mov	sl, fp
 8009e56:	bfa8      	it	ge
 8009e58:	f04f 0a01 	movge.w	sl, #1
 8009e5c:	4283      	cmp	r3, r0
 8009e5e:	d179      	bne.n	8009f54 <mktime+0x1e0>
 8009e60:	e9d9 2108 	ldrd	r2, r1, [r9, #32]
 8009e64:	f8d9 0050 	ldr.w	r0, [r9, #80]	; 0x50
 8009e68:	f8d9 c04c 	ldr.w	ip, [r9, #76]	; 0x4c
 8009e6c:	1a13      	subs	r3, r2, r0
 8009e6e:	9302      	str	r3, [sp, #8]
 8009e70:	eb61 73e0 	sbc.w	r3, r1, r0, asr #31
 8009e74:	9303      	str	r3, [sp, #12]
 8009e76:	f8d9 3048 	ldr.w	r3, [r9, #72]	; 0x48
 8009e7a:	9301      	str	r3, [sp, #4]
 8009e7c:	9a01      	ldr	r2, [sp, #4]
 8009e7e:	f8d9 3028 	ldr.w	r3, [r9, #40]	; 0x28
 8009e82:	ebb2 0e03 	subs.w	lr, r2, r3
 8009e86:	eb6c 71e3 	sbc.w	r1, ip, r3, asr #31
 8009e8a:	4574      	cmp	r4, lr
 8009e8c:	eb78 0201 	sbcs.w	r2, r8, r1
 8009e90:	da66      	bge.n	8009f60 <mktime+0x1ec>
 8009e92:	f8d9 2000 	ldr.w	r2, [r9]
 8009e96:	2a00      	cmp	r2, #0
 8009e98:	d06f      	beq.n	8009f7a <mktime+0x206>
 8009e9a:	9a02      	ldr	r2, [sp, #8]
 8009e9c:	4294      	cmp	r4, r2
 8009e9e:	9a03      	ldr	r2, [sp, #12]
 8009ea0:	eb78 0202 	sbcs.w	r2, r8, r2
 8009ea4:	db03      	blt.n	8009eae <mktime+0x13a>
 8009ea6:	4574      	cmp	r4, lr
 8009ea8:	eb78 0101 	sbcs.w	r1, r8, r1
 8009eac:	db6b      	blt.n	8009f86 <mktime+0x212>
 8009eae:	f1bb 0f00 	cmp.w	fp, #0
 8009eb2:	f04f 0b00 	mov.w	fp, #0
 8009eb6:	da6b      	bge.n	8009f90 <mktime+0x21c>
 8009eb8:	f8d9 3028 	ldr.w	r3, [r9, #40]	; 0x28
 8009ebc:	191c      	adds	r4, r3, r4
 8009ebe:	eb48 78e3 	adc.w	r8, r8, r3, asr #31
 8009ec2:	e0a9      	b.n	800a018 <mktime+0x2a4>
 8009ec4:	f240 126d 	movw	r2, #365	; 0x16d
 8009ec8:	e7a8      	b.n	8009e1c <mktime+0xa8>
 8009eca:	f44f 72b7 	mov.w	r2, #366	; 0x16e
 8009ece:	e7a5      	b.n	8009e1c <mktime+0xa8>
 8009ed0:	d0a8      	beq.n	8009e24 <mktime+0xb0>
 8009ed2:	2345      	movs	r3, #69	; 0x45
 8009ed4:	f240 1c6d 	movw	ip, #365	; 0x16d
 8009ed8:	2164      	movs	r1, #100	; 0x64
 8009eda:	f44f 70c8 	mov.w	r0, #400	; 0x190
 8009ede:	e012      	b.n	8009f06 <mktime+0x192>
 8009ee0:	bb62      	cbnz	r2, 8009f3c <mktime+0x1c8>
 8009ee2:	fb93 f2f1 	sdiv	r2, r3, r1
 8009ee6:	fb01 3212 	mls	r2, r1, r2, r3
 8009eea:	bb52      	cbnz	r2, 8009f42 <mktime+0x1ce>
 8009eec:	f203 726c 	addw	r2, r3, #1900	; 0x76c
 8009ef0:	fb92 fef0 	sdiv	lr, r2, r0
 8009ef4:	fb00 221e 	mls	r2, r0, lr, r2
 8009ef8:	2a00      	cmp	r2, #0
 8009efa:	bf14      	ite	ne
 8009efc:	4662      	movne	r2, ip
 8009efe:	f44f 72b7 	moveq.w	r2, #366	; 0x16e
 8009f02:	1aad      	subs	r5, r5, r2
 8009f04:	3b01      	subs	r3, #1
 8009f06:	429e      	cmp	r6, r3
 8009f08:	f003 0203 	and.w	r2, r3, #3
 8009f0c:	dbe8      	blt.n	8009ee0 <mktime+0x16c>
 8009f0e:	b9da      	cbnz	r2, 8009f48 <mktime+0x1d4>
 8009f10:	2264      	movs	r2, #100	; 0x64
 8009f12:	fb96 f3f2 	sdiv	r3, r6, r2
 8009f16:	fb02 6313 	mls	r3, r2, r3, r6
 8009f1a:	b9c3      	cbnz	r3, 8009f4e <mktime+0x1da>
 8009f1c:	f206 736c 	addw	r3, r6, #1900	; 0x76c
 8009f20:	f44f 72c8 	mov.w	r2, #400	; 0x190
 8009f24:	fb93 f1f2 	sdiv	r1, r3, r2
 8009f28:	fb02 3311 	mls	r3, r2, r1, r3
 8009f2c:	2b00      	cmp	r3, #0
 8009f2e:	f240 136d 	movw	r3, #365	; 0x16d
 8009f32:	bf08      	it	eq
 8009f34:	f44f 73b7 	moveq.w	r3, #366	; 0x16e
 8009f38:	1aed      	subs	r5, r5, r3
 8009f3a:	e773      	b.n	8009e24 <mktime+0xb0>
 8009f3c:	f240 126d 	movw	r2, #365	; 0x16d
 8009f40:	e7df      	b.n	8009f02 <mktime+0x18e>
 8009f42:	f44f 72b7 	mov.w	r2, #366	; 0x16e
 8009f46:	e7dc      	b.n	8009f02 <mktime+0x18e>
 8009f48:	f240 136d 	movw	r3, #365	; 0x16d
 8009f4c:	e7f4      	b.n	8009f38 <mktime+0x1c4>
 8009f4e:	f44f 73b7 	mov.w	r3, #366	; 0x16e
 8009f52:	e7f1      	b.n	8009f38 <mktime+0x1c4>
 8009f54:	f000 f8aa 	bl	800a0ac <__tzcalc_limits>
 8009f58:	2800      	cmp	r0, #0
 8009f5a:	d181      	bne.n	8009e60 <mktime+0xec>
 8009f5c:	46d3      	mov	fp, sl
 8009f5e:	e050      	b.n	800a002 <mktime+0x28e>
 8009f60:	9a01      	ldr	r2, [sp, #4]
 8009f62:	1a12      	subs	r2, r2, r0
 8009f64:	9201      	str	r2, [sp, #4]
 8009f66:	ea4f 72e0 	mov.w	r2, r0, asr #31
 8009f6a:	eb6c 0c02 	sbc.w	ip, ip, r2
 8009f6e:	9a01      	ldr	r2, [sp, #4]
 8009f70:	4294      	cmp	r4, r2
 8009f72:	eb78 0c0c 	sbcs.w	ip, r8, ip
 8009f76:	dbf1      	blt.n	8009f5c <mktime+0x1e8>
 8009f78:	e78b      	b.n	8009e92 <mktime+0x11e>
 8009f7a:	9a02      	ldr	r2, [sp, #8]
 8009f7c:	4294      	cmp	r4, r2
 8009f7e:	9a03      	ldr	r2, [sp, #12]
 8009f80:	eb78 0202 	sbcs.w	r2, r8, r2
 8009f84:	db8f      	blt.n	8009ea6 <mktime+0x132>
 8009f86:	f1bb 0f00 	cmp.w	fp, #0
 8009f8a:	db3e      	blt.n	800a00a <mktime+0x296>
 8009f8c:	f04f 0b01 	mov.w	fp, #1
 8009f90:	ea8a 0a0b 	eor.w	sl, sl, fp
 8009f94:	f1ba 0f01 	cmp.w	sl, #1
 8009f98:	d133      	bne.n	800a002 <mktime+0x28e>
 8009f9a:	f1bb 0f00 	cmp.w	fp, #0
 8009f9e:	d04e      	beq.n	800a03e <mktime+0x2ca>
 8009fa0:	1a1b      	subs	r3, r3, r0
 8009fa2:	683a      	ldr	r2, [r7, #0]
 8009fa4:	f8d7 a00c 	ldr.w	sl, [r7, #12]
 8009fa8:	441a      	add	r2, r3
 8009faa:	191c      	adds	r4, r3, r4
 8009fac:	603a      	str	r2, [r7, #0]
 8009fae:	4638      	mov	r0, r7
 8009fb0:	eb48 78e3 	adc.w	r8, r8, r3, asr #31
 8009fb4:	f7ff fe08 	bl	8009bc8 <validate_structure>
 8009fb8:	68fa      	ldr	r2, [r7, #12]
 8009fba:	ebb2 020a 	subs.w	r2, r2, sl
 8009fbe:	d020      	beq.n	800a002 <mktime+0x28e>
 8009fc0:	2a01      	cmp	r2, #1
 8009fc2:	dc3e      	bgt.n	800a042 <mktime+0x2ce>
 8009fc4:	1c91      	adds	r1, r2, #2
 8009fc6:	bfd8      	it	le
 8009fc8:	2201      	movle	r2, #1
 8009fca:	69fb      	ldr	r3, [r7, #28]
 8009fcc:	4415      	add	r5, r2
 8009fce:	18d2      	adds	r2, r2, r3
 8009fd0:	d540      	bpl.n	800a054 <mktime+0x2e0>
 8009fd2:	1e73      	subs	r3, r6, #1
 8009fd4:	079a      	lsls	r2, r3, #30
 8009fd6:	d137      	bne.n	800a048 <mktime+0x2d4>
 8009fd8:	2264      	movs	r2, #100	; 0x64
 8009fda:	fb93 f1f2 	sdiv	r1, r3, r2
 8009fde:	fb02 3311 	mls	r3, r2, r1, r3
 8009fe2:	bba3      	cbnz	r3, 800a04e <mktime+0x2da>
 8009fe4:	f44f 73c8 	mov.w	r3, #400	; 0x190
 8009fe8:	f206 766b 	addw	r6, r6, #1899	; 0x76b
 8009fec:	fb96 f2f3 	sdiv	r2, r6, r3
 8009ff0:	fb03 6612 	mls	r6, r3, r2, r6
 8009ff4:	2e00      	cmp	r6, #0
 8009ff6:	f240 136d 	movw	r3, #365	; 0x16d
 8009ffa:	bf18      	it	ne
 8009ffc:	f44f 73b6 	movne.w	r3, #364	; 0x16c
 800a000:	61fb      	str	r3, [r7, #28]
 800a002:	f1bb 0f01 	cmp.w	fp, #1
 800a006:	f47f af57 	bne.w	8009eb8 <mktime+0x144>
 800a00a:	f8d9 3050 	ldr.w	r3, [r9, #80]	; 0x50
 800a00e:	191c      	adds	r4, r3, r4
 800a010:	eb48 78e3 	adc.w	r8, r8, r3, asr #31
 800a014:	f04f 0b01 	mov.w	fp, #1
 800a018:	f000 f8f4 	bl	800a204 <__tz_unlock>
 800a01c:	3504      	adds	r5, #4
 800a01e:	2307      	movs	r3, #7
 800a020:	fb95 f3f3 	sdiv	r3, r5, r3
 800a024:	ebc3 03c3 	rsb	r3, r3, r3, lsl #3
 800a028:	1aed      	subs	r5, r5, r3
 800a02a:	bf48      	it	mi
 800a02c:	3507      	addmi	r5, #7
 800a02e:	f8c7 b020 	str.w	fp, [r7, #32]
 800a032:	61bd      	str	r5, [r7, #24]
 800a034:	4620      	mov	r0, r4
 800a036:	4641      	mov	r1, r8
 800a038:	b005      	add	sp, #20
 800a03a:	e8bd 8ff0 	ldmia.w	sp!, {r4, r5, r6, r7, r8, r9, sl, fp, pc}
 800a03e:	1ac3      	subs	r3, r0, r3
 800a040:	e7af      	b.n	8009fa2 <mktime+0x22e>
 800a042:	f04f 32ff 	mov.w	r2, #4294967295
 800a046:	e7c0      	b.n	8009fca <mktime+0x256>
 800a048:	f44f 73b6 	mov.w	r3, #364	; 0x16c
 800a04c:	e7d8      	b.n	800a000 <mktime+0x28c>
 800a04e:	f240 136d 	movw	r3, #365	; 0x16d
 800a052:	e7d5      	b.n	800a000 <mktime+0x28c>
 800a054:	07b3      	lsls	r3, r6, #30
 800a056:	d118      	bne.n	800a08a <mktime+0x316>
 800a058:	2164      	movs	r1, #100	; 0x64
 800a05a:	fb96 f3f1 	sdiv	r3, r6, r1
 800a05e:	fb01 6313 	mls	r3, r1, r3, r6
 800a062:	b9db      	cbnz	r3, 800a09c <mktime+0x328>
 800a064:	f44f 73c8 	mov.w	r3, #400	; 0x190
 800a068:	f206 766c 	addw	r6, r6, #1900	; 0x76c
 800a06c:	fb96 f1f3 	sdiv	r1, r6, r3
 800a070:	fb03 6611 	mls	r6, r3, r1, r6
 800a074:	2e00      	cmp	r6, #0
 800a076:	f240 136d 	movw	r3, #365	; 0x16d
 800a07a:	bf08      	it	eq
 800a07c:	f44f 73b7 	moveq.w	r3, #366	; 0x16e
 800a080:	429a      	cmp	r2, r3
 800a082:	bfa8      	it	ge
 800a084:	1ad2      	subge	r2, r2, r3
 800a086:	61fa      	str	r2, [r7, #28]
 800a088:	e7bb      	b.n	800a002 <mktime+0x28e>
 800a08a:	f240 136d 	movw	r3, #365	; 0x16d
 800a08e:	e7f7      	b.n	800a080 <mktime+0x30c>
 800a090:	0800dce0 	.word	0x0800dce0
 800a094:	00015180 	.word	0x00015180
 800a098:	2000acdc 	.word	0x2000acdc
 800a09c:	f44f 73b7 	mov.w	r3, #366	; 0x16e
 800a0a0:	e7ee      	b.n	800a080 <mktime+0x30c>
 800a0a2:	f04f 34ff 	mov.w	r4, #4294967295
 800a0a6:	46a0      	mov	r8, r4
 800a0a8:	e7c4      	b.n	800a034 <mktime+0x2c0>
 800a0aa:	bf00      	nop

0800a0ac <__tzcalc_limits>:
 800a0ac:	e92d 4ff7 	stmdb	sp!, {r0, r1, r2, r4, r5, r6, r7, r8, r9, sl, fp, lr}
 800a0b0:	4605      	mov	r5, r0
 800a0b2:	f001 f9b1 	bl	800b418 <__gettzinfo>
 800a0b6:	f240 73b1 	movw	r3, #1969	; 0x7b1
 800a0ba:	429d      	cmp	r5, r3
 800a0bc:	f340 8095 	ble.w	800a1ea <__tzcalc_limits+0x13e>
 800a0c0:	f46f 62f6 	mvn.w	r2, #1968	; 0x7b0
 800a0c4:	18ac      	adds	r4, r5, r2
 800a0c6:	f2a5 73b2 	subw	r3, r5, #1970	; 0x7b2
 800a0ca:	f240 126d 	movw	r2, #365	; 0x16d
 800a0ce:	10a4      	asrs	r4, r4, #2
 800a0d0:	fb02 4403 	mla	r4, r2, r3, r4
 800a0d4:	f06f 0263 	mvn.w	r2, #99	; 0x63
 800a0d8:	f2a5 736d 	subw	r3, r5, #1901	; 0x76d
 800a0dc:	fb93 f3f2 	sdiv	r3, r3, r2
 800a0e0:	441c      	add	r4, r3
 800a0e2:	f44f 73c8 	mov.w	r3, #400	; 0x190
 800a0e6:	f46f 61c8 	mvn.w	r1, #1600	; 0x640
 800a0ea:	fb95 fcf3 	sdiv	ip, r5, r3
 800a0ee:	fb03 5c1c 	mls	ip, r3, ip, r5
 800a0f2:	186a      	adds	r2, r5, r1
 800a0f4:	fabc f68c 	clz	r6, ip
 800a0f8:	fbb2 f2f3 	udiv	r2, r2, r3
 800a0fc:	f005 0303 	and.w	r3, r5, #3
 800a100:	4414      	add	r4, r2
 800a102:	2264      	movs	r2, #100	; 0x64
 800a104:	6045      	str	r5, [r0, #4]
 800a106:	fb95 f7f2 	sdiv	r7, r5, r2
 800a10a:	0976      	lsrs	r6, r6, #5
 800a10c:	fb02 5717 	mls	r7, r2, r7, r5
 800a110:	4601      	mov	r1, r0
 800a112:	f100 0b50 	add.w	fp, r0, #80	; 0x50
 800a116:	9300      	str	r3, [sp, #0]
 800a118:	f04f 0a07 	mov.w	sl, #7
 800a11c:	7a0d      	ldrb	r5, [r1, #8]
 800a11e:	694b      	ldr	r3, [r1, #20]
 800a120:	2d4a      	cmp	r5, #74	; 0x4a
 800a122:	d12b      	bne.n	800a17c <__tzcalc_limits+0xd0>
 800a124:	9a00      	ldr	r2, [sp, #0]
 800a126:	18e5      	adds	r5, r4, r3
 800a128:	b902      	cbnz	r2, 800a12c <__tzcalc_limits+0x80>
 800a12a:	b917      	cbnz	r7, 800a132 <__tzcalc_limits+0x86>
 800a12c:	f1bc 0f00 	cmp.w	ip, #0
 800a130:	d122      	bne.n	800a178 <__tzcalc_limits+0xcc>
 800a132:	2b3b      	cmp	r3, #59	; 0x3b
 800a134:	bfd4      	ite	le
 800a136:	2300      	movle	r3, #0
 800a138:	2301      	movgt	r3, #1
 800a13a:	442b      	add	r3, r5
 800a13c:	3b01      	subs	r3, #1
 800a13e:	698d      	ldr	r5, [r1, #24]
 800a140:	4a2b      	ldr	r2, [pc, #172]	; (800a1f0 <__tzcalc_limits+0x144>)
 800a142:	ea4f 7ee5 	mov.w	lr, r5, asr #31
 800a146:	fbc3 5e02 	smlal	r5, lr, r3, r2
 800a14a:	6a8b      	ldr	r3, [r1, #40]	; 0x28
 800a14c:	18ed      	adds	r5, r5, r3
 800a14e:	eb4e 73e3 	adc.w	r3, lr, r3, asr #31
 800a152:	e9c1 5308 	strd	r5, r3, [r1, #32]
 800a156:	3128      	adds	r1, #40	; 0x28
 800a158:	458b      	cmp	fp, r1
 800a15a:	d1df      	bne.n	800a11c <__tzcalc_limits+0x70>
 800a15c:	e9d0 4308 	ldrd	r4, r3, [r0, #32]
 800a160:	e9d0 1212 	ldrd	r1, r2, [r0, #72]	; 0x48
 800a164:	428c      	cmp	r4, r1
 800a166:	4193      	sbcs	r3, r2
 800a168:	bfb4      	ite	lt
 800a16a:	2301      	movlt	r3, #1
 800a16c:	2300      	movge	r3, #0
 800a16e:	6003      	str	r3, [r0, #0]
 800a170:	2001      	movs	r0, #1
 800a172:	b003      	add	sp, #12
 800a174:	e8bd 8ff0 	ldmia.w	sp!, {r4, r5, r6, r7, r8, r9, sl, fp, pc}
 800a178:	2300      	movs	r3, #0
 800a17a:	e7de      	b.n	800a13a <__tzcalc_limits+0x8e>
 800a17c:	2d44      	cmp	r5, #68	; 0x44
 800a17e:	d101      	bne.n	800a184 <__tzcalc_limits+0xd8>
 800a180:	4423      	add	r3, r4
 800a182:	e7dc      	b.n	800a13e <__tzcalc_limits+0x92>
 800a184:	9a00      	ldr	r2, [sp, #0]
 800a186:	bb52      	cbnz	r2, 800a1de <__tzcalc_limits+0x132>
 800a188:	2f00      	cmp	r7, #0
 800a18a:	bf0c      	ite	eq
 800a18c:	4635      	moveq	r5, r6
 800a18e:	2501      	movne	r5, #1
 800a190:	68ca      	ldr	r2, [r1, #12]
 800a192:	9201      	str	r2, [sp, #4]
 800a194:	4a17      	ldr	r2, [pc, #92]	; (800a1f4 <__tzcalc_limits+0x148>)
 800a196:	f04f 0930 	mov.w	r9, #48	; 0x30
 800a19a:	fb09 2505 	mla	r5, r9, r5, r2
 800a19e:	46a6      	mov	lr, r4
 800a1a0:	f04f 0800 	mov.w	r8, #0
 800a1a4:	3d04      	subs	r5, #4
 800a1a6:	9a01      	ldr	r2, [sp, #4]
 800a1a8:	f108 0801 	add.w	r8, r8, #1
 800a1ac:	4542      	cmp	r2, r8
 800a1ae:	f855 9028 	ldr.w	r9, [r5, r8, lsl #2]
 800a1b2:	dc16      	bgt.n	800a1e2 <__tzcalc_limits+0x136>
 800a1b4:	f10e 0504 	add.w	r5, lr, #4
 800a1b8:	fb95 f8fa 	sdiv	r8, r5, sl
 800a1bc:	ebc8 08c8 	rsb	r8, r8, r8, lsl #3
 800a1c0:	eba5 0508 	sub.w	r5, r5, r8
 800a1c4:	1b5d      	subs	r5, r3, r5
 800a1c6:	690b      	ldr	r3, [r1, #16]
 800a1c8:	f103 33ff 	add.w	r3, r3, #4294967295
 800a1cc:	bf48      	it	mi
 800a1ce:	3507      	addmi	r5, #7
 800a1d0:	ebc3 03c3 	rsb	r3, r3, r3, lsl #3
 800a1d4:	442b      	add	r3, r5
 800a1d6:	454b      	cmp	r3, r9
 800a1d8:	da05      	bge.n	800a1e6 <__tzcalc_limits+0x13a>
 800a1da:	4473      	add	r3, lr
 800a1dc:	e7af      	b.n	800a13e <__tzcalc_limits+0x92>
 800a1de:	4635      	mov	r5, r6
 800a1e0:	e7d6      	b.n	800a190 <__tzcalc_limits+0xe4>
 800a1e2:	44ce      	add	lr, r9
 800a1e4:	e7df      	b.n	800a1a6 <__tzcalc_limits+0xfa>
 800a1e6:	3b07      	subs	r3, #7
 800a1e8:	e7f5      	b.n	800a1d6 <__tzcalc_limits+0x12a>
 800a1ea:	2000      	movs	r0, #0
 800a1ec:	e7c1      	b.n	800a172 <__tzcalc_limits+0xc6>
 800a1ee:	bf00      	nop
 800a1f0:	00015180 	.word	0x00015180
 800a1f4:	0800ddd0 	.word	0x0800ddd0

0800a1f8 <__tz_lock>:
 800a1f8:	4801      	ldr	r0, [pc, #4]	; (800a200 <__tz_lock+0x8>)
 800a1fa:	f000 baa0 	b.w	800a73e <__retarget_lock_acquire>
 800a1fe:	bf00      	nop
 800a200:	2000aceb 	.word	0x2000aceb

0800a204 <__tz_unlock>:
 800a204:	4801      	ldr	r0, [pc, #4]	; (800a20c <__tz_unlock+0x8>)
 800a206:	f000 ba9c 	b.w	800a742 <__retarget_lock_release>
 800a20a:	bf00      	nop
 800a20c:	2000aceb 	.word	0x2000aceb

0800a210 <_tzset_unlocked>:
 800a210:	4b01      	ldr	r3, [pc, #4]	; (800a218 <_tzset_unlocked+0x8>)
 800a212:	6818      	ldr	r0, [r3, #0]
 800a214:	f000 b802 	b.w	800a21c <_tzset_unlocked_r>
 800a218:	2000008c 	.word	0x2000008c

0800a21c <_tzset_unlocked_r>:
 800a21c:	e92d 4ff0 	stmdb	sp!, {r4, r5, r6, r7, r8, r9, sl, fp, lr}
 800a220:	b08d      	sub	sp, #52	; 0x34
 800a222:	4607      	mov	r7, r0
 800a224:	f001 f8f8 	bl	800b418 <__gettzinfo>
 800a228:	49bb      	ldr	r1, [pc, #748]	; (800a518 <_tzset_unlocked_r+0x2fc>)
 800a22a:	4dbc      	ldr	r5, [pc, #752]	; (800a51c <_tzset_unlocked_r+0x300>)
 800a22c:	4604      	mov	r4, r0
 800a22e:	4638      	mov	r0, r7
 800a230:	f000 fb5a 	bl	800a8e8 <_getenv_r>
 800a234:	4606      	mov	r6, r0
 800a236:	bb10      	cbnz	r0, 800a27e <_tzset_unlocked_r+0x62>
 800a238:	4bb9      	ldr	r3, [pc, #740]	; (800a520 <_tzset_unlocked_r+0x304>)
 800a23a:	4aba      	ldr	r2, [pc, #744]	; (800a524 <_tzset_unlocked_r+0x308>)
 800a23c:	6018      	str	r0, [r3, #0]
 800a23e:	4bba      	ldr	r3, [pc, #744]	; (800a528 <_tzset_unlocked_r+0x30c>)
 800a240:	62a0      	str	r0, [r4, #40]	; 0x28
 800a242:	6018      	str	r0, [r3, #0]
 800a244:	4bb9      	ldr	r3, [pc, #740]	; (800a52c <_tzset_unlocked_r+0x310>)
 800a246:	6520      	str	r0, [r4, #80]	; 0x50
 800a248:	e9c3 2200 	strd	r2, r2, [r3]
 800a24c:	214a      	movs	r1, #74	; 0x4a
 800a24e:	2200      	movs	r2, #0
 800a250:	2300      	movs	r3, #0
 800a252:	e9c4 0003 	strd	r0, r0, [r4, #12]
 800a256:	e9c4 0005 	strd	r0, r0, [r4, #20]
 800a25a:	e9c4 000d 	strd	r0, r0, [r4, #52]	; 0x34
 800a25e:	e9c4 000f 	strd	r0, r0, [r4, #60]	; 0x3c
 800a262:	e9c4 2308 	strd	r2, r3, [r4, #32]
 800a266:	e9c4 2312 	strd	r2, r3, [r4, #72]	; 0x48
 800a26a:	6828      	ldr	r0, [r5, #0]
 800a26c:	7221      	strb	r1, [r4, #8]
 800a26e:	f884 1030 	strb.w	r1, [r4, #48]	; 0x30
 800a272:	f000 fb49 	bl	800a908 <free>
 800a276:	602e      	str	r6, [r5, #0]
 800a278:	b00d      	add	sp, #52	; 0x34
 800a27a:	e8bd 8ff0 	ldmia.w	sp!, {r4, r5, r6, r7, r8, r9, sl, fp, pc}
 800a27e:	6829      	ldr	r1, [r5, #0]
 800a280:	2900      	cmp	r1, #0
 800a282:	f040 808e 	bne.w	800a3a2 <_tzset_unlocked_r+0x186>
 800a286:	6828      	ldr	r0, [r5, #0]
 800a288:	f000 fb3e 	bl	800a908 <free>
 800a28c:	4630      	mov	r0, r6
 800a28e:	f7f5 ffc9 	bl	8000224 <strlen>
 800a292:	1c41      	adds	r1, r0, #1
 800a294:	4638      	mov	r0, r7
 800a296:	f000 fb5f 	bl	800a958 <_malloc_r>
 800a29a:	6028      	str	r0, [r5, #0]
 800a29c:	2800      	cmp	r0, #0
 800a29e:	f040 8086 	bne.w	800a3ae <_tzset_unlocked_r+0x192>
 800a2a2:	4aa1      	ldr	r2, [pc, #644]	; (800a528 <_tzset_unlocked_r+0x30c>)
 800a2a4:	f8df 8284 	ldr.w	r8, [pc, #644]	; 800a52c <_tzset_unlocked_r+0x310>
 800a2a8:	f8df a274 	ldr.w	sl, [pc, #628]	; 800a520 <_tzset_unlocked_r+0x304>
 800a2ac:	2300      	movs	r3, #0
 800a2ae:	6013      	str	r3, [r2, #0]
 800a2b0:	4a9f      	ldr	r2, [pc, #636]	; (800a530 <_tzset_unlocked_r+0x314>)
 800a2b2:	f8ca 3000 	str.w	r3, [sl]
 800a2b6:	2000      	movs	r0, #0
 800a2b8:	2100      	movs	r1, #0
 800a2ba:	e9c8 2200 	strd	r2, r2, [r8]
 800a2be:	e9c4 3303 	strd	r3, r3, [r4, #12]
 800a2c2:	e9c4 3305 	strd	r3, r3, [r4, #20]
 800a2c6:	e9c4 0108 	strd	r0, r1, [r4, #32]
 800a2ca:	e9c4 330d 	strd	r3, r3, [r4, #52]	; 0x34
 800a2ce:	e9c4 330f 	strd	r3, r3, [r4, #60]	; 0x3c
 800a2d2:	e9c4 0112 	strd	r0, r1, [r4, #72]	; 0x48
 800a2d6:	224a      	movs	r2, #74	; 0x4a
 800a2d8:	7222      	strb	r2, [r4, #8]
 800a2da:	62a3      	str	r3, [r4, #40]	; 0x28
 800a2dc:	f884 2030 	strb.w	r2, [r4, #48]	; 0x30
 800a2e0:	6523      	str	r3, [r4, #80]	; 0x50
 800a2e2:	7833      	ldrb	r3, [r6, #0]
 800a2e4:	2b3a      	cmp	r3, #58	; 0x3a
 800a2e6:	bf08      	it	eq
 800a2e8:	3601      	addeq	r6, #1
 800a2ea:	7833      	ldrb	r3, [r6, #0]
 800a2ec:	2b3c      	cmp	r3, #60	; 0x3c
 800a2ee:	d162      	bne.n	800a3b6 <_tzset_unlocked_r+0x19a>
 800a2f0:	1c75      	adds	r5, r6, #1
 800a2f2:	4a90      	ldr	r2, [pc, #576]	; (800a534 <_tzset_unlocked_r+0x318>)
 800a2f4:	4990      	ldr	r1, [pc, #576]	; (800a538 <_tzset_unlocked_r+0x31c>)
 800a2f6:	ab0a      	add	r3, sp, #40	; 0x28
 800a2f8:	4628      	mov	r0, r5
 800a2fa:	f000 ffcb 	bl	800b294 <siscanf>
 800a2fe:	2800      	cmp	r0, #0
 800a300:	ddba      	ble.n	800a278 <_tzset_unlocked_r+0x5c>
 800a302:	9b0a      	ldr	r3, [sp, #40]	; 0x28
 800a304:	1eda      	subs	r2, r3, #3
 800a306:	2a07      	cmp	r2, #7
 800a308:	d8b6      	bhi.n	800a278 <_tzset_unlocked_r+0x5c>
 800a30a:	5ceb      	ldrb	r3, [r5, r3]
 800a30c:	2b3e      	cmp	r3, #62	; 0x3e
 800a30e:	d1b3      	bne.n	800a278 <_tzset_unlocked_r+0x5c>
 800a310:	3602      	adds	r6, #2
 800a312:	9b0a      	ldr	r3, [sp, #40]	; 0x28
 800a314:	18f5      	adds	r5, r6, r3
 800a316:	5cf3      	ldrb	r3, [r6, r3]
 800a318:	2b2d      	cmp	r3, #45	; 0x2d
 800a31a:	d15a      	bne.n	800a3d2 <_tzset_unlocked_r+0x1b6>
 800a31c:	3501      	adds	r5, #1
 800a31e:	f04f 39ff 	mov.w	r9, #4294967295
 800a322:	2300      	movs	r3, #0
 800a324:	f8ad 301e 	strh.w	r3, [sp, #30]
 800a328:	f8ad 3020 	strh.w	r3, [sp, #32]
 800a32c:	af08      	add	r7, sp, #32
 800a32e:	ab0a      	add	r3, sp, #40	; 0x28
 800a330:	e9cd 3701 	strd	r3, r7, [sp, #4]
 800a334:	9303      	str	r3, [sp, #12]
 800a336:	f10d 031e 	add.w	r3, sp, #30
 800a33a:	9300      	str	r3, [sp, #0]
 800a33c:	497f      	ldr	r1, [pc, #508]	; (800a53c <_tzset_unlocked_r+0x320>)
 800a33e:	ab0a      	add	r3, sp, #40	; 0x28
 800a340:	aa07      	add	r2, sp, #28
 800a342:	4628      	mov	r0, r5
 800a344:	f000 ffa6 	bl	800b294 <siscanf>
 800a348:	2800      	cmp	r0, #0
 800a34a:	dd95      	ble.n	800a278 <_tzset_unlocked_r+0x5c>
 800a34c:	f8bd 301e 	ldrh.w	r3, [sp, #30]
 800a350:	f8bd 6020 	ldrh.w	r6, [sp, #32]
 800a354:	223c      	movs	r2, #60	; 0x3c
 800a356:	fb02 6603 	mla	r6, r2, r3, r6
 800a35a:	f8bd 301c 	ldrh.w	r3, [sp, #28]
 800a35e:	f44f 6261 	mov.w	r2, #3600	; 0xe10
 800a362:	fb02 6603 	mla	r6, r2, r3, r6
 800a366:	9b0a      	ldr	r3, [sp, #40]	; 0x28
 800a368:	fb09 f606 	mul.w	r6, r9, r6
 800a36c:	eb05 0903 	add.w	r9, r5, r3
 800a370:	5ceb      	ldrb	r3, [r5, r3]
 800a372:	2b3c      	cmp	r3, #60	; 0x3c
 800a374:	f040 80ec 	bne.w	800a550 <_tzset_unlocked_r+0x334>
 800a378:	f109 0501 	add.w	r5, r9, #1
 800a37c:	4a70      	ldr	r2, [pc, #448]	; (800a540 <_tzset_unlocked_r+0x324>)
 800a37e:	496e      	ldr	r1, [pc, #440]	; (800a538 <_tzset_unlocked_r+0x31c>)
 800a380:	ab0a      	add	r3, sp, #40	; 0x28
 800a382:	4628      	mov	r0, r5
 800a384:	f000 ff86 	bl	800b294 <siscanf>
 800a388:	2800      	cmp	r0, #0
 800a38a:	dc28      	bgt.n	800a3de <_tzset_unlocked_r+0x1c2>
 800a38c:	f899 3001 	ldrb.w	r3, [r9, #1]
 800a390:	2b3e      	cmp	r3, #62	; 0x3e
 800a392:	d124      	bne.n	800a3de <_tzset_unlocked_r+0x1c2>
 800a394:	4b67      	ldr	r3, [pc, #412]	; (800a534 <_tzset_unlocked_r+0x318>)
 800a396:	62a6      	str	r6, [r4, #40]	; 0x28
 800a398:	e9c8 3300 	strd	r3, r3, [r8]
 800a39c:	f8ca 6000 	str.w	r6, [sl]
 800a3a0:	e76a      	b.n	800a278 <_tzset_unlocked_r+0x5c>
 800a3a2:	f7f5 ff35 	bl	8000210 <strcmp>
 800a3a6:	2800      	cmp	r0, #0
 800a3a8:	f47f af6d 	bne.w	800a286 <_tzset_unlocked_r+0x6a>
 800a3ac:	e764      	b.n	800a278 <_tzset_unlocked_r+0x5c>
 800a3ae:	4631      	mov	r1, r6
 800a3b0:	f000 f9c9 	bl	800a746 <strcpy>
 800a3b4:	e775      	b.n	800a2a2 <_tzset_unlocked_r+0x86>
 800a3b6:	4a5f      	ldr	r2, [pc, #380]	; (800a534 <_tzset_unlocked_r+0x318>)
 800a3b8:	4962      	ldr	r1, [pc, #392]	; (800a544 <_tzset_unlocked_r+0x328>)
 800a3ba:	ab0a      	add	r3, sp, #40	; 0x28
 800a3bc:	4630      	mov	r0, r6
 800a3be:	f000 ff69 	bl	800b294 <siscanf>
 800a3c2:	2800      	cmp	r0, #0
 800a3c4:	f77f af58 	ble.w	800a278 <_tzset_unlocked_r+0x5c>
 800a3c8:	9b0a      	ldr	r3, [sp, #40]	; 0x28
 800a3ca:	3b03      	subs	r3, #3
 800a3cc:	2b07      	cmp	r3, #7
 800a3ce:	d9a0      	bls.n	800a312 <_tzset_unlocked_r+0xf6>
 800a3d0:	e752      	b.n	800a278 <_tzset_unlocked_r+0x5c>
 800a3d2:	2b2b      	cmp	r3, #43	; 0x2b
 800a3d4:	bf08      	it	eq
 800a3d6:	3501      	addeq	r5, #1
 800a3d8:	f04f 0901 	mov.w	r9, #1
 800a3dc:	e7a1      	b.n	800a322 <_tzset_unlocked_r+0x106>
 800a3de:	9b0a      	ldr	r3, [sp, #40]	; 0x28
 800a3e0:	1eda      	subs	r2, r3, #3
 800a3e2:	2a07      	cmp	r2, #7
 800a3e4:	f63f af48 	bhi.w	800a278 <_tzset_unlocked_r+0x5c>
 800a3e8:	5ceb      	ldrb	r3, [r5, r3]
 800a3ea:	2b3e      	cmp	r3, #62	; 0x3e
 800a3ec:	f47f af44 	bne.w	800a278 <_tzset_unlocked_r+0x5c>
 800a3f0:	f109 0902 	add.w	r9, r9, #2
 800a3f4:	9b0a      	ldr	r3, [sp, #40]	; 0x28
 800a3f6:	eb09 0503 	add.w	r5, r9, r3
 800a3fa:	f819 3003 	ldrb.w	r3, [r9, r3]
 800a3fe:	2b2d      	cmp	r3, #45	; 0x2d
 800a400:	f040 80b5 	bne.w	800a56e <_tzset_unlocked_r+0x352>
 800a404:	3501      	adds	r5, #1
 800a406:	f04f 39ff 	mov.w	r9, #4294967295
 800a40a:	2300      	movs	r3, #0
 800a40c:	f8ad 301c 	strh.w	r3, [sp, #28]
 800a410:	f8ad 301e 	strh.w	r3, [sp, #30]
 800a414:	f8ad 3020 	strh.w	r3, [sp, #32]
 800a418:	930a      	str	r3, [sp, #40]	; 0x28
 800a41a:	ab0a      	add	r3, sp, #40	; 0x28
 800a41c:	e9cd 7302 	strd	r7, r3, [sp, #8]
 800a420:	9301      	str	r3, [sp, #4]
 800a422:	f10d 031e 	add.w	r3, sp, #30
 800a426:	9300      	str	r3, [sp, #0]
 800a428:	4944      	ldr	r1, [pc, #272]	; (800a53c <_tzset_unlocked_r+0x320>)
 800a42a:	ab0a      	add	r3, sp, #40	; 0x28
 800a42c:	aa07      	add	r2, sp, #28
 800a42e:	4628      	mov	r0, r5
 800a430:	f000 ff30 	bl	800b294 <siscanf>
 800a434:	2800      	cmp	r0, #0
 800a436:	f300 80a0 	bgt.w	800a57a <_tzset_unlocked_r+0x35e>
 800a43a:	f5a6 6361 	sub.w	r3, r6, #3600	; 0xe10
 800a43e:	9304      	str	r3, [sp, #16]
 800a440:	9b0a      	ldr	r3, [sp, #40]	; 0x28
 800a442:	4627      	mov	r7, r4
 800a444:	441d      	add	r5, r3
 800a446:	f04f 0b00 	mov.w	fp, #0
 800a44a:	782b      	ldrb	r3, [r5, #0]
 800a44c:	2b2c      	cmp	r3, #44	; 0x2c
 800a44e:	bf08      	it	eq
 800a450:	3501      	addeq	r5, #1
 800a452:	f895 9000 	ldrb.w	r9, [r5]
 800a456:	f1b9 0f4d 	cmp.w	r9, #77	; 0x4d
 800a45a:	f040 80a1 	bne.w	800a5a0 <_tzset_unlocked_r+0x384>
 800a45e:	ab0a      	add	r3, sp, #40	; 0x28
 800a460:	f10d 0226 	add.w	r2, sp, #38	; 0x26
 800a464:	e9cd 3201 	strd	r3, r2, [sp, #4]
 800a468:	aa09      	add	r2, sp, #36	; 0x24
 800a46a:	9200      	str	r2, [sp, #0]
 800a46c:	4936      	ldr	r1, [pc, #216]	; (800a548 <_tzset_unlocked_r+0x32c>)
 800a46e:	9303      	str	r3, [sp, #12]
 800a470:	f10d 0222 	add.w	r2, sp, #34	; 0x22
 800a474:	4628      	mov	r0, r5
 800a476:	f000 ff0d 	bl	800b294 <siscanf>
 800a47a:	2803      	cmp	r0, #3
 800a47c:	f47f aefc 	bne.w	800a278 <_tzset_unlocked_r+0x5c>
 800a480:	f8bd 1022 	ldrh.w	r1, [sp, #34]	; 0x22
 800a484:	1e4b      	subs	r3, r1, #1
 800a486:	2b0b      	cmp	r3, #11
 800a488:	f63f aef6 	bhi.w	800a278 <_tzset_unlocked_r+0x5c>
 800a48c:	f8bd 2024 	ldrh.w	r2, [sp, #36]	; 0x24
 800a490:	1e53      	subs	r3, r2, #1
 800a492:	2b04      	cmp	r3, #4
 800a494:	f63f aef0 	bhi.w	800a278 <_tzset_unlocked_r+0x5c>
 800a498:	f8bd 3026 	ldrh.w	r3, [sp, #38]	; 0x26
 800a49c:	2b06      	cmp	r3, #6
 800a49e:	f63f aeeb 	bhi.w	800a278 <_tzset_unlocked_r+0x5c>
 800a4a2:	e9c7 1203 	strd	r1, r2, [r7, #12]
 800a4a6:	f887 9008 	strb.w	r9, [r7, #8]
 800a4aa:	617b      	str	r3, [r7, #20]
 800a4ac:	9b0a      	ldr	r3, [sp, #40]	; 0x28
 800a4ae:	eb05 0903 	add.w	r9, r5, r3
 800a4b2:	2500      	movs	r5, #0
 800a4b4:	2302      	movs	r3, #2
 800a4b6:	f8ad 301c 	strh.w	r3, [sp, #28]
 800a4ba:	f8ad 501e 	strh.w	r5, [sp, #30]
 800a4be:	f8ad 5020 	strh.w	r5, [sp, #32]
 800a4c2:	950a      	str	r5, [sp, #40]	; 0x28
 800a4c4:	f899 3000 	ldrb.w	r3, [r9]
 800a4c8:	2b2f      	cmp	r3, #47	; 0x2f
 800a4ca:	f040 8095 	bne.w	800a5f8 <_tzset_unlocked_r+0x3dc>
 800a4ce:	ab0a      	add	r3, sp, #40	; 0x28
 800a4d0:	aa08      	add	r2, sp, #32
 800a4d2:	e9cd 3201 	strd	r3, r2, [sp, #4]
 800a4d6:	f10d 021e 	add.w	r2, sp, #30
 800a4da:	9200      	str	r2, [sp, #0]
 800a4dc:	491b      	ldr	r1, [pc, #108]	; (800a54c <_tzset_unlocked_r+0x330>)
 800a4de:	9303      	str	r3, [sp, #12]
 800a4e0:	aa07      	add	r2, sp, #28
 800a4e2:	4648      	mov	r0, r9
 800a4e4:	f000 fed6 	bl	800b294 <siscanf>
 800a4e8:	42a8      	cmp	r0, r5
 800a4ea:	f300 8085 	bgt.w	800a5f8 <_tzset_unlocked_r+0x3dc>
 800a4ee:	214a      	movs	r1, #74	; 0x4a
 800a4f0:	2200      	movs	r2, #0
 800a4f2:	2300      	movs	r3, #0
 800a4f4:	e9c4 5503 	strd	r5, r5, [r4, #12]
 800a4f8:	e9c4 5505 	strd	r5, r5, [r4, #20]
 800a4fc:	e9c4 2308 	strd	r2, r3, [r4, #32]
 800a500:	e9c4 550d 	strd	r5, r5, [r4, #52]	; 0x34
 800a504:	e9c4 550f 	strd	r5, r5, [r4, #60]	; 0x3c
 800a508:	e9c4 2312 	strd	r2, r3, [r4, #72]	; 0x48
 800a50c:	7221      	strb	r1, [r4, #8]
 800a50e:	62a5      	str	r5, [r4, #40]	; 0x28
 800a510:	f884 1030 	strb.w	r1, [r4, #48]	; 0x30
 800a514:	6525      	str	r5, [r4, #80]	; 0x50
 800a516:	e6af      	b.n	800a278 <_tzset_unlocked_r+0x5c>
 800a518:	0800dd10 	.word	0x0800dd10
 800a51c:	2000acd8 	.word	0x2000acd8
 800a520:	2000ace0 	.word	0x2000ace0
 800a524:	0800dd13 	.word	0x0800dd13
 800a528:	2000acdc 	.word	0x2000acdc
 800a52c:	20000038 	.word	0x20000038
 800a530:	0800c942 	.word	0x0800c942
 800a534:	2000accc 	.word	0x2000accc
 800a538:	0800dd17 	.word	0x0800dd17
 800a53c:	0800dd4c 	.word	0x0800dd4c
 800a540:	2000acc0 	.word	0x2000acc0
 800a544:	0800dd2a 	.word	0x0800dd2a
 800a548:	0800dd38 	.word	0x0800dd38
 800a54c:	0800dd4b 	.word	0x0800dd4b
 800a550:	4a3e      	ldr	r2, [pc, #248]	; (800a64c <_tzset_unlocked_r+0x430>)
 800a552:	493f      	ldr	r1, [pc, #252]	; (800a650 <_tzset_unlocked_r+0x434>)
 800a554:	ab0a      	add	r3, sp, #40	; 0x28
 800a556:	4648      	mov	r0, r9
 800a558:	f000 fe9c 	bl	800b294 <siscanf>
 800a55c:	2800      	cmp	r0, #0
 800a55e:	f77f af19 	ble.w	800a394 <_tzset_unlocked_r+0x178>
 800a562:	9b0a      	ldr	r3, [sp, #40]	; 0x28
 800a564:	3b03      	subs	r3, #3
 800a566:	2b07      	cmp	r3, #7
 800a568:	f67f af44 	bls.w	800a3f4 <_tzset_unlocked_r+0x1d8>
 800a56c:	e684      	b.n	800a278 <_tzset_unlocked_r+0x5c>
 800a56e:	2b2b      	cmp	r3, #43	; 0x2b
 800a570:	bf08      	it	eq
 800a572:	3501      	addeq	r5, #1
 800a574:	f04f 0901 	mov.w	r9, #1
 800a578:	e747      	b.n	800a40a <_tzset_unlocked_r+0x1ee>
 800a57a:	f8bd 201e 	ldrh.w	r2, [sp, #30]
 800a57e:	f8bd 3020 	ldrh.w	r3, [sp, #32]
 800a582:	213c      	movs	r1, #60	; 0x3c
 800a584:	fb01 3302 	mla	r3, r1, r2, r3
 800a588:	f8bd 201c 	ldrh.w	r2, [sp, #28]
 800a58c:	f44f 6161 	mov.w	r1, #3600	; 0xe10
 800a590:	fb01 3302 	mla	r3, r1, r2, r3
 800a594:	fb09 f303 	mul.w	r3, r9, r3
 800a598:	e751      	b.n	800a43e <_tzset_unlocked_r+0x222>
 800a59a:	f04f 0b01 	mov.w	fp, #1
 800a59e:	e754      	b.n	800a44a <_tzset_unlocked_r+0x22e>
 800a5a0:	f1b9 0f4a 	cmp.w	r9, #74	; 0x4a
 800a5a4:	bf06      	itte	eq
 800a5a6:	3501      	addeq	r5, #1
 800a5a8:	464b      	moveq	r3, r9
 800a5aa:	2344      	movne	r3, #68	; 0x44
 800a5ac:	220a      	movs	r2, #10
 800a5ae:	a90b      	add	r1, sp, #44	; 0x2c
 800a5b0:	4628      	mov	r0, r5
 800a5b2:	9305      	str	r3, [sp, #20]
 800a5b4:	f000 fad0 	bl	800ab58 <strtoul>
 800a5b8:	f8dd 902c 	ldr.w	r9, [sp, #44]	; 0x2c
 800a5bc:	9b05      	ldr	r3, [sp, #20]
 800a5be:	f8ad 0026 	strh.w	r0, [sp, #38]	; 0x26
 800a5c2:	45a9      	cmp	r9, r5
 800a5c4:	d114      	bne.n	800a5f0 <_tzset_unlocked_r+0x3d4>
 800a5c6:	234d      	movs	r3, #77	; 0x4d
 800a5c8:	f1bb 0f00 	cmp.w	fp, #0
 800a5cc:	d107      	bne.n	800a5de <_tzset_unlocked_r+0x3c2>
 800a5ce:	7223      	strb	r3, [r4, #8]
 800a5d0:	2103      	movs	r1, #3
 800a5d2:	2302      	movs	r3, #2
 800a5d4:	e9c4 1303 	strd	r1, r3, [r4, #12]
 800a5d8:	f8c4 b014 	str.w	fp, [r4, #20]
 800a5dc:	e769      	b.n	800a4b2 <_tzset_unlocked_r+0x296>
 800a5de:	f884 3030 	strb.w	r3, [r4, #48]	; 0x30
 800a5e2:	220b      	movs	r2, #11
 800a5e4:	2301      	movs	r3, #1
 800a5e6:	e9c4 230d 	strd	r2, r3, [r4, #52]	; 0x34
 800a5ea:	2300      	movs	r3, #0
 800a5ec:	63e3      	str	r3, [r4, #60]	; 0x3c
 800a5ee:	e760      	b.n	800a4b2 <_tzset_unlocked_r+0x296>
 800a5f0:	b280      	uxth	r0, r0
 800a5f2:	723b      	strb	r3, [r7, #8]
 800a5f4:	6178      	str	r0, [r7, #20]
 800a5f6:	e75c      	b.n	800a4b2 <_tzset_unlocked_r+0x296>
 800a5f8:	f8bd 201e 	ldrh.w	r2, [sp, #30]
 800a5fc:	f8bd 3020 	ldrh.w	r3, [sp, #32]
 800a600:	213c      	movs	r1, #60	; 0x3c
 800a602:	fb01 3302 	mla	r3, r1, r2, r3
 800a606:	f8bd 201c 	ldrh.w	r2, [sp, #28]
 800a60a:	f44f 6161 	mov.w	r1, #3600	; 0xe10
 800a60e:	fb01 3302 	mla	r3, r1, r2, r3
 800a612:	61bb      	str	r3, [r7, #24]
 800a614:	9d0a      	ldr	r5, [sp, #40]	; 0x28
 800a616:	3728      	adds	r7, #40	; 0x28
 800a618:	444d      	add	r5, r9
 800a61a:	f1bb 0f00 	cmp.w	fp, #0
 800a61e:	d0bc      	beq.n	800a59a <_tzset_unlocked_r+0x37e>
 800a620:	9b04      	ldr	r3, [sp, #16]
 800a622:	6523      	str	r3, [r4, #80]	; 0x50
 800a624:	4b0b      	ldr	r3, [pc, #44]	; (800a654 <_tzset_unlocked_r+0x438>)
 800a626:	f8c8 3000 	str.w	r3, [r8]
 800a62a:	6860      	ldr	r0, [r4, #4]
 800a62c:	4b07      	ldr	r3, [pc, #28]	; (800a64c <_tzset_unlocked_r+0x430>)
 800a62e:	62a6      	str	r6, [r4, #40]	; 0x28
 800a630:	f8c8 3004 	str.w	r3, [r8, #4]
 800a634:	f7ff fd3a 	bl	800a0ac <__tzcalc_limits>
 800a638:	6aa2      	ldr	r2, [r4, #40]	; 0x28
 800a63a:	6d23      	ldr	r3, [r4, #80]	; 0x50
 800a63c:	f8ca 2000 	str.w	r2, [sl]
 800a640:	1a9b      	subs	r3, r3, r2
 800a642:	4a05      	ldr	r2, [pc, #20]	; (800a658 <_tzset_unlocked_r+0x43c>)
 800a644:	bf18      	it	ne
 800a646:	2301      	movne	r3, #1
 800a648:	6013      	str	r3, [r2, #0]
 800a64a:	e615      	b.n	800a278 <_tzset_unlocked_r+0x5c>
 800a64c:	2000acc0 	.word	0x2000acc0
 800a650:	0800dd2a 	.word	0x0800dd2a
 800a654:	2000accc 	.word	0x2000accc
 800a658:	2000acdc 	.word	0x2000acdc

0800a65c <_close_r>:
 800a65c:	b538      	push	{r3, r4, r5, lr}
 800a65e:	4d06      	ldr	r5, [pc, #24]	; (800a678 <_close_r+0x1c>)
 800a660:	2300      	movs	r3, #0
 800a662:	4604      	mov	r4, r0
 800a664:	4608      	mov	r0, r1
 800a666:	602b      	str	r3, [r5, #0]
 800a668:	f7f6 faa2 	bl	8000bb0 <_close>
 800a66c:	1c43      	adds	r3, r0, #1
 800a66e:	d102      	bne.n	800a676 <_close_r+0x1a>
 800a670:	682b      	ldr	r3, [r5, #0]
 800a672:	b103      	cbz	r3, 800a676 <_close_r+0x1a>
 800a674:	6023      	str	r3, [r4, #0]
 800a676:	bd38      	pop	{r3, r4, r5, pc}
 800a678:	2000ace4 	.word	0x2000ace4

0800a67c <_lseek_r>:
 800a67c:	b538      	push	{r3, r4, r5, lr}
 800a67e:	4d07      	ldr	r5, [pc, #28]	; (800a69c <_lseek_r+0x20>)
 800a680:	4604      	mov	r4, r0
 800a682:	4608      	mov	r0, r1
 800a684:	4611      	mov	r1, r2
 800a686:	2200      	movs	r2, #0
 800a688:	602a      	str	r2, [r5, #0]
 800a68a:	461a      	mov	r2, r3
 800a68c:	f7f6 fa9a 	bl	8000bc4 <_lseek>
 800a690:	1c43      	adds	r3, r0, #1
 800a692:	d102      	bne.n	800a69a <_lseek_r+0x1e>
 800a694:	682b      	ldr	r3, [r5, #0]
 800a696:	b103      	cbz	r3, 800a69a <_lseek_r+0x1e>
 800a698:	6023      	str	r3, [r4, #0]
 800a69a:	bd38      	pop	{r3, r4, r5, pc}
 800a69c:	2000ace4 	.word	0x2000ace4

0800a6a0 <_read_r>:
 800a6a0:	b538      	push	{r3, r4, r5, lr}
 800a6a2:	4d07      	ldr	r5, [pc, #28]	; (800a6c0 <_read_r+0x20>)
 800a6a4:	4604      	mov	r4, r0
 800a6a6:	4608      	mov	r0, r1
 800a6a8:	4611      	mov	r1, r2
 800a6aa:	2200      	movs	r2, #0
 800a6ac:	602a      	str	r2, [r5, #0]
 800a6ae:	461a      	mov	r2, r3
 800a6b0:	f7f6 fa62 	bl	8000b78 <_read>
 800a6b4:	1c43      	adds	r3, r0, #1
 800a6b6:	d102      	bne.n	800a6be <_read_r+0x1e>
 800a6b8:	682b      	ldr	r3, [r5, #0]
 800a6ba:	b103      	cbz	r3, 800a6be <_read_r+0x1e>
 800a6bc:	6023      	str	r3, [r4, #0]
 800a6be:	bd38      	pop	{r3, r4, r5, pc}
 800a6c0:	2000ace4 	.word	0x2000ace4

0800a6c4 <_write_r>:
 800a6c4:	b538      	push	{r3, r4, r5, lr}
 800a6c6:	4d07      	ldr	r5, [pc, #28]	; (800a6e4 <_write_r+0x20>)
 800a6c8:	4604      	mov	r4, r0
 800a6ca:	4608      	mov	r0, r1
 800a6cc:	4611      	mov	r1, r2
 800a6ce:	2200      	movs	r2, #0
 800a6d0:	602a      	str	r2, [r5, #0]
 800a6d2:	461a      	mov	r2, r3
 800a6d4:	f7f6 fa5e 	bl	8000b94 <_write>
 800a6d8:	1c43      	adds	r3, r0, #1
 800a6da:	d102      	bne.n	800a6e2 <_write_r+0x1e>
 800a6dc:	682b      	ldr	r3, [r5, #0]
 800a6de:	b103      	cbz	r3, 800a6e2 <_write_r+0x1e>
 800a6e0:	6023      	str	r3, [r4, #0]
 800a6e2:	bd38      	pop	{r3, r4, r5, pc}
 800a6e4:	2000ace4 	.word	0x2000ace4

0800a6e8 <__errno>:
 800a6e8:	4b01      	ldr	r3, [pc, #4]	; (800a6f0 <__errno+0x8>)
 800a6ea:	6818      	ldr	r0, [r3, #0]
 800a6ec:	4770      	bx	lr
 800a6ee:	bf00      	nop
 800a6f0:	2000008c 	.word	0x2000008c

0800a6f4 <__libc_init_array>:
 800a6f4:	b570      	push	{r4, r5, r6, lr}
 800a6f6:	4d0d      	ldr	r5, [pc, #52]	; (800a72c <__libc_init_array+0x38>)
 800a6f8:	4c0d      	ldr	r4, [pc, #52]	; (800a730 <__libc_init_array+0x3c>)
 800a6fa:	1b64      	subs	r4, r4, r5
 800a6fc:	10a4      	asrs	r4, r4, #2
 800a6fe:	2600      	movs	r6, #0
 800a700:	42a6      	cmp	r6, r4
 800a702:	d109      	bne.n	800a718 <__libc_init_array+0x24>
 800a704:	4d0b      	ldr	r5, [pc, #44]	; (800a734 <__libc_init_array+0x40>)
 800a706:	4c0c      	ldr	r4, [pc, #48]	; (800a738 <__libc_init_array+0x44>)
 800a708:	f001 fb42 	bl	800bd90 <_init>
 800a70c:	1b64      	subs	r4, r4, r5
 800a70e:	10a4      	asrs	r4, r4, #2
 800a710:	2600      	movs	r6, #0
 800a712:	42a6      	cmp	r6, r4
 800a714:	d105      	bne.n	800a722 <__libc_init_array+0x2e>
 800a716:	bd70      	pop	{r4, r5, r6, pc}
 800a718:	f855 3b04 	ldr.w	r3, [r5], #4
 800a71c:	4798      	blx	r3
 800a71e:	3601      	adds	r6, #1
 800a720:	e7ee      	b.n	800a700 <__libc_init_array+0xc>
 800a722:	f855 3b04 	ldr.w	r3, [r5], #4
 800a726:	4798      	blx	r3
 800a728:	3601      	adds	r6, #1
 800a72a:	e7f2      	b.n	800a712 <__libc_init_array+0x1e>
 800a72c:	0800de54 	.word	0x0800de54
 800a730:	0800de54 	.word	0x0800de54
 800a734:	0800de54 	.word	0x0800de54
 800a738:	0800de58 	.word	0x0800de58

0800a73c <__retarget_lock_init_recursive>:
 800a73c:	4770      	bx	lr

0800a73e <__retarget_lock_acquire>:
 800a73e:	4770      	bx	lr

0800a740 <__retarget_lock_acquire_recursive>:
 800a740:	4770      	bx	lr

0800a742 <__retarget_lock_release>:
 800a742:	4770      	bx	lr

0800a744 <__retarget_lock_release_recursive>:
 800a744:	4770      	bx	lr

0800a746 <strcpy>:
 800a746:	4603      	mov	r3, r0
 800a748:	f811 2b01 	ldrb.w	r2, [r1], #1
 800a74c:	f803 2b01 	strb.w	r2, [r3], #1
 800a750:	2a00      	cmp	r2, #0
 800a752:	d1f9      	bne.n	800a748 <strcpy+0x2>
 800a754:	4770      	bx	lr

0800a756 <memcpy>:
 800a756:	440a      	add	r2, r1
 800a758:	4291      	cmp	r1, r2
 800a75a:	f100 33ff 	add.w	r3, r0, #4294967295
 800a75e:	d100      	bne.n	800a762 <memcpy+0xc>
 800a760:	4770      	bx	lr
 800a762:	b510      	push	{r4, lr}
 800a764:	f811 4b01 	ldrb.w	r4, [r1], #1
 800a768:	f803 4f01 	strb.w	r4, [r3, #1]!
 800a76c:	4291      	cmp	r1, r2
 800a76e:	d1f9      	bne.n	800a764 <memcpy+0xe>
 800a770:	bd10      	pop	{r4, pc}
	...

0800a774 <__assert_func>:
 800a774:	b51f      	push	{r0, r1, r2, r3, r4, lr}
 800a776:	4614      	mov	r4, r2
 800a778:	461a      	mov	r2, r3
 800a77a:	4b09      	ldr	r3, [pc, #36]	; (800a7a0 <__assert_func+0x2c>)
 800a77c:	681b      	ldr	r3, [r3, #0]
 800a77e:	4605      	mov	r5, r0
 800a780:	68d8      	ldr	r0, [r3, #12]
 800a782:	b14c      	cbz	r4, 800a798 <__assert_func+0x24>
 800a784:	4b07      	ldr	r3, [pc, #28]	; (800a7a4 <__assert_func+0x30>)
 800a786:	9100      	str	r1, [sp, #0]
 800a788:	e9cd 3401 	strd	r3, r4, [sp, #4]
 800a78c:	4906      	ldr	r1, [pc, #24]	; (800a7a8 <__assert_func+0x34>)
 800a78e:	462b      	mov	r3, r5
 800a790:	f000 fd6e 	bl	800b270 <fiprintf>
 800a794:	f000 fe54 	bl	800b440 <abort>
 800a798:	4b04      	ldr	r3, [pc, #16]	; (800a7ac <__assert_func+0x38>)
 800a79a:	461c      	mov	r4, r3
 800a79c:	e7f3      	b.n	800a786 <__assert_func+0x12>
 800a79e:	bf00      	nop
 800a7a0:	2000008c 	.word	0x2000008c
 800a7a4:	0800dd5e 	.word	0x0800dd5e
 800a7a8:	0800dd6b 	.word	0x0800dd6b
 800a7ac:	0800c942 	.word	0x0800c942

0800a7b0 <div>:
 800a7b0:	2900      	cmp	r1, #0
 800a7b2:	b510      	push	{r4, lr}
 800a7b4:	fb91 f4f2 	sdiv	r4, r1, r2
 800a7b8:	fb02 1314 	mls	r3, r2, r4, r1
 800a7bc:	db06      	blt.n	800a7cc <div+0x1c>
 800a7be:	2b00      	cmp	r3, #0
 800a7c0:	da01      	bge.n	800a7c6 <div+0x16>
 800a7c2:	3401      	adds	r4, #1
 800a7c4:	1a9b      	subs	r3, r3, r2
 800a7c6:	e9c0 4300 	strd	r4, r3, [r0]
 800a7ca:	bd10      	pop	{r4, pc}
 800a7cc:	2b00      	cmp	r3, #0
 800a7ce:	bfc4      	itt	gt
 800a7d0:	f104 34ff 	addgt.w	r4, r4, #4294967295
 800a7d4:	189b      	addgt	r3, r3, r2
 800a7d6:	e7f6      	b.n	800a7c6 <div+0x16>

0800a7d8 <_free_r>:
 800a7d8:	b537      	push	{r0, r1, r2, r4, r5, lr}
 800a7da:	2900      	cmp	r1, #0
 800a7dc:	d044      	beq.n	800a868 <_free_r+0x90>
 800a7de:	f851 3c04 	ldr.w	r3, [r1, #-4]
 800a7e2:	9001      	str	r0, [sp, #4]
 800a7e4:	2b00      	cmp	r3, #0
 800a7e6:	f1a1 0404 	sub.w	r4, r1, #4
 800a7ea:	bfb8      	it	lt
 800a7ec:	18e4      	addlt	r4, r4, r3
 800a7ee:	f000 f933 	bl	800aa58 <__malloc_lock>
 800a7f2:	4a1e      	ldr	r2, [pc, #120]	; (800a86c <_free_r+0x94>)
 800a7f4:	9801      	ldr	r0, [sp, #4]
 800a7f6:	6813      	ldr	r3, [r2, #0]
 800a7f8:	b933      	cbnz	r3, 800a808 <_free_r+0x30>
 800a7fa:	6063      	str	r3, [r4, #4]
 800a7fc:	6014      	str	r4, [r2, #0]
 800a7fe:	b003      	add	sp, #12
 800a800:	e8bd 4030 	ldmia.w	sp!, {r4, r5, lr}
 800a804:	f000 b92e 	b.w	800aa64 <__malloc_unlock>
 800a808:	42a3      	cmp	r3, r4
 800a80a:	d908      	bls.n	800a81e <_free_r+0x46>
 800a80c:	6825      	ldr	r5, [r4, #0]
 800a80e:	1961      	adds	r1, r4, r5
 800a810:	428b      	cmp	r3, r1
 800a812:	bf01      	itttt	eq
 800a814:	6819      	ldreq	r1, [r3, #0]
 800a816:	685b      	ldreq	r3, [r3, #4]
 800a818:	1949      	addeq	r1, r1, r5
 800a81a:	6021      	streq	r1, [r4, #0]
 800a81c:	e7ed      	b.n	800a7fa <_free_r+0x22>
 800a81e:	461a      	mov	r2, r3
 800a820:	685b      	ldr	r3, [r3, #4]
 800a822:	b10b      	cbz	r3, 800a828 <_free_r+0x50>
 800a824:	42a3      	cmp	r3, r4
 800a826:	d9fa      	bls.n	800a81e <_free_r+0x46>
 800a828:	6811      	ldr	r1, [r2, #0]
 800a82a:	1855      	adds	r5, r2, r1
 800a82c:	42a5      	cmp	r5, r4
 800a82e:	d10b      	bne.n	800a848 <_free_r+0x70>
 800a830:	6824      	ldr	r4, [r4, #0]
 800a832:	4421      	add	r1, r4
 800a834:	1854      	adds	r4, r2, r1
 800a836:	42a3      	cmp	r3, r4
 800a838:	6011      	str	r1, [r2, #0]
 800a83a:	d1e0      	bne.n	800a7fe <_free_r+0x26>
 800a83c:	681c      	ldr	r4, [r3, #0]
 800a83e:	685b      	ldr	r3, [r3, #4]
 800a840:	6053      	str	r3, [r2, #4]
 800a842:	440c      	add	r4, r1
 800a844:	6014      	str	r4, [r2, #0]
 800a846:	e7da      	b.n	800a7fe <_free_r+0x26>
 800a848:	d902      	bls.n	800a850 <_free_r+0x78>
 800a84a:	230c      	movs	r3, #12
 800a84c:	6003      	str	r3, [r0, #0]
 800a84e:	e7d6      	b.n	800a7fe <_free_r+0x26>
 800a850:	6825      	ldr	r5, [r4, #0]
 800a852:	1961      	adds	r1, r4, r5
 800a854:	428b      	cmp	r3, r1
 800a856:	bf04      	itt	eq
 800a858:	6819      	ldreq	r1, [r3, #0]
 800a85a:	685b      	ldreq	r3, [r3, #4]
 800a85c:	6063      	str	r3, [r4, #4]
 800a85e:	bf04      	itt	eq
 800a860:	1949      	addeq	r1, r1, r5
 800a862:	6021      	streq	r1, [r4, #0]
 800a864:	6054      	str	r4, [r2, #4]
 800a866:	e7ca      	b.n	800a7fe <_free_r+0x26>
 800a868:	b003      	add	sp, #12
 800a86a:	bd30      	pop	{r4, r5, pc}
 800a86c:	2000acec 	.word	0x2000acec

0800a870 <_findenv_r>:
 800a870:	e92d 4ff8 	stmdb	sp!, {r3, r4, r5, r6, r7, r8, r9, sl, fp, lr}
 800a874:	f8df a06c 	ldr.w	sl, [pc, #108]	; 800a8e4 <_findenv_r+0x74>
 800a878:	4607      	mov	r7, r0
 800a87a:	4689      	mov	r9, r1
 800a87c:	4616      	mov	r6, r2
 800a87e:	f000 fde7 	bl	800b450 <__env_lock>
 800a882:	f8da 4000 	ldr.w	r4, [sl]
 800a886:	b134      	cbz	r4, 800a896 <_findenv_r+0x26>
 800a888:	464b      	mov	r3, r9
 800a88a:	4698      	mov	r8, r3
 800a88c:	f813 2b01 	ldrb.w	r2, [r3], #1
 800a890:	b13a      	cbz	r2, 800a8a2 <_findenv_r+0x32>
 800a892:	2a3d      	cmp	r2, #61	; 0x3d
 800a894:	d1f9      	bne.n	800a88a <_findenv_r+0x1a>
 800a896:	4638      	mov	r0, r7
 800a898:	f000 fde0 	bl	800b45c <__env_unlock>
 800a89c:	2000      	movs	r0, #0
 800a89e:	e8bd 8ff8 	ldmia.w	sp!, {r3, r4, r5, r6, r7, r8, r9, sl, fp, pc}
 800a8a2:	eba8 0809 	sub.w	r8, r8, r9
 800a8a6:	46a3      	mov	fp, r4
 800a8a8:	f854 0b04 	ldr.w	r0, [r4], #4
 800a8ac:	2800      	cmp	r0, #0
 800a8ae:	d0f2      	beq.n	800a896 <_findenv_r+0x26>
 800a8b0:	4642      	mov	r2, r8
 800a8b2:	4649      	mov	r1, r9
 800a8b4:	f7ff f975 	bl	8009ba2 <strncmp>
 800a8b8:	2800      	cmp	r0, #0
 800a8ba:	d1f4      	bne.n	800a8a6 <_findenv_r+0x36>
 800a8bc:	f854 3c04 	ldr.w	r3, [r4, #-4]
 800a8c0:	eb03 0508 	add.w	r5, r3, r8
 800a8c4:	f813 3008 	ldrb.w	r3, [r3, r8]
 800a8c8:	2b3d      	cmp	r3, #61	; 0x3d
 800a8ca:	d1ec      	bne.n	800a8a6 <_findenv_r+0x36>
 800a8cc:	f8da 3000 	ldr.w	r3, [sl]
 800a8d0:	ebab 0303 	sub.w	r3, fp, r3
 800a8d4:	109b      	asrs	r3, r3, #2
 800a8d6:	4638      	mov	r0, r7
 800a8d8:	6033      	str	r3, [r6, #0]
 800a8da:	f000 fdbf 	bl	800b45c <__env_unlock>
 800a8de:	1c68      	adds	r0, r5, #1
 800a8e0:	e7dd      	b.n	800a89e <_findenv_r+0x2e>
 800a8e2:	bf00      	nop
 800a8e4:	20000000 	.word	0x20000000

0800a8e8 <_getenv_r>:
 800a8e8:	b507      	push	{r0, r1, r2, lr}
 800a8ea:	aa01      	add	r2, sp, #4
 800a8ec:	f7ff ffc0 	bl	800a870 <_findenv_r>
 800a8f0:	b003      	add	sp, #12
 800a8f2:	f85d fb04 	ldr.w	pc, [sp], #4
	...

0800a8f8 <malloc>:
 800a8f8:	4b02      	ldr	r3, [pc, #8]	; (800a904 <malloc+0xc>)
 800a8fa:	4601      	mov	r1, r0
 800a8fc:	6818      	ldr	r0, [r3, #0]
 800a8fe:	f000 b82b 	b.w	800a958 <_malloc_r>
 800a902:	bf00      	nop
 800a904:	2000008c 	.word	0x2000008c

0800a908 <free>:
 800a908:	4b02      	ldr	r3, [pc, #8]	; (800a914 <free+0xc>)
 800a90a:	4601      	mov	r1, r0
 800a90c:	6818      	ldr	r0, [r3, #0]
 800a90e:	f7ff bf63 	b.w	800a7d8 <_free_r>
 800a912:	bf00      	nop
 800a914:	2000008c 	.word	0x2000008c

0800a918 <sbrk_aligned>:
 800a918:	b570      	push	{r4, r5, r6, lr}
 800a91a:	4e0e      	ldr	r6, [pc, #56]	; (800a954 <sbrk_aligned+0x3c>)
 800a91c:	460c      	mov	r4, r1
 800a91e:	6831      	ldr	r1, [r6, #0]
 800a920:	4605      	mov	r5, r0
 800a922:	b911      	cbnz	r1, 800a92a <sbrk_aligned+0x12>
 800a924:	f000 fd7c 	bl	800b420 <_sbrk_r>
 800a928:	6030      	str	r0, [r6, #0]
 800a92a:	4621      	mov	r1, r4
 800a92c:	4628      	mov	r0, r5
 800a92e:	f000 fd77 	bl	800b420 <_sbrk_r>
 800a932:	1c43      	adds	r3, r0, #1
 800a934:	d00a      	beq.n	800a94c <sbrk_aligned+0x34>
 800a936:	1cc4      	adds	r4, r0, #3
 800a938:	f024 0403 	bic.w	r4, r4, #3
 800a93c:	42a0      	cmp	r0, r4
 800a93e:	d007      	beq.n	800a950 <sbrk_aligned+0x38>
 800a940:	1a21      	subs	r1, r4, r0
 800a942:	4628      	mov	r0, r5
 800a944:	f000 fd6c 	bl	800b420 <_sbrk_r>
 800a948:	3001      	adds	r0, #1
 800a94a:	d101      	bne.n	800a950 <sbrk_aligned+0x38>
 800a94c:	f04f 34ff 	mov.w	r4, #4294967295
 800a950:	4620      	mov	r0, r4
 800a952:	bd70      	pop	{r4, r5, r6, pc}
 800a954:	2000acf0 	.word	0x2000acf0

0800a958 <_malloc_r>:
 800a958:	e92d 43f8 	stmdb	sp!, {r3, r4, r5, r6, r7, r8, r9, lr}
 800a95c:	1ccd      	adds	r5, r1, #3
 800a95e:	f025 0503 	bic.w	r5, r5, #3
 800a962:	3508      	adds	r5, #8
 800a964:	2d0c      	cmp	r5, #12
 800a966:	bf38      	it	cc
 800a968:	250c      	movcc	r5, #12
 800a96a:	2d00      	cmp	r5, #0
 800a96c:	4607      	mov	r7, r0
 800a96e:	db01      	blt.n	800a974 <_malloc_r+0x1c>
 800a970:	42a9      	cmp	r1, r5
 800a972:	d905      	bls.n	800a980 <_malloc_r+0x28>
 800a974:	230c      	movs	r3, #12
 800a976:	603b      	str	r3, [r7, #0]
 800a978:	2600      	movs	r6, #0
 800a97a:	4630      	mov	r0, r6
 800a97c:	e8bd 83f8 	ldmia.w	sp!, {r3, r4, r5, r6, r7, r8, r9, pc}
 800a980:	f8df 80d0 	ldr.w	r8, [pc, #208]	; 800aa54 <_malloc_r+0xfc>
 800a984:	f000 f868 	bl	800aa58 <__malloc_lock>
 800a988:	f8d8 3000 	ldr.w	r3, [r8]
 800a98c:	461c      	mov	r4, r3
 800a98e:	bb5c      	cbnz	r4, 800a9e8 <_malloc_r+0x90>
 800a990:	4629      	mov	r1, r5
 800a992:	4638      	mov	r0, r7
 800a994:	f7ff ffc0 	bl	800a918 <sbrk_aligned>
 800a998:	1c43      	adds	r3, r0, #1
 800a99a:	4604      	mov	r4, r0
 800a99c:	d155      	bne.n	800aa4a <_malloc_r+0xf2>
 800a99e:	f8d8 4000 	ldr.w	r4, [r8]
 800a9a2:	4626      	mov	r6, r4
 800a9a4:	2e00      	cmp	r6, #0
 800a9a6:	d145      	bne.n	800aa34 <_malloc_r+0xdc>
 800a9a8:	2c00      	cmp	r4, #0
 800a9aa:	d048      	beq.n	800aa3e <_malloc_r+0xe6>
 800a9ac:	6823      	ldr	r3, [r4, #0]
 800a9ae:	4631      	mov	r1, r6
 800a9b0:	4638      	mov	r0, r7
 800a9b2:	eb04 0903 	add.w	r9, r4, r3
 800a9b6:	f000 fd33 	bl	800b420 <_sbrk_r>
 800a9ba:	4581      	cmp	r9, r0
 800a9bc:	d13f      	bne.n	800aa3e <_malloc_r+0xe6>
 800a9be:	6821      	ldr	r1, [r4, #0]
 800a9c0:	1a6d      	subs	r5, r5, r1
 800a9c2:	4629      	mov	r1, r5
 800a9c4:	4638      	mov	r0, r7
 800a9c6:	f7ff ffa7 	bl	800a918 <sbrk_aligned>
 800a9ca:	3001      	adds	r0, #1
 800a9cc:	d037      	beq.n	800aa3e <_malloc_r+0xe6>
 800a9ce:	6823      	ldr	r3, [r4, #0]
 800a9d0:	442b      	add	r3, r5
 800a9d2:	6023      	str	r3, [r4, #0]
 800a9d4:	f8d8 3000 	ldr.w	r3, [r8]
 800a9d8:	2b00      	cmp	r3, #0
 800a9da:	d038      	beq.n	800aa4e <_malloc_r+0xf6>
 800a9dc:	685a      	ldr	r2, [r3, #4]
 800a9de:	42a2      	cmp	r2, r4
 800a9e0:	d12b      	bne.n	800aa3a <_malloc_r+0xe2>
 800a9e2:	2200      	movs	r2, #0
 800a9e4:	605a      	str	r2, [r3, #4]
 800a9e6:	e00f      	b.n	800aa08 <_malloc_r+0xb0>
 800a9e8:	6822      	ldr	r2, [r4, #0]
 800a9ea:	1b52      	subs	r2, r2, r5
 800a9ec:	d41f      	bmi.n	800aa2e <_malloc_r+0xd6>
 800a9ee:	2a0b      	cmp	r2, #11
 800a9f0:	d917      	bls.n	800aa22 <_malloc_r+0xca>
 800a9f2:	1961      	adds	r1, r4, r5
 800a9f4:	42a3      	cmp	r3, r4
 800a9f6:	6025      	str	r5, [r4, #0]
 800a9f8:	bf18      	it	ne
 800a9fa:	6059      	strne	r1, [r3, #4]
 800a9fc:	6863      	ldr	r3, [r4, #4]
 800a9fe:	bf08      	it	eq
 800aa00:	f8c8 1000 	streq.w	r1, [r8]
 800aa04:	5162      	str	r2, [r4, r5]
 800aa06:	604b      	str	r3, [r1, #4]
 800aa08:	4638      	mov	r0, r7
 800aa0a:	f104 060b 	add.w	r6, r4, #11
 800aa0e:	f000 f829 	bl	800aa64 <__malloc_unlock>
 800aa12:	f026 0607 	bic.w	r6, r6, #7
 800aa16:	1d23      	adds	r3, r4, #4
 800aa18:	1af2      	subs	r2, r6, r3
 800aa1a:	d0ae      	beq.n	800a97a <_malloc_r+0x22>
 800aa1c:	1b9b      	subs	r3, r3, r6
 800aa1e:	50a3      	str	r3, [r4, r2]
 800aa20:	e7ab      	b.n	800a97a <_malloc_r+0x22>
 800aa22:	42a3      	cmp	r3, r4
 800aa24:	6862      	ldr	r2, [r4, #4]
 800aa26:	d1dd      	bne.n	800a9e4 <_malloc_r+0x8c>
 800aa28:	f8c8 2000 	str.w	r2, [r8]
 800aa2c:	e7ec      	b.n	800aa08 <_malloc_r+0xb0>
 800aa2e:	4623      	mov	r3, r4
 800aa30:	6864      	ldr	r4, [r4, #4]
 800aa32:	e7ac      	b.n	800a98e <_malloc_r+0x36>
 800aa34:	4634      	mov	r4, r6
 800aa36:	6876      	ldr	r6, [r6, #4]
 800aa38:	e7b4      	b.n	800a9a4 <_malloc_r+0x4c>
 800aa3a:	4613      	mov	r3, r2
 800aa3c:	e7cc      	b.n	800a9d8 <_malloc_r+0x80>
 800aa3e:	230c      	movs	r3, #12
 800aa40:	603b      	str	r3, [r7, #0]
 800aa42:	4638      	mov	r0, r7
 800aa44:	f000 f80e 	bl	800aa64 <__malloc_unlock>
 800aa48:	e797      	b.n	800a97a <_malloc_r+0x22>
 800aa4a:	6025      	str	r5, [r4, #0]
 800aa4c:	e7dc      	b.n	800aa08 <_malloc_r+0xb0>
 800aa4e:	605b      	str	r3, [r3, #4]
 800aa50:	deff      	udf	#255	; 0xff
 800aa52:	bf00      	nop
 800aa54:	2000acec 	.word	0x2000acec

0800aa58 <__malloc_lock>:
 800aa58:	4801      	ldr	r0, [pc, #4]	; (800aa60 <__malloc_lock+0x8>)
 800aa5a:	f7ff be71 	b.w	800a740 <__retarget_lock_acquire_recursive>
 800aa5e:	bf00      	nop
 800aa60:	2000ace9 	.word	0x2000ace9

0800aa64 <__malloc_unlock>:
 800aa64:	4801      	ldr	r0, [pc, #4]	; (800aa6c <__malloc_unlock+0x8>)
 800aa66:	f7ff be6d 	b.w	800a744 <__retarget_lock_release_recursive>
 800aa6a:	bf00      	nop
 800aa6c:	2000ace9 	.word	0x2000ace9

0800aa70 <_strtoul_l.constprop.0>:
 800aa70:	e92d 43f0 	stmdb	sp!, {r4, r5, r6, r7, r8, r9, lr}
 800aa74:	4f36      	ldr	r7, [pc, #216]	; (800ab50 <_strtoul_l.constprop.0+0xe0>)
 800aa76:	4686      	mov	lr, r0
 800aa78:	460d      	mov	r5, r1
 800aa7a:	4628      	mov	r0, r5
 800aa7c:	f815 4b01 	ldrb.w	r4, [r5], #1
 800aa80:	5d3e      	ldrb	r6, [r7, r4]
 800aa82:	f016 0608 	ands.w	r6, r6, #8
 800aa86:	d1f8      	bne.n	800aa7a <_strtoul_l.constprop.0+0xa>
 800aa88:	2c2d      	cmp	r4, #45	; 0x2d
 800aa8a:	d130      	bne.n	800aaee <_strtoul_l.constprop.0+0x7e>
 800aa8c:	782c      	ldrb	r4, [r5, #0]
 800aa8e:	2601      	movs	r6, #1
 800aa90:	1c85      	adds	r5, r0, #2
 800aa92:	2b00      	cmp	r3, #0
 800aa94:	d057      	beq.n	800ab46 <_strtoul_l.constprop.0+0xd6>
 800aa96:	2b10      	cmp	r3, #16
 800aa98:	d109      	bne.n	800aaae <_strtoul_l.constprop.0+0x3e>
 800aa9a:	2c30      	cmp	r4, #48	; 0x30
 800aa9c:	d107      	bne.n	800aaae <_strtoul_l.constprop.0+0x3e>
 800aa9e:	7828      	ldrb	r0, [r5, #0]
 800aaa0:	f000 00df 	and.w	r0, r0, #223	; 0xdf
 800aaa4:	2858      	cmp	r0, #88	; 0x58
 800aaa6:	d149      	bne.n	800ab3c <_strtoul_l.constprop.0+0xcc>
 800aaa8:	786c      	ldrb	r4, [r5, #1]
 800aaaa:	2310      	movs	r3, #16
 800aaac:	3502      	adds	r5, #2
 800aaae:	f04f 38ff 	mov.w	r8, #4294967295
 800aab2:	2700      	movs	r7, #0
 800aab4:	fbb8 f8f3 	udiv	r8, r8, r3
 800aab8:	fb03 f908 	mul.w	r9, r3, r8
 800aabc:	ea6f 0909 	mvn.w	r9, r9
 800aac0:	4638      	mov	r0, r7
 800aac2:	f1a4 0c30 	sub.w	ip, r4, #48	; 0x30
 800aac6:	f1bc 0f09 	cmp.w	ip, #9
 800aaca:	d815      	bhi.n	800aaf8 <_strtoul_l.constprop.0+0x88>
 800aacc:	4664      	mov	r4, ip
 800aace:	42a3      	cmp	r3, r4
 800aad0:	dd23      	ble.n	800ab1a <_strtoul_l.constprop.0+0xaa>
 800aad2:	f1b7 3fff 	cmp.w	r7, #4294967295
 800aad6:	d007      	beq.n	800aae8 <_strtoul_l.constprop.0+0x78>
 800aad8:	4580      	cmp	r8, r0
 800aada:	d31b      	bcc.n	800ab14 <_strtoul_l.constprop.0+0xa4>
 800aadc:	d101      	bne.n	800aae2 <_strtoul_l.constprop.0+0x72>
 800aade:	45a1      	cmp	r9, r4
 800aae0:	db18      	blt.n	800ab14 <_strtoul_l.constprop.0+0xa4>
 800aae2:	fb00 4003 	mla	r0, r0, r3, r4
 800aae6:	2701      	movs	r7, #1
 800aae8:	f815 4b01 	ldrb.w	r4, [r5], #1
 800aaec:	e7e9      	b.n	800aac2 <_strtoul_l.constprop.0+0x52>
 800aaee:	2c2b      	cmp	r4, #43	; 0x2b
 800aaf0:	bf04      	itt	eq
 800aaf2:	782c      	ldrbeq	r4, [r5, #0]
 800aaf4:	1c85      	addeq	r5, r0, #2
 800aaf6:	e7cc      	b.n	800aa92 <_strtoul_l.constprop.0+0x22>
 800aaf8:	f1a4 0c41 	sub.w	ip, r4, #65	; 0x41
 800aafc:	f1bc 0f19 	cmp.w	ip, #25
 800ab00:	d801      	bhi.n	800ab06 <_strtoul_l.constprop.0+0x96>
 800ab02:	3c37      	subs	r4, #55	; 0x37
 800ab04:	e7e3      	b.n	800aace <_strtoul_l.constprop.0+0x5e>
 800ab06:	f1a4 0c61 	sub.w	ip, r4, #97	; 0x61
 800ab0a:	f1bc 0f19 	cmp.w	ip, #25
 800ab0e:	d804      	bhi.n	800ab1a <_strtoul_l.constprop.0+0xaa>
 800ab10:	3c57      	subs	r4, #87	; 0x57
 800ab12:	e7dc      	b.n	800aace <_strtoul_l.constprop.0+0x5e>
 800ab14:	f04f 37ff 	mov.w	r7, #4294967295
 800ab18:	e7e6      	b.n	800aae8 <_strtoul_l.constprop.0+0x78>
 800ab1a:	1c7b      	adds	r3, r7, #1
 800ab1c:	d106      	bne.n	800ab2c <_strtoul_l.constprop.0+0xbc>
 800ab1e:	2322      	movs	r3, #34	; 0x22
 800ab20:	f8ce 3000 	str.w	r3, [lr]
 800ab24:	4638      	mov	r0, r7
 800ab26:	b932      	cbnz	r2, 800ab36 <_strtoul_l.constprop.0+0xc6>
 800ab28:	e8bd 83f0 	ldmia.w	sp!, {r4, r5, r6, r7, r8, r9, pc}
 800ab2c:	b106      	cbz	r6, 800ab30 <_strtoul_l.constprop.0+0xc0>
 800ab2e:	4240      	negs	r0, r0
 800ab30:	2a00      	cmp	r2, #0
 800ab32:	d0f9      	beq.n	800ab28 <_strtoul_l.constprop.0+0xb8>
 800ab34:	b107      	cbz	r7, 800ab38 <_strtoul_l.constprop.0+0xc8>
 800ab36:	1e69      	subs	r1, r5, #1
 800ab38:	6011      	str	r1, [r2, #0]
 800ab3a:	e7f5      	b.n	800ab28 <_strtoul_l.constprop.0+0xb8>
 800ab3c:	2430      	movs	r4, #48	; 0x30
 800ab3e:	2b00      	cmp	r3, #0
 800ab40:	d1b5      	bne.n	800aaae <_strtoul_l.constprop.0+0x3e>
 800ab42:	2308      	movs	r3, #8
 800ab44:	e7b3      	b.n	800aaae <_strtoul_l.constprop.0+0x3e>
 800ab46:	2c30      	cmp	r4, #48	; 0x30
 800ab48:	d0a9      	beq.n	800aa9e <_strtoul_l.constprop.0+0x2e>
 800ab4a:	230a      	movs	r3, #10
 800ab4c:	e7af      	b.n	800aaae <_strtoul_l.constprop.0+0x3e>
 800ab4e:	bf00      	nop
 800ab50:	0800dbae 	.word	0x0800dbae

0800ab54 <_strtoul_r>:
 800ab54:	f7ff bf8c 	b.w	800aa70 <_strtoul_l.constprop.0>

0800ab58 <strtoul>:
 800ab58:	4613      	mov	r3, r2
 800ab5a:	460a      	mov	r2, r1
 800ab5c:	4601      	mov	r1, r0
 800ab5e:	4802      	ldr	r0, [pc, #8]	; (800ab68 <strtoul+0x10>)
 800ab60:	6800      	ldr	r0, [r0, #0]
 800ab62:	f7ff bf85 	b.w	800aa70 <_strtoul_l.constprop.0>
 800ab66:	bf00      	nop
 800ab68:	2000008c 	.word	0x2000008c

0800ab6c <__sfputc_r>:
 800ab6c:	6893      	ldr	r3, [r2, #8]
 800ab6e:	3b01      	subs	r3, #1
 800ab70:	2b00      	cmp	r3, #0
 800ab72:	b410      	push	{r4}
 800ab74:	6093      	str	r3, [r2, #8]
 800ab76:	da08      	bge.n	800ab8a <__sfputc_r+0x1e>
 800ab78:	6994      	ldr	r4, [r2, #24]
 800ab7a:	42a3      	cmp	r3, r4
 800ab7c:	db01      	blt.n	800ab82 <__sfputc_r+0x16>
 800ab7e:	290a      	cmp	r1, #10
 800ab80:	d103      	bne.n	800ab8a <__sfputc_r+0x1e>
 800ab82:	f85d 4b04 	ldr.w	r4, [sp], #4
 800ab86:	f000 bbb1 	b.w	800b2ec <__swbuf_r>
 800ab8a:	6813      	ldr	r3, [r2, #0]
 800ab8c:	1c58      	adds	r0, r3, #1
 800ab8e:	6010      	str	r0, [r2, #0]
 800ab90:	7019      	strb	r1, [r3, #0]
 800ab92:	4608      	mov	r0, r1
 800ab94:	f85d 4b04 	ldr.w	r4, [sp], #4
 800ab98:	4770      	bx	lr

0800ab9a <__sfputs_r>:
 800ab9a:	b5f8      	push	{r3, r4, r5, r6, r7, lr}
 800ab9c:	4606      	mov	r6, r0
 800ab9e:	460f      	mov	r7, r1
 800aba0:	4614      	mov	r4, r2
 800aba2:	18d5      	adds	r5, r2, r3
 800aba4:	42ac      	cmp	r4, r5
 800aba6:	d101      	bne.n	800abac <__sfputs_r+0x12>
 800aba8:	2000      	movs	r0, #0
 800abaa:	e007      	b.n	800abbc <__sfputs_r+0x22>
 800abac:	f814 1b01 	ldrb.w	r1, [r4], #1
 800abb0:	463a      	mov	r2, r7
 800abb2:	4630      	mov	r0, r6
 800abb4:	f7ff ffda 	bl	800ab6c <__sfputc_r>
 800abb8:	1c43      	adds	r3, r0, #1
 800abba:	d1f3      	bne.n	800aba4 <__sfputs_r+0xa>
 800abbc:	bdf8      	pop	{r3, r4, r5, r6, r7, pc}
	...

0800abc0 <_vfiprintf_r>:
 800abc0:	e92d 4ff0 	stmdb	sp!, {r4, r5, r6, r7, r8, r9, sl, fp, lr}
 800abc4:	460d      	mov	r5, r1
 800abc6:	b09d      	sub	sp, #116	; 0x74
 800abc8:	4614      	mov	r4, r2
 800abca:	4698      	mov	r8, r3
 800abcc:	4606      	mov	r6, r0
 800abce:	b118      	cbz	r0, 800abd8 <_vfiprintf_r+0x18>
 800abd0:	6a03      	ldr	r3, [r0, #32]
 800abd2:	b90b      	cbnz	r3, 800abd8 <_vfiprintf_r+0x18>
 800abd4:	f7fe ff40 	bl	8009a58 <__sinit>
 800abd8:	6e6b      	ldr	r3, [r5, #100]	; 0x64
 800abda:	07d9      	lsls	r1, r3, #31
 800abdc:	d405      	bmi.n	800abea <_vfiprintf_r+0x2a>
 800abde:	89ab      	ldrh	r3, [r5, #12]
 800abe0:	059a      	lsls	r2, r3, #22
 800abe2:	d402      	bmi.n	800abea <_vfiprintf_r+0x2a>
 800abe4:	6da8      	ldr	r0, [r5, #88]	; 0x58
 800abe6:	f7ff fdab 	bl	800a740 <__retarget_lock_acquire_recursive>
 800abea:	89ab      	ldrh	r3, [r5, #12]
 800abec:	071b      	lsls	r3, r3, #28
 800abee:	d501      	bpl.n	800abf4 <_vfiprintf_r+0x34>
 800abf0:	692b      	ldr	r3, [r5, #16]
 800abf2:	b99b      	cbnz	r3, 800ac1c <_vfiprintf_r+0x5c>
 800abf4:	4629      	mov	r1, r5
 800abf6:	4630      	mov	r0, r6
 800abf8:	f000 fbb6 	bl	800b368 <__swsetup_r>
 800abfc:	b170      	cbz	r0, 800ac1c <_vfiprintf_r+0x5c>
 800abfe:	6e6b      	ldr	r3, [r5, #100]	; 0x64
 800ac00:	07dc      	lsls	r4, r3, #31
 800ac02:	d504      	bpl.n	800ac0e <_vfiprintf_r+0x4e>
 800ac04:	f04f 30ff 	mov.w	r0, #4294967295
 800ac08:	b01d      	add	sp, #116	; 0x74
 800ac0a:	e8bd 8ff0 	ldmia.w	sp!, {r4, r5, r6, r7, r8, r9, sl, fp, pc}
 800ac0e:	89ab      	ldrh	r3, [r5, #12]
 800ac10:	0598      	lsls	r0, r3, #22
 800ac12:	d4f7      	bmi.n	800ac04 <_vfiprintf_r+0x44>
 800ac14:	6da8      	ldr	r0, [r5, #88]	; 0x58
 800ac16:	f7ff fd95 	bl	800a744 <__retarget_lock_release_recursive>
 800ac1a:	e7f3      	b.n	800ac04 <_vfiprintf_r+0x44>
 800ac1c:	2300      	movs	r3, #0
 800ac1e:	9309      	str	r3, [sp, #36]	; 0x24
 800ac20:	2320      	movs	r3, #32
 800ac22:	f88d 3029 	strb.w	r3, [sp, #41]	; 0x29
 800ac26:	f8cd 800c 	str.w	r8, [sp, #12]
 800ac2a:	2330      	movs	r3, #48	; 0x30
 800ac2c:	f8df 81b0 	ldr.w	r8, [pc, #432]	; 800ade0 <_vfiprintf_r+0x220>
 800ac30:	f88d 302a 	strb.w	r3, [sp, #42]	; 0x2a
 800ac34:	f04f 0901 	mov.w	r9, #1
 800ac38:	4623      	mov	r3, r4
 800ac3a:	469a      	mov	sl, r3
 800ac3c:	f813 2b01 	ldrb.w	r2, [r3], #1
 800ac40:	b10a      	cbz	r2, 800ac46 <_vfiprintf_r+0x86>
 800ac42:	2a25      	cmp	r2, #37	; 0x25
 800ac44:	d1f9      	bne.n	800ac3a <_vfiprintf_r+0x7a>
 800ac46:	ebba 0b04 	subs.w	fp, sl, r4
 800ac4a:	d00b      	beq.n	800ac64 <_vfiprintf_r+0xa4>
 800ac4c:	465b      	mov	r3, fp
 800ac4e:	4622      	mov	r2, r4
 800ac50:	4629      	mov	r1, r5
 800ac52:	4630      	mov	r0, r6
 800ac54:	f7ff ffa1 	bl	800ab9a <__sfputs_r>
 800ac58:	3001      	adds	r0, #1
 800ac5a:	f000 80a9 	beq.w	800adb0 <_vfiprintf_r+0x1f0>
 800ac5e:	9a09      	ldr	r2, [sp, #36]	; 0x24
 800ac60:	445a      	add	r2, fp
 800ac62:	9209      	str	r2, [sp, #36]	; 0x24
 800ac64:	f89a 3000 	ldrb.w	r3, [sl]
 800ac68:	2b00      	cmp	r3, #0
 800ac6a:	f000 80a1 	beq.w	800adb0 <_vfiprintf_r+0x1f0>
 800ac6e:	2300      	movs	r3, #0
 800ac70:	f04f 32ff 	mov.w	r2, #4294967295
 800ac74:	e9cd 2305 	strd	r2, r3, [sp, #20]
 800ac78:	f10a 0a01 	add.w	sl, sl, #1
 800ac7c:	9304      	str	r3, [sp, #16]
 800ac7e:	9307      	str	r3, [sp, #28]
 800ac80:	f88d 3053 	strb.w	r3, [sp, #83]	; 0x53
 800ac84:	931a      	str	r3, [sp, #104]	; 0x68
 800ac86:	4654      	mov	r4, sl
 800ac88:	2205      	movs	r2, #5
 800ac8a:	f814 1b01 	ldrb.w	r1, [r4], #1
 800ac8e:	4854      	ldr	r0, [pc, #336]	; (800ade0 <_vfiprintf_r+0x220>)
 800ac90:	f7f5 fad6 	bl	8000240 <memchr>
 800ac94:	9a04      	ldr	r2, [sp, #16]
 800ac96:	b9d8      	cbnz	r0, 800acd0 <_vfiprintf_r+0x110>
 800ac98:	06d1      	lsls	r1, r2, #27
 800ac9a:	bf44      	itt	mi
 800ac9c:	2320      	movmi	r3, #32
 800ac9e:	f88d 3053 	strbmi.w	r3, [sp, #83]	; 0x53
 800aca2:	0713      	lsls	r3, r2, #28
 800aca4:	bf44      	itt	mi
 800aca6:	232b      	movmi	r3, #43	; 0x2b
 800aca8:	f88d 3053 	strbmi.w	r3, [sp, #83]	; 0x53
 800acac:	f89a 3000 	ldrb.w	r3, [sl]
 800acb0:	2b2a      	cmp	r3, #42	; 0x2a
 800acb2:	d015      	beq.n	800ace0 <_vfiprintf_r+0x120>
 800acb4:	9a07      	ldr	r2, [sp, #28]
 800acb6:	4654      	mov	r4, sl
 800acb8:	2000      	movs	r0, #0
 800acba:	f04f 0c0a 	mov.w	ip, #10
 800acbe:	4621      	mov	r1, r4
 800acc0:	f811 3b01 	ldrb.w	r3, [r1], #1
 800acc4:	3b30      	subs	r3, #48	; 0x30
 800acc6:	2b09      	cmp	r3, #9
 800acc8:	d94d      	bls.n	800ad66 <_vfiprintf_r+0x1a6>
 800acca:	b1b0      	cbz	r0, 800acfa <_vfiprintf_r+0x13a>
 800accc:	9207      	str	r2, [sp, #28]
 800acce:	e014      	b.n	800acfa <_vfiprintf_r+0x13a>
 800acd0:	eba0 0308 	sub.w	r3, r0, r8
 800acd4:	fa09 f303 	lsl.w	r3, r9, r3
 800acd8:	4313      	orrs	r3, r2
 800acda:	9304      	str	r3, [sp, #16]
 800acdc:	46a2      	mov	sl, r4
 800acde:	e7d2      	b.n	800ac86 <_vfiprintf_r+0xc6>
 800ace0:	9b03      	ldr	r3, [sp, #12]
 800ace2:	1d19      	adds	r1, r3, #4
 800ace4:	681b      	ldr	r3, [r3, #0]
 800ace6:	9103      	str	r1, [sp, #12]
 800ace8:	2b00      	cmp	r3, #0
 800acea:	bfbb      	ittet	lt
 800acec:	425b      	neglt	r3, r3
 800acee:	f042 0202 	orrlt.w	r2, r2, #2
 800acf2:	9307      	strge	r3, [sp, #28]
 800acf4:	9307      	strlt	r3, [sp, #28]
 800acf6:	bfb8      	it	lt
 800acf8:	9204      	strlt	r2, [sp, #16]
 800acfa:	7823      	ldrb	r3, [r4, #0]
 800acfc:	2b2e      	cmp	r3, #46	; 0x2e
 800acfe:	d10c      	bne.n	800ad1a <_vfiprintf_r+0x15a>
 800ad00:	7863      	ldrb	r3, [r4, #1]
 800ad02:	2b2a      	cmp	r3, #42	; 0x2a
 800ad04:	d134      	bne.n	800ad70 <_vfiprintf_r+0x1b0>
 800ad06:	9b03      	ldr	r3, [sp, #12]
 800ad08:	1d1a      	adds	r2, r3, #4
 800ad0a:	681b      	ldr	r3, [r3, #0]
 800ad0c:	9203      	str	r2, [sp, #12]
 800ad0e:	2b00      	cmp	r3, #0
 800ad10:	bfb8      	it	lt
 800ad12:	f04f 33ff 	movlt.w	r3, #4294967295
 800ad16:	3402      	adds	r4, #2
 800ad18:	9305      	str	r3, [sp, #20]
 800ad1a:	f8df a0d4 	ldr.w	sl, [pc, #212]	; 800adf0 <_vfiprintf_r+0x230>
 800ad1e:	7821      	ldrb	r1, [r4, #0]
 800ad20:	2203      	movs	r2, #3
 800ad22:	4650      	mov	r0, sl
 800ad24:	f7f5 fa8c 	bl	8000240 <memchr>
 800ad28:	b138      	cbz	r0, 800ad3a <_vfiprintf_r+0x17a>
 800ad2a:	9b04      	ldr	r3, [sp, #16]
 800ad2c:	eba0 000a 	sub.w	r0, r0, sl
 800ad30:	2240      	movs	r2, #64	; 0x40
 800ad32:	4082      	lsls	r2, r0
 800ad34:	4313      	orrs	r3, r2
 800ad36:	3401      	adds	r4, #1
 800ad38:	9304      	str	r3, [sp, #16]
 800ad3a:	f814 1b01 	ldrb.w	r1, [r4], #1
 800ad3e:	4829      	ldr	r0, [pc, #164]	; (800ade4 <_vfiprintf_r+0x224>)
 800ad40:	f88d 1028 	strb.w	r1, [sp, #40]	; 0x28
 800ad44:	2206      	movs	r2, #6
 800ad46:	f7f5 fa7b 	bl	8000240 <memchr>
 800ad4a:	2800      	cmp	r0, #0
 800ad4c:	d03f      	beq.n	800adce <_vfiprintf_r+0x20e>
 800ad4e:	4b26      	ldr	r3, [pc, #152]	; (800ade8 <_vfiprintf_r+0x228>)
 800ad50:	bb1b      	cbnz	r3, 800ad9a <_vfiprintf_r+0x1da>
 800ad52:	9b03      	ldr	r3, [sp, #12]
 800ad54:	3307      	adds	r3, #7
 800ad56:	f023 0307 	bic.w	r3, r3, #7
 800ad5a:	3308      	adds	r3, #8
 800ad5c:	9303      	str	r3, [sp, #12]
 800ad5e:	9b09      	ldr	r3, [sp, #36]	; 0x24
 800ad60:	443b      	add	r3, r7
 800ad62:	9309      	str	r3, [sp, #36]	; 0x24
 800ad64:	e768      	b.n	800ac38 <_vfiprintf_r+0x78>
 800ad66:	fb0c 3202 	mla	r2, ip, r2, r3
 800ad6a:	460c      	mov	r4, r1
 800ad6c:	2001      	movs	r0, #1
 800ad6e:	e7a6      	b.n	800acbe <_vfiprintf_r+0xfe>
 800ad70:	2300      	movs	r3, #0
 800ad72:	3401      	adds	r4, #1
 800ad74:	9305      	str	r3, [sp, #20]
 800ad76:	4619      	mov	r1, r3
 800ad78:	f04f 0c0a 	mov.w	ip, #10
 800ad7c:	4620      	mov	r0, r4
 800ad7e:	f810 2b01 	ldrb.w	r2, [r0], #1
 800ad82:	3a30      	subs	r2, #48	; 0x30
 800ad84:	2a09      	cmp	r2, #9
 800ad86:	d903      	bls.n	800ad90 <_vfiprintf_r+0x1d0>
 800ad88:	2b00      	cmp	r3, #0
 800ad8a:	d0c6      	beq.n	800ad1a <_vfiprintf_r+0x15a>
 800ad8c:	9105      	str	r1, [sp, #20]
 800ad8e:	e7c4      	b.n	800ad1a <_vfiprintf_r+0x15a>
 800ad90:	fb0c 2101 	mla	r1, ip, r1, r2
 800ad94:	4604      	mov	r4, r0
 800ad96:	2301      	movs	r3, #1
 800ad98:	e7f0      	b.n	800ad7c <_vfiprintf_r+0x1bc>
 800ad9a:	ab03      	add	r3, sp, #12
 800ad9c:	9300      	str	r3, [sp, #0]
 800ad9e:	462a      	mov	r2, r5
 800ada0:	4b12      	ldr	r3, [pc, #72]	; (800adec <_vfiprintf_r+0x22c>)
 800ada2:	a904      	add	r1, sp, #16
 800ada4:	4630      	mov	r0, r6
 800ada6:	f3af 8000 	nop.w
 800adaa:	4607      	mov	r7, r0
 800adac:	1c78      	adds	r0, r7, #1
 800adae:	d1d6      	bne.n	800ad5e <_vfiprintf_r+0x19e>
 800adb0:	6e6b      	ldr	r3, [r5, #100]	; 0x64
 800adb2:	07d9      	lsls	r1, r3, #31
 800adb4:	d405      	bmi.n	800adc2 <_vfiprintf_r+0x202>
 800adb6:	89ab      	ldrh	r3, [r5, #12]
 800adb8:	059a      	lsls	r2, r3, #22
 800adba:	d402      	bmi.n	800adc2 <_vfiprintf_r+0x202>
 800adbc:	6da8      	ldr	r0, [r5, #88]	; 0x58
 800adbe:	f7ff fcc1 	bl	800a744 <__retarget_lock_release_recursive>
 800adc2:	89ab      	ldrh	r3, [r5, #12]
 800adc4:	065b      	lsls	r3, r3, #25
 800adc6:	f53f af1d 	bmi.w	800ac04 <_vfiprintf_r+0x44>
 800adca:	9809      	ldr	r0, [sp, #36]	; 0x24
 800adcc:	e71c      	b.n	800ac08 <_vfiprintf_r+0x48>
 800adce:	ab03      	add	r3, sp, #12
 800add0:	9300      	str	r3, [sp, #0]
 800add2:	462a      	mov	r2, r5
 800add4:	4b05      	ldr	r3, [pc, #20]	; (800adec <_vfiprintf_r+0x22c>)
 800add6:	a904      	add	r1, sp, #16
 800add8:	4630      	mov	r0, r6
 800adda:	f000 f879 	bl	800aed0 <_printf_i>
 800adde:	e7e4      	b.n	800adaa <_vfiprintf_r+0x1ea>
 800ade0:	0800dd9a 	.word	0x0800dd9a
 800ade4:	0800dda4 	.word	0x0800dda4
 800ade8:	00000000 	.word	0x00000000
 800adec:	0800ab9b 	.word	0x0800ab9b
 800adf0:	0800dda0 	.word	0x0800dda0

0800adf4 <_printf_common>:
 800adf4:	e92d 47f0 	stmdb	sp!, {r4, r5, r6, r7, r8, r9, sl, lr}
 800adf8:	4616      	mov	r6, r2
 800adfa:	4699      	mov	r9, r3
 800adfc:	688a      	ldr	r2, [r1, #8]
 800adfe:	690b      	ldr	r3, [r1, #16]
 800ae00:	f8dd 8020 	ldr.w	r8, [sp, #32]
 800ae04:	4293      	cmp	r3, r2
 800ae06:	bfb8      	it	lt
 800ae08:	4613      	movlt	r3, r2
 800ae0a:	6033      	str	r3, [r6, #0]
 800ae0c:	f891 2043 	ldrb.w	r2, [r1, #67]	; 0x43
 800ae10:	4607      	mov	r7, r0
 800ae12:	460c      	mov	r4, r1
 800ae14:	b10a      	cbz	r2, 800ae1a <_printf_common+0x26>
 800ae16:	3301      	adds	r3, #1
 800ae18:	6033      	str	r3, [r6, #0]
 800ae1a:	6823      	ldr	r3, [r4, #0]
 800ae1c:	0699      	lsls	r1, r3, #26
 800ae1e:	bf42      	ittt	mi
 800ae20:	6833      	ldrmi	r3, [r6, #0]
 800ae22:	3302      	addmi	r3, #2
 800ae24:	6033      	strmi	r3, [r6, #0]
 800ae26:	6825      	ldr	r5, [r4, #0]
 800ae28:	f015 0506 	ands.w	r5, r5, #6
 800ae2c:	d106      	bne.n	800ae3c <_printf_common+0x48>
 800ae2e:	f104 0a19 	add.w	sl, r4, #25
 800ae32:	68e3      	ldr	r3, [r4, #12]
 800ae34:	6832      	ldr	r2, [r6, #0]
 800ae36:	1a9b      	subs	r3, r3, r2
 800ae38:	42ab      	cmp	r3, r5
 800ae3a:	dc26      	bgt.n	800ae8a <_printf_common+0x96>
 800ae3c:	f894 2043 	ldrb.w	r2, [r4, #67]	; 0x43
 800ae40:	1e13      	subs	r3, r2, #0
 800ae42:	6822      	ldr	r2, [r4, #0]
 800ae44:	bf18      	it	ne
 800ae46:	2301      	movne	r3, #1
 800ae48:	0692      	lsls	r2, r2, #26
 800ae4a:	d42b      	bmi.n	800aea4 <_printf_common+0xb0>
 800ae4c:	f104 0243 	add.w	r2, r4, #67	; 0x43
 800ae50:	4649      	mov	r1, r9
 800ae52:	4638      	mov	r0, r7
 800ae54:	47c0      	blx	r8
 800ae56:	3001      	adds	r0, #1
 800ae58:	d01e      	beq.n	800ae98 <_printf_common+0xa4>
 800ae5a:	6823      	ldr	r3, [r4, #0]
 800ae5c:	6922      	ldr	r2, [r4, #16]
 800ae5e:	f003 0306 	and.w	r3, r3, #6
 800ae62:	2b04      	cmp	r3, #4
 800ae64:	bf02      	ittt	eq
 800ae66:	68e5      	ldreq	r5, [r4, #12]
 800ae68:	6833      	ldreq	r3, [r6, #0]
 800ae6a:	1aed      	subeq	r5, r5, r3
 800ae6c:	68a3      	ldr	r3, [r4, #8]
 800ae6e:	bf0c      	ite	eq
 800ae70:	ea25 75e5 	biceq.w	r5, r5, r5, asr #31
 800ae74:	2500      	movne	r5, #0
 800ae76:	4293      	cmp	r3, r2
 800ae78:	bfc4      	itt	gt
 800ae7a:	1a9b      	subgt	r3, r3, r2
 800ae7c:	18ed      	addgt	r5, r5, r3
 800ae7e:	2600      	movs	r6, #0
 800ae80:	341a      	adds	r4, #26
 800ae82:	42b5      	cmp	r5, r6
 800ae84:	d11a      	bne.n	800aebc <_printf_common+0xc8>
 800ae86:	2000      	movs	r0, #0
 800ae88:	e008      	b.n	800ae9c <_printf_common+0xa8>
 800ae8a:	2301      	movs	r3, #1
 800ae8c:	4652      	mov	r2, sl
 800ae8e:	4649      	mov	r1, r9
 800ae90:	4638      	mov	r0, r7
 800ae92:	47c0      	blx	r8
 800ae94:	3001      	adds	r0, #1
 800ae96:	d103      	bne.n	800aea0 <_printf_common+0xac>
 800ae98:	f04f 30ff 	mov.w	r0, #4294967295
 800ae9c:	e8bd 87f0 	ldmia.w	sp!, {r4, r5, r6, r7, r8, r9, sl, pc}
 800aea0:	3501      	adds	r5, #1
 800aea2:	e7c6      	b.n	800ae32 <_printf_common+0x3e>
 800aea4:	18e1      	adds	r1, r4, r3
 800aea6:	1c5a      	adds	r2, r3, #1
 800aea8:	2030      	movs	r0, #48	; 0x30
 800aeaa:	f881 0043 	strb.w	r0, [r1, #67]	; 0x43
 800aeae:	4422      	add	r2, r4
 800aeb0:	f894 1045 	ldrb.w	r1, [r4, #69]	; 0x45
 800aeb4:	f882 1043 	strb.w	r1, [r2, #67]	; 0x43
 800aeb8:	3302      	adds	r3, #2
 800aeba:	e7c7      	b.n	800ae4c <_printf_common+0x58>
 800aebc:	2301      	movs	r3, #1
 800aebe:	4622      	mov	r2, r4
 800aec0:	4649      	mov	r1, r9
 800aec2:	4638      	mov	r0, r7
 800aec4:	47c0      	blx	r8
 800aec6:	3001      	adds	r0, #1
 800aec8:	d0e6      	beq.n	800ae98 <_printf_common+0xa4>
 800aeca:	3601      	adds	r6, #1
 800aecc:	e7d9      	b.n	800ae82 <_printf_common+0x8e>
	...

0800aed0 <_printf_i>:
 800aed0:	e92d 47ff 	stmdb	sp!, {r0, r1, r2, r3, r4, r5, r6, r7, r8, r9, sl, lr}
 800aed4:	7e0f      	ldrb	r7, [r1, #24]
 800aed6:	9d0c      	ldr	r5, [sp, #48]	; 0x30
 800aed8:	2f78      	cmp	r7, #120	; 0x78
 800aeda:	4691      	mov	r9, r2
 800aedc:	4680      	mov	r8, r0
 800aede:	460c      	mov	r4, r1
 800aee0:	469a      	mov	sl, r3
 800aee2:	f101 0243 	add.w	r2, r1, #67	; 0x43
 800aee6:	d807      	bhi.n	800aef8 <_printf_i+0x28>
 800aee8:	2f62      	cmp	r7, #98	; 0x62
 800aeea:	d80a      	bhi.n	800af02 <_printf_i+0x32>
 800aeec:	2f00      	cmp	r7, #0
 800aeee:	f000 80d4 	beq.w	800b09a <_printf_i+0x1ca>
 800aef2:	2f58      	cmp	r7, #88	; 0x58
 800aef4:	f000 80c0 	beq.w	800b078 <_printf_i+0x1a8>
 800aef8:	f104 0542 	add.w	r5, r4, #66	; 0x42
 800aefc:	f884 7042 	strb.w	r7, [r4, #66]	; 0x42
 800af00:	e03a      	b.n	800af78 <_printf_i+0xa8>
 800af02:	f1a7 0363 	sub.w	r3, r7, #99	; 0x63
 800af06:	2b15      	cmp	r3, #21
 800af08:	d8f6      	bhi.n	800aef8 <_printf_i+0x28>
 800af0a:	a101      	add	r1, pc, #4	; (adr r1, 800af10 <_printf_i+0x40>)
 800af0c:	f851 f023 	ldr.w	pc, [r1, r3, lsl #2]
 800af10:	0800af69 	.word	0x0800af69
 800af14:	0800af7d 	.word	0x0800af7d
 800af18:	0800aef9 	.word	0x0800aef9
 800af1c:	0800aef9 	.word	0x0800aef9
 800af20:	0800aef9 	.word	0x0800aef9
 800af24:	0800aef9 	.word	0x0800aef9
 800af28:	0800af7d 	.word	0x0800af7d
 800af2c:	0800aef9 	.word	0x0800aef9
 800af30:	0800aef9 	.word	0x0800aef9
 800af34:	0800aef9 	.word	0x0800aef9
 800af38:	0800aef9 	.word	0x0800aef9
 800af3c:	0800b081 	.word	0x0800b081
 800af40:	0800afa9 	.word	0x0800afa9
 800af44:	0800b03b 	.word	0x0800b03b
 800af48:	0800aef9 	.word	0x0800aef9
 800af4c:	0800aef9 	.word	0x0800aef9
 800af50:	0800b0a3 	.word	0x0800b0a3
 800af54:	0800aef9 	.word	0x0800aef9
 800af58:	0800afa9 	.word	0x0800afa9
 800af5c:	0800aef9 	.word	0x0800aef9
 800af60:	0800aef9 	.word	0x0800aef9
 800af64:	0800b043 	.word	0x0800b043
 800af68:	682b      	ldr	r3, [r5, #0]
 800af6a:	1d1a      	adds	r2, r3, #4
 800af6c:	681b      	ldr	r3, [r3, #0]
 800af6e:	602a      	str	r2, [r5, #0]
 800af70:	f104 0542 	add.w	r5, r4, #66	; 0x42
 800af74:	f884 3042 	strb.w	r3, [r4, #66]	; 0x42
 800af78:	2301      	movs	r3, #1
 800af7a:	e09f      	b.n	800b0bc <_printf_i+0x1ec>
 800af7c:	6820      	ldr	r0, [r4, #0]
 800af7e:	682b      	ldr	r3, [r5, #0]
 800af80:	0607      	lsls	r7, r0, #24
 800af82:	f103 0104 	add.w	r1, r3, #4
 800af86:	6029      	str	r1, [r5, #0]
 800af88:	d501      	bpl.n	800af8e <_printf_i+0xbe>
 800af8a:	681e      	ldr	r6, [r3, #0]
 800af8c:	e003      	b.n	800af96 <_printf_i+0xc6>
 800af8e:	0646      	lsls	r6, r0, #25
 800af90:	d5fb      	bpl.n	800af8a <_printf_i+0xba>
 800af92:	f9b3 6000 	ldrsh.w	r6, [r3]
 800af96:	2e00      	cmp	r6, #0
 800af98:	da03      	bge.n	800afa2 <_printf_i+0xd2>
 800af9a:	232d      	movs	r3, #45	; 0x2d
 800af9c:	4276      	negs	r6, r6
 800af9e:	f884 3043 	strb.w	r3, [r4, #67]	; 0x43
 800afa2:	485a      	ldr	r0, [pc, #360]	; (800b10c <_printf_i+0x23c>)
 800afa4:	230a      	movs	r3, #10
 800afa6:	e012      	b.n	800afce <_printf_i+0xfe>
 800afa8:	682b      	ldr	r3, [r5, #0]
 800afaa:	6820      	ldr	r0, [r4, #0]
 800afac:	1d19      	adds	r1, r3, #4
 800afae:	6029      	str	r1, [r5, #0]
 800afb0:	0605      	lsls	r5, r0, #24
 800afb2:	d501      	bpl.n	800afb8 <_printf_i+0xe8>
 800afb4:	681e      	ldr	r6, [r3, #0]
 800afb6:	e002      	b.n	800afbe <_printf_i+0xee>
 800afb8:	0641      	lsls	r1, r0, #25
 800afba:	d5fb      	bpl.n	800afb4 <_printf_i+0xe4>
 800afbc:	881e      	ldrh	r6, [r3, #0]
 800afbe:	4853      	ldr	r0, [pc, #332]	; (800b10c <_printf_i+0x23c>)
 800afc0:	2f6f      	cmp	r7, #111	; 0x6f
 800afc2:	bf0c      	ite	eq
 800afc4:	2308      	moveq	r3, #8
 800afc6:	230a      	movne	r3, #10
 800afc8:	2100      	movs	r1, #0
 800afca:	f884 1043 	strb.w	r1, [r4, #67]	; 0x43
 800afce:	6865      	ldr	r5, [r4, #4]
 800afd0:	60a5      	str	r5, [r4, #8]
 800afd2:	2d00      	cmp	r5, #0
 800afd4:	bfa2      	ittt	ge
 800afd6:	6821      	ldrge	r1, [r4, #0]
 800afd8:	f021 0104 	bicge.w	r1, r1, #4
 800afdc:	6021      	strge	r1, [r4, #0]
 800afde:	b90e      	cbnz	r6, 800afe4 <_printf_i+0x114>
 800afe0:	2d00      	cmp	r5, #0
 800afe2:	d04b      	beq.n	800b07c <_printf_i+0x1ac>
 800afe4:	4615      	mov	r5, r2
 800afe6:	fbb6 f1f3 	udiv	r1, r6, r3
 800afea:	fb03 6711 	mls	r7, r3, r1, r6
 800afee:	5dc7      	ldrb	r7, [r0, r7]
 800aff0:	f805 7d01 	strb.w	r7, [r5, #-1]!
 800aff4:	4637      	mov	r7, r6
 800aff6:	42bb      	cmp	r3, r7
 800aff8:	460e      	mov	r6, r1
 800affa:	d9f4      	bls.n	800afe6 <_printf_i+0x116>
 800affc:	2b08      	cmp	r3, #8
 800affe:	d10b      	bne.n	800b018 <_printf_i+0x148>
 800b000:	6823      	ldr	r3, [r4, #0]
 800b002:	07de      	lsls	r6, r3, #31
 800b004:	d508      	bpl.n	800b018 <_printf_i+0x148>
 800b006:	6923      	ldr	r3, [r4, #16]
 800b008:	6861      	ldr	r1, [r4, #4]
 800b00a:	4299      	cmp	r1, r3
 800b00c:	bfde      	ittt	le
 800b00e:	2330      	movle	r3, #48	; 0x30
 800b010:	f805 3c01 	strble.w	r3, [r5, #-1]
 800b014:	f105 35ff 	addle.w	r5, r5, #4294967295
 800b018:	1b52      	subs	r2, r2, r5
 800b01a:	6122      	str	r2, [r4, #16]
 800b01c:	f8cd a000 	str.w	sl, [sp]
 800b020:	464b      	mov	r3, r9
 800b022:	aa03      	add	r2, sp, #12
 800b024:	4621      	mov	r1, r4
 800b026:	4640      	mov	r0, r8
 800b028:	f7ff fee4 	bl	800adf4 <_printf_common>
 800b02c:	3001      	adds	r0, #1
 800b02e:	d14a      	bne.n	800b0c6 <_printf_i+0x1f6>
 800b030:	f04f 30ff 	mov.w	r0, #4294967295
 800b034:	b004      	add	sp, #16
 800b036:	e8bd 87f0 	ldmia.w	sp!, {r4, r5, r6, r7, r8, r9, sl, pc}
 800b03a:	6823      	ldr	r3, [r4, #0]
 800b03c:	f043 0320 	orr.w	r3, r3, #32
 800b040:	6023      	str	r3, [r4, #0]
 800b042:	4833      	ldr	r0, [pc, #204]	; (800b110 <_printf_i+0x240>)
 800b044:	2778      	movs	r7, #120	; 0x78
 800b046:	f884 7045 	strb.w	r7, [r4, #69]	; 0x45
 800b04a:	6823      	ldr	r3, [r4, #0]
 800b04c:	6829      	ldr	r1, [r5, #0]
 800b04e:	061f      	lsls	r7, r3, #24
 800b050:	f851 6b04 	ldr.w	r6, [r1], #4
 800b054:	d402      	bmi.n	800b05c <_printf_i+0x18c>
 800b056:	065f      	lsls	r7, r3, #25
 800b058:	bf48      	it	mi
 800b05a:	b2b6      	uxthmi	r6, r6
 800b05c:	07df      	lsls	r7, r3, #31
 800b05e:	bf48      	it	mi
 800b060:	f043 0320 	orrmi.w	r3, r3, #32
 800b064:	6029      	str	r1, [r5, #0]
 800b066:	bf48      	it	mi
 800b068:	6023      	strmi	r3, [r4, #0]
 800b06a:	b91e      	cbnz	r6, 800b074 <_printf_i+0x1a4>
 800b06c:	6823      	ldr	r3, [r4, #0]
 800b06e:	f023 0320 	bic.w	r3, r3, #32
 800b072:	6023      	str	r3, [r4, #0]
 800b074:	2310      	movs	r3, #16
 800b076:	e7a7      	b.n	800afc8 <_printf_i+0xf8>
 800b078:	4824      	ldr	r0, [pc, #144]	; (800b10c <_printf_i+0x23c>)
 800b07a:	e7e4      	b.n	800b046 <_printf_i+0x176>
 800b07c:	4615      	mov	r5, r2
 800b07e:	e7bd      	b.n	800affc <_printf_i+0x12c>
 800b080:	682b      	ldr	r3, [r5, #0]
 800b082:	6826      	ldr	r6, [r4, #0]
 800b084:	6961      	ldr	r1, [r4, #20]
 800b086:	1d18      	adds	r0, r3, #4
 800b088:	6028      	str	r0, [r5, #0]
 800b08a:	0635      	lsls	r5, r6, #24
 800b08c:	681b      	ldr	r3, [r3, #0]
 800b08e:	d501      	bpl.n	800b094 <_printf_i+0x1c4>
 800b090:	6019      	str	r1, [r3, #0]
 800b092:	e002      	b.n	800b09a <_printf_i+0x1ca>
 800b094:	0670      	lsls	r0, r6, #25
 800b096:	d5fb      	bpl.n	800b090 <_printf_i+0x1c0>
 800b098:	8019      	strh	r1, [r3, #0]
 800b09a:	2300      	movs	r3, #0
 800b09c:	6123      	str	r3, [r4, #16]
 800b09e:	4615      	mov	r5, r2
 800b0a0:	e7bc      	b.n	800b01c <_printf_i+0x14c>
 800b0a2:	682b      	ldr	r3, [r5, #0]
 800b0a4:	1d1a      	adds	r2, r3, #4
 800b0a6:	602a      	str	r2, [r5, #0]
 800b0a8:	681d      	ldr	r5, [r3, #0]
 800b0aa:	6862      	ldr	r2, [r4, #4]
 800b0ac:	2100      	movs	r1, #0
 800b0ae:	4628      	mov	r0, r5
 800b0b0:	f7f5 f8c6 	bl	8000240 <memchr>
 800b0b4:	b108      	cbz	r0, 800b0ba <_printf_i+0x1ea>
 800b0b6:	1b40      	subs	r0, r0, r5
 800b0b8:	6060      	str	r0, [r4, #4]
 800b0ba:	6863      	ldr	r3, [r4, #4]
 800b0bc:	6123      	str	r3, [r4, #16]
 800b0be:	2300      	movs	r3, #0
 800b0c0:	f884 3043 	strb.w	r3, [r4, #67]	; 0x43
 800b0c4:	e7aa      	b.n	800b01c <_printf_i+0x14c>
 800b0c6:	6923      	ldr	r3, [r4, #16]
 800b0c8:	462a      	mov	r2, r5
 800b0ca:	4649      	mov	r1, r9
 800b0cc:	4640      	mov	r0, r8
 800b0ce:	47d0      	blx	sl
 800b0d0:	3001      	adds	r0, #1
 800b0d2:	d0ad      	beq.n	800b030 <_printf_i+0x160>
 800b0d4:	6823      	ldr	r3, [r4, #0]
 800b0d6:	079b      	lsls	r3, r3, #30
 800b0d8:	d413      	bmi.n	800b102 <_printf_i+0x232>
 800b0da:	68e0      	ldr	r0, [r4, #12]
 800b0dc:	9b03      	ldr	r3, [sp, #12]
 800b0de:	4298      	cmp	r0, r3
 800b0e0:	bfb8      	it	lt
 800b0e2:	4618      	movlt	r0, r3
 800b0e4:	e7a6      	b.n	800b034 <_printf_i+0x164>
 800b0e6:	2301      	movs	r3, #1
 800b0e8:	4632      	mov	r2, r6
 800b0ea:	4649      	mov	r1, r9
 800b0ec:	4640      	mov	r0, r8
 800b0ee:	47d0      	blx	sl
 800b0f0:	3001      	adds	r0, #1
 800b0f2:	d09d      	beq.n	800b030 <_printf_i+0x160>
 800b0f4:	3501      	adds	r5, #1
 800b0f6:	68e3      	ldr	r3, [r4, #12]
 800b0f8:	9903      	ldr	r1, [sp, #12]
 800b0fa:	1a5b      	subs	r3, r3, r1
 800b0fc:	42ab      	cmp	r3, r5
 800b0fe:	dcf2      	bgt.n	800b0e6 <_printf_i+0x216>
 800b100:	e7eb      	b.n	800b0da <_printf_i+0x20a>
 800b102:	2500      	movs	r5, #0
 800b104:	f104 0619 	add.w	r6, r4, #25
 800b108:	e7f5      	b.n	800b0f6 <_printf_i+0x226>
 800b10a:	bf00      	nop
 800b10c:	0800ddab 	.word	0x0800ddab
 800b110:	0800ddbc 	.word	0x0800ddbc

0800b114 <__sflush_r>:
 800b114:	898a      	ldrh	r2, [r1, #12]
 800b116:	e92d 41f0 	stmdb	sp!, {r4, r5, r6, r7, r8, lr}
 800b11a:	4605      	mov	r5, r0
 800b11c:	0710      	lsls	r0, r2, #28
 800b11e:	460c      	mov	r4, r1
 800b120:	d458      	bmi.n	800b1d4 <__sflush_r+0xc0>
 800b122:	684b      	ldr	r3, [r1, #4]
 800b124:	2b00      	cmp	r3, #0
 800b126:	dc05      	bgt.n	800b134 <__sflush_r+0x20>
 800b128:	6c0b      	ldr	r3, [r1, #64]	; 0x40
 800b12a:	2b00      	cmp	r3, #0
 800b12c:	dc02      	bgt.n	800b134 <__sflush_r+0x20>
 800b12e:	2000      	movs	r0, #0
 800b130:	e8bd 81f0 	ldmia.w	sp!, {r4, r5, r6, r7, r8, pc}
 800b134:	6ae6      	ldr	r6, [r4, #44]	; 0x2c
 800b136:	2e00      	cmp	r6, #0
 800b138:	d0f9      	beq.n	800b12e <__sflush_r+0x1a>
 800b13a:	2300      	movs	r3, #0
 800b13c:	f412 5280 	ands.w	r2, r2, #4096	; 0x1000
 800b140:	682f      	ldr	r7, [r5, #0]
 800b142:	6a21      	ldr	r1, [r4, #32]
 800b144:	602b      	str	r3, [r5, #0]
 800b146:	d032      	beq.n	800b1ae <__sflush_r+0x9a>
 800b148:	6d60      	ldr	r0, [r4, #84]	; 0x54
 800b14a:	89a3      	ldrh	r3, [r4, #12]
 800b14c:	075a      	lsls	r2, r3, #29
 800b14e:	d505      	bpl.n	800b15c <__sflush_r+0x48>
 800b150:	6863      	ldr	r3, [r4, #4]
 800b152:	1ac0      	subs	r0, r0, r3
 800b154:	6b63      	ldr	r3, [r4, #52]	; 0x34
 800b156:	b10b      	cbz	r3, 800b15c <__sflush_r+0x48>
 800b158:	6c23      	ldr	r3, [r4, #64]	; 0x40
 800b15a:	1ac0      	subs	r0, r0, r3
 800b15c:	2300      	movs	r3, #0
 800b15e:	4602      	mov	r2, r0
 800b160:	6ae6      	ldr	r6, [r4, #44]	; 0x2c
 800b162:	6a21      	ldr	r1, [r4, #32]
 800b164:	4628      	mov	r0, r5
 800b166:	47b0      	blx	r6
 800b168:	1c43      	adds	r3, r0, #1
 800b16a:	89a3      	ldrh	r3, [r4, #12]
 800b16c:	d106      	bne.n	800b17c <__sflush_r+0x68>
 800b16e:	6829      	ldr	r1, [r5, #0]
 800b170:	291d      	cmp	r1, #29
 800b172:	d82b      	bhi.n	800b1cc <__sflush_r+0xb8>
 800b174:	4a29      	ldr	r2, [pc, #164]	; (800b21c <__sflush_r+0x108>)
 800b176:	410a      	asrs	r2, r1
 800b178:	07d6      	lsls	r6, r2, #31
 800b17a:	d427      	bmi.n	800b1cc <__sflush_r+0xb8>
 800b17c:	2200      	movs	r2, #0
 800b17e:	6062      	str	r2, [r4, #4]
 800b180:	04d9      	lsls	r1, r3, #19
 800b182:	6922      	ldr	r2, [r4, #16]
 800b184:	6022      	str	r2, [r4, #0]
 800b186:	d504      	bpl.n	800b192 <__sflush_r+0x7e>
 800b188:	1c42      	adds	r2, r0, #1
 800b18a:	d101      	bne.n	800b190 <__sflush_r+0x7c>
 800b18c:	682b      	ldr	r3, [r5, #0]
 800b18e:	b903      	cbnz	r3, 800b192 <__sflush_r+0x7e>
 800b190:	6560      	str	r0, [r4, #84]	; 0x54
 800b192:	6b61      	ldr	r1, [r4, #52]	; 0x34
 800b194:	602f      	str	r7, [r5, #0]
 800b196:	2900      	cmp	r1, #0
 800b198:	d0c9      	beq.n	800b12e <__sflush_r+0x1a>
 800b19a:	f104 0344 	add.w	r3, r4, #68	; 0x44
 800b19e:	4299      	cmp	r1, r3
 800b1a0:	d002      	beq.n	800b1a8 <__sflush_r+0x94>
 800b1a2:	4628      	mov	r0, r5
 800b1a4:	f7ff fb18 	bl	800a7d8 <_free_r>
 800b1a8:	2000      	movs	r0, #0
 800b1aa:	6360      	str	r0, [r4, #52]	; 0x34
 800b1ac:	e7c0      	b.n	800b130 <__sflush_r+0x1c>
 800b1ae:	2301      	movs	r3, #1
 800b1b0:	4628      	mov	r0, r5
 800b1b2:	47b0      	blx	r6
 800b1b4:	1c41      	adds	r1, r0, #1
 800b1b6:	d1c8      	bne.n	800b14a <__sflush_r+0x36>
 800b1b8:	682b      	ldr	r3, [r5, #0]
 800b1ba:	2b00      	cmp	r3, #0
 800b1bc:	d0c5      	beq.n	800b14a <__sflush_r+0x36>
 800b1be:	2b1d      	cmp	r3, #29
 800b1c0:	d001      	beq.n	800b1c6 <__sflush_r+0xb2>
 800b1c2:	2b16      	cmp	r3, #22
 800b1c4:	d101      	bne.n	800b1ca <__sflush_r+0xb6>
 800b1c6:	602f      	str	r7, [r5, #0]
 800b1c8:	e7b1      	b.n	800b12e <__sflush_r+0x1a>
 800b1ca:	89a3      	ldrh	r3, [r4, #12]
 800b1cc:	f043 0340 	orr.w	r3, r3, #64	; 0x40
 800b1d0:	81a3      	strh	r3, [r4, #12]
 800b1d2:	e7ad      	b.n	800b130 <__sflush_r+0x1c>
 800b1d4:	690f      	ldr	r7, [r1, #16]
 800b1d6:	2f00      	cmp	r7, #0
 800b1d8:	d0a9      	beq.n	800b12e <__sflush_r+0x1a>
 800b1da:	0793      	lsls	r3, r2, #30
 800b1dc:	680e      	ldr	r6, [r1, #0]
 800b1de:	bf08      	it	eq
 800b1e0:	694b      	ldreq	r3, [r1, #20]
 800b1e2:	600f      	str	r7, [r1, #0]
 800b1e4:	bf18      	it	ne
 800b1e6:	2300      	movne	r3, #0
 800b1e8:	eba6 0807 	sub.w	r8, r6, r7
 800b1ec:	608b      	str	r3, [r1, #8]
 800b1ee:	f1b8 0f00 	cmp.w	r8, #0
 800b1f2:	dd9c      	ble.n	800b12e <__sflush_r+0x1a>
 800b1f4:	6a21      	ldr	r1, [r4, #32]
 800b1f6:	6aa6      	ldr	r6, [r4, #40]	; 0x28
 800b1f8:	4643      	mov	r3, r8
 800b1fa:	463a      	mov	r2, r7
 800b1fc:	4628      	mov	r0, r5
 800b1fe:	47b0      	blx	r6
 800b200:	2800      	cmp	r0, #0
 800b202:	dc06      	bgt.n	800b212 <__sflush_r+0xfe>
 800b204:	89a3      	ldrh	r3, [r4, #12]
 800b206:	f043 0340 	orr.w	r3, r3, #64	; 0x40
 800b20a:	81a3      	strh	r3, [r4, #12]
 800b20c:	f04f 30ff 	mov.w	r0, #4294967295
 800b210:	e78e      	b.n	800b130 <__sflush_r+0x1c>
 800b212:	4407      	add	r7, r0
 800b214:	eba8 0800 	sub.w	r8, r8, r0
 800b218:	e7e9      	b.n	800b1ee <__sflush_r+0xda>
 800b21a:	bf00      	nop
 800b21c:	dfbffffe 	.word	0xdfbffffe

0800b220 <_fflush_r>:
 800b220:	b538      	push	{r3, r4, r5, lr}
 800b222:	690b      	ldr	r3, [r1, #16]
 800b224:	4605      	mov	r5, r0
 800b226:	460c      	mov	r4, r1
 800b228:	b913      	cbnz	r3, 800b230 <_fflush_r+0x10>
 800b22a:	2500      	movs	r5, #0
 800b22c:	4628      	mov	r0, r5
 800b22e:	bd38      	pop	{r3, r4, r5, pc}
 800b230:	b118      	cbz	r0, 800b23a <_fflush_r+0x1a>
 800b232:	6a03      	ldr	r3, [r0, #32]
 800b234:	b90b      	cbnz	r3, 800b23a <_fflush_r+0x1a>
 800b236:	f7fe fc0f 	bl	8009a58 <__sinit>
 800b23a:	f9b4 300c 	ldrsh.w	r3, [r4, #12]
 800b23e:	2b00      	cmp	r3, #0
 800b240:	d0f3      	beq.n	800b22a <_fflush_r+0xa>
 800b242:	6e62      	ldr	r2, [r4, #100]	; 0x64
 800b244:	07d0      	lsls	r0, r2, #31
 800b246:	d404      	bmi.n	800b252 <_fflush_r+0x32>
 800b248:	0599      	lsls	r1, r3, #22
 800b24a:	d402      	bmi.n	800b252 <_fflush_r+0x32>
 800b24c:	6da0      	ldr	r0, [r4, #88]	; 0x58
 800b24e:	f7ff fa77 	bl	800a740 <__retarget_lock_acquire_recursive>
 800b252:	4628      	mov	r0, r5
 800b254:	4621      	mov	r1, r4
 800b256:	f7ff ff5d 	bl	800b114 <__sflush_r>
 800b25a:	6e63      	ldr	r3, [r4, #100]	; 0x64
 800b25c:	07da      	lsls	r2, r3, #31
 800b25e:	4605      	mov	r5, r0
 800b260:	d4e4      	bmi.n	800b22c <_fflush_r+0xc>
 800b262:	89a3      	ldrh	r3, [r4, #12]
 800b264:	059b      	lsls	r3, r3, #22
 800b266:	d4e1      	bmi.n	800b22c <_fflush_r+0xc>
 800b268:	6da0      	ldr	r0, [r4, #88]	; 0x58
 800b26a:	f7ff fa6b 	bl	800a744 <__retarget_lock_release_recursive>
 800b26e:	e7dd      	b.n	800b22c <_fflush_r+0xc>

0800b270 <fiprintf>:
 800b270:	b40e      	push	{r1, r2, r3}
 800b272:	b503      	push	{r0, r1, lr}
 800b274:	4601      	mov	r1, r0
 800b276:	ab03      	add	r3, sp, #12
 800b278:	4805      	ldr	r0, [pc, #20]	; (800b290 <fiprintf+0x20>)
 800b27a:	f853 2b04 	ldr.w	r2, [r3], #4
 800b27e:	6800      	ldr	r0, [r0, #0]
 800b280:	9301      	str	r3, [sp, #4]
 800b282:	f7ff fc9d 	bl	800abc0 <_vfiprintf_r>
 800b286:	b002      	add	sp, #8
 800b288:	f85d eb04 	ldr.w	lr, [sp], #4
 800b28c:	b003      	add	sp, #12
 800b28e:	4770      	bx	lr
 800b290:	2000008c 	.word	0x2000008c

0800b294 <siscanf>:
 800b294:	b40e      	push	{r1, r2, r3}
 800b296:	b510      	push	{r4, lr}
 800b298:	b09f      	sub	sp, #124	; 0x7c
 800b29a:	ac21      	add	r4, sp, #132	; 0x84
 800b29c:	f44f 7101 	mov.w	r1, #516	; 0x204
 800b2a0:	f854 2b04 	ldr.w	r2, [r4], #4
 800b2a4:	9201      	str	r2, [sp, #4]
 800b2a6:	f8ad 101c 	strh.w	r1, [sp, #28]
 800b2aa:	9004      	str	r0, [sp, #16]
 800b2ac:	9008      	str	r0, [sp, #32]
 800b2ae:	f7f4 ffb9 	bl	8000224 <strlen>
 800b2b2:	4b0c      	ldr	r3, [pc, #48]	; (800b2e4 <siscanf+0x50>)
 800b2b4:	9005      	str	r0, [sp, #20]
 800b2b6:	9009      	str	r0, [sp, #36]	; 0x24
 800b2b8:	930d      	str	r3, [sp, #52]	; 0x34
 800b2ba:	480b      	ldr	r0, [pc, #44]	; (800b2e8 <siscanf+0x54>)
 800b2bc:	9a01      	ldr	r2, [sp, #4]
 800b2be:	6800      	ldr	r0, [r0, #0]
 800b2c0:	9403      	str	r4, [sp, #12]
 800b2c2:	2300      	movs	r3, #0
 800b2c4:	9311      	str	r3, [sp, #68]	; 0x44
 800b2c6:	9316      	str	r3, [sp, #88]	; 0x58
 800b2c8:	f64f 73ff 	movw	r3, #65535	; 0xffff
 800b2cc:	f8ad 301e 	strh.w	r3, [sp, #30]
 800b2d0:	a904      	add	r1, sp, #16
 800b2d2:	4623      	mov	r3, r4
 800b2d4:	f000 f952 	bl	800b57c <__ssvfiscanf_r>
 800b2d8:	b01f      	add	sp, #124	; 0x7c
 800b2da:	e8bd 4010 	ldmia.w	sp!, {r4, lr}
 800b2de:	b003      	add	sp, #12
 800b2e0:	4770      	bx	lr
 800b2e2:	bf00      	nop
 800b2e4:	08009b0b 	.word	0x08009b0b
 800b2e8:	2000008c 	.word	0x2000008c

0800b2ec <__swbuf_r>:
 800b2ec:	b5f8      	push	{r3, r4, r5, r6, r7, lr}
 800b2ee:	460e      	mov	r6, r1
 800b2f0:	4614      	mov	r4, r2
 800b2f2:	4605      	mov	r5, r0
 800b2f4:	b118      	cbz	r0, 800b2fe <__swbuf_r+0x12>
 800b2f6:	6a03      	ldr	r3, [r0, #32]
 800b2f8:	b90b      	cbnz	r3, 800b2fe <__swbuf_r+0x12>
 800b2fa:	f7fe fbad 	bl	8009a58 <__sinit>
 800b2fe:	69a3      	ldr	r3, [r4, #24]
 800b300:	60a3      	str	r3, [r4, #8]
 800b302:	89a3      	ldrh	r3, [r4, #12]
 800b304:	071a      	lsls	r2, r3, #28
 800b306:	d525      	bpl.n	800b354 <__swbuf_r+0x68>
 800b308:	6923      	ldr	r3, [r4, #16]
 800b30a:	b31b      	cbz	r3, 800b354 <__swbuf_r+0x68>
 800b30c:	6823      	ldr	r3, [r4, #0]
 800b30e:	6922      	ldr	r2, [r4, #16]
 800b310:	1a98      	subs	r0, r3, r2
 800b312:	6963      	ldr	r3, [r4, #20]
 800b314:	b2f6      	uxtb	r6, r6
 800b316:	4283      	cmp	r3, r0
 800b318:	4637      	mov	r7, r6
 800b31a:	dc04      	bgt.n	800b326 <__swbuf_r+0x3a>
 800b31c:	4621      	mov	r1, r4
 800b31e:	4628      	mov	r0, r5
 800b320:	f7ff ff7e 	bl	800b220 <_fflush_r>
 800b324:	b9e0      	cbnz	r0, 800b360 <__swbuf_r+0x74>
 800b326:	68a3      	ldr	r3, [r4, #8]
 800b328:	3b01      	subs	r3, #1
 800b32a:	60a3      	str	r3, [r4, #8]
 800b32c:	6823      	ldr	r3, [r4, #0]
 800b32e:	1c5a      	adds	r2, r3, #1
 800b330:	6022      	str	r2, [r4, #0]
 800b332:	701e      	strb	r6, [r3, #0]
 800b334:	6962      	ldr	r2, [r4, #20]
 800b336:	1c43      	adds	r3, r0, #1
 800b338:	429a      	cmp	r2, r3
 800b33a:	d004      	beq.n	800b346 <__swbuf_r+0x5a>
 800b33c:	89a3      	ldrh	r3, [r4, #12]
 800b33e:	07db      	lsls	r3, r3, #31
 800b340:	d506      	bpl.n	800b350 <__swbuf_r+0x64>
 800b342:	2e0a      	cmp	r6, #10
 800b344:	d104      	bne.n	800b350 <__swbuf_r+0x64>
 800b346:	4621      	mov	r1, r4
 800b348:	4628      	mov	r0, r5
 800b34a:	f7ff ff69 	bl	800b220 <_fflush_r>
 800b34e:	b938      	cbnz	r0, 800b360 <__swbuf_r+0x74>
 800b350:	4638      	mov	r0, r7
 800b352:	bdf8      	pop	{r3, r4, r5, r6, r7, pc}
 800b354:	4621      	mov	r1, r4
 800b356:	4628      	mov	r0, r5
 800b358:	f000 f806 	bl	800b368 <__swsetup_r>
 800b35c:	2800      	cmp	r0, #0
 800b35e:	d0d5      	beq.n	800b30c <__swbuf_r+0x20>
 800b360:	f04f 37ff 	mov.w	r7, #4294967295
 800b364:	e7f4      	b.n	800b350 <__swbuf_r+0x64>
	...

0800b368 <__swsetup_r>:
 800b368:	b538      	push	{r3, r4, r5, lr}
 800b36a:	4b2a      	ldr	r3, [pc, #168]	; (800b414 <__swsetup_r+0xac>)
 800b36c:	4605      	mov	r5, r0
 800b36e:	6818      	ldr	r0, [r3, #0]
 800b370:	460c      	mov	r4, r1
 800b372:	b118      	cbz	r0, 800b37c <__swsetup_r+0x14>
 800b374:	6a03      	ldr	r3, [r0, #32]
 800b376:	b90b      	cbnz	r3, 800b37c <__swsetup_r+0x14>
 800b378:	f7fe fb6e 	bl	8009a58 <__sinit>
 800b37c:	89a3      	ldrh	r3, [r4, #12]
 800b37e:	f9b4 200c 	ldrsh.w	r2, [r4, #12]
 800b382:	0718      	lsls	r0, r3, #28
 800b384:	d422      	bmi.n	800b3cc <__swsetup_r+0x64>
 800b386:	06d9      	lsls	r1, r3, #27
 800b388:	d407      	bmi.n	800b39a <__swsetup_r+0x32>
 800b38a:	2309      	movs	r3, #9
 800b38c:	602b      	str	r3, [r5, #0]
 800b38e:	f042 0340 	orr.w	r3, r2, #64	; 0x40
 800b392:	81a3      	strh	r3, [r4, #12]
 800b394:	f04f 30ff 	mov.w	r0, #4294967295
 800b398:	e034      	b.n	800b404 <__swsetup_r+0x9c>
 800b39a:	0758      	lsls	r0, r3, #29
 800b39c:	d512      	bpl.n	800b3c4 <__swsetup_r+0x5c>
 800b39e:	6b61      	ldr	r1, [r4, #52]	; 0x34
 800b3a0:	b141      	cbz	r1, 800b3b4 <__swsetup_r+0x4c>
 800b3a2:	f104 0344 	add.w	r3, r4, #68	; 0x44
 800b3a6:	4299      	cmp	r1, r3
 800b3a8:	d002      	beq.n	800b3b0 <__swsetup_r+0x48>
 800b3aa:	4628      	mov	r0, r5
 800b3ac:	f7ff fa14 	bl	800a7d8 <_free_r>
 800b3b0:	2300      	movs	r3, #0
 800b3b2:	6363      	str	r3, [r4, #52]	; 0x34
 800b3b4:	89a3      	ldrh	r3, [r4, #12]
 800b3b6:	f023 0324 	bic.w	r3, r3, #36	; 0x24
 800b3ba:	81a3      	strh	r3, [r4, #12]
 800b3bc:	2300      	movs	r3, #0
 800b3be:	6063      	str	r3, [r4, #4]
 800b3c0:	6923      	ldr	r3, [r4, #16]
 800b3c2:	6023      	str	r3, [r4, #0]
 800b3c4:	89a3      	ldrh	r3, [r4, #12]
 800b3c6:	f043 0308 	orr.w	r3, r3, #8
 800b3ca:	81a3      	strh	r3, [r4, #12]
 800b3cc:	6923      	ldr	r3, [r4, #16]
 800b3ce:	b94b      	cbnz	r3, 800b3e4 <__swsetup_r+0x7c>
 800b3d0:	89a3      	ldrh	r3, [r4, #12]
 800b3d2:	f403 7320 	and.w	r3, r3, #640	; 0x280
 800b3d6:	f5b3 7f00 	cmp.w	r3, #512	; 0x200
 800b3da:	d003      	beq.n	800b3e4 <__swsetup_r+0x7c>
 800b3dc:	4621      	mov	r1, r4
 800b3de:	4628      	mov	r0, r5
 800b3e0:	f000 fbb8 	bl	800bb54 <__smakebuf_r>
 800b3e4:	89a0      	ldrh	r0, [r4, #12]
 800b3e6:	f9b4 200c 	ldrsh.w	r2, [r4, #12]
 800b3ea:	f010 0301 	ands.w	r3, r0, #1
 800b3ee:	d00a      	beq.n	800b406 <__swsetup_r+0x9e>
 800b3f0:	2300      	movs	r3, #0
 800b3f2:	60a3      	str	r3, [r4, #8]
 800b3f4:	6963      	ldr	r3, [r4, #20]
 800b3f6:	425b      	negs	r3, r3
 800b3f8:	61a3      	str	r3, [r4, #24]
 800b3fa:	6923      	ldr	r3, [r4, #16]
 800b3fc:	b943      	cbnz	r3, 800b410 <__swsetup_r+0xa8>
 800b3fe:	f010 0080 	ands.w	r0, r0, #128	; 0x80
 800b402:	d1c4      	bne.n	800b38e <__swsetup_r+0x26>
 800b404:	bd38      	pop	{r3, r4, r5, pc}
 800b406:	0781      	lsls	r1, r0, #30
 800b408:	bf58      	it	pl
 800b40a:	6963      	ldrpl	r3, [r4, #20]
 800b40c:	60a3      	str	r3, [r4, #8]
 800b40e:	e7f4      	b.n	800b3fa <__swsetup_r+0x92>
 800b410:	2000      	movs	r0, #0
 800b412:	e7f7      	b.n	800b404 <__swsetup_r+0x9c>
 800b414:	2000008c 	.word	0x2000008c

0800b418 <__gettzinfo>:
 800b418:	4800      	ldr	r0, [pc, #0]	; (800b41c <__gettzinfo+0x4>)
 800b41a:	4770      	bx	lr
 800b41c:	20000090 	.word	0x20000090

0800b420 <_sbrk_r>:
 800b420:	b538      	push	{r3, r4, r5, lr}
 800b422:	4d06      	ldr	r5, [pc, #24]	; (800b43c <_sbrk_r+0x1c>)
 800b424:	2300      	movs	r3, #0
 800b426:	4604      	mov	r4, r0
 800b428:	4608      	mov	r0, r1
 800b42a:	602b      	str	r3, [r5, #0]
 800b42c:	f7f5 fbcc 	bl	8000bc8 <_sbrk>
 800b430:	1c43      	adds	r3, r0, #1
 800b432:	d102      	bne.n	800b43a <_sbrk_r+0x1a>
 800b434:	682b      	ldr	r3, [r5, #0]
 800b436:	b103      	cbz	r3, 800b43a <_sbrk_r+0x1a>
 800b438:	6023      	str	r3, [r4, #0]
 800b43a:	bd38      	pop	{r3, r4, r5, pc}
 800b43c:	2000ace4 	.word	0x2000ace4

0800b440 <abort>:
 800b440:	b508      	push	{r3, lr}
 800b442:	2006      	movs	r0, #6
 800b444:	f000 fc5e 	bl	800bd04 <raise>
 800b448:	2001      	movs	r0, #1
 800b44a:	f7f5 fb8f 	bl	8000b6c <_exit>
	...

0800b450 <__env_lock>:
 800b450:	4801      	ldr	r0, [pc, #4]	; (800b458 <__env_lock+0x8>)
 800b452:	f7ff b975 	b.w	800a740 <__retarget_lock_acquire_recursive>
 800b456:	bf00      	nop
 800b458:	2000ace8 	.word	0x2000ace8

0800b45c <__env_unlock>:
 800b45c:	4801      	ldr	r0, [pc, #4]	; (800b464 <__env_unlock+0x8>)
 800b45e:	f7ff b971 	b.w	800a744 <__retarget_lock_release_recursive>
 800b462:	bf00      	nop
 800b464:	2000ace8 	.word	0x2000ace8

0800b468 <_realloc_r>:
 800b468:	e92d 41f0 	stmdb	sp!, {r4, r5, r6, r7, r8, lr}
 800b46c:	4680      	mov	r8, r0
 800b46e:	4614      	mov	r4, r2
 800b470:	460e      	mov	r6, r1
 800b472:	b921      	cbnz	r1, 800b47e <_realloc_r+0x16>
 800b474:	e8bd 41f0 	ldmia.w	sp!, {r4, r5, r6, r7, r8, lr}
 800b478:	4611      	mov	r1, r2
 800b47a:	f7ff ba6d 	b.w	800a958 <_malloc_r>
 800b47e:	b92a      	cbnz	r2, 800b48c <_realloc_r+0x24>
 800b480:	f7ff f9aa 	bl	800a7d8 <_free_r>
 800b484:	4625      	mov	r5, r4
 800b486:	4628      	mov	r0, r5
 800b488:	e8bd 81f0 	ldmia.w	sp!, {r4, r5, r6, r7, r8, pc}
 800b48c:	f000 fc78 	bl	800bd80 <_malloc_usable_size_r>
 800b490:	4284      	cmp	r4, r0
 800b492:	4607      	mov	r7, r0
 800b494:	d802      	bhi.n	800b49c <_realloc_r+0x34>
 800b496:	ebb4 0f50 	cmp.w	r4, r0, lsr #1
 800b49a:	d812      	bhi.n	800b4c2 <_realloc_r+0x5a>
 800b49c:	4621      	mov	r1, r4
 800b49e:	4640      	mov	r0, r8
 800b4a0:	f7ff fa5a 	bl	800a958 <_malloc_r>
 800b4a4:	4605      	mov	r5, r0
 800b4a6:	2800      	cmp	r0, #0
 800b4a8:	d0ed      	beq.n	800b486 <_realloc_r+0x1e>
 800b4aa:	42bc      	cmp	r4, r7
 800b4ac:	4622      	mov	r2, r4
 800b4ae:	4631      	mov	r1, r6
 800b4b0:	bf28      	it	cs
 800b4b2:	463a      	movcs	r2, r7
 800b4b4:	f7ff f94f 	bl	800a756 <memcpy>
 800b4b8:	4631      	mov	r1, r6
 800b4ba:	4640      	mov	r0, r8
 800b4bc:	f7ff f98c 	bl	800a7d8 <_free_r>
 800b4c0:	e7e1      	b.n	800b486 <_realloc_r+0x1e>
 800b4c2:	4635      	mov	r5, r6
 800b4c4:	e7df      	b.n	800b486 <_realloc_r+0x1e>

0800b4c6 <_sungetc_r>:
 800b4c6:	b538      	push	{r3, r4, r5, lr}
 800b4c8:	1c4b      	adds	r3, r1, #1
 800b4ca:	4614      	mov	r4, r2
 800b4cc:	d103      	bne.n	800b4d6 <_sungetc_r+0x10>
 800b4ce:	f04f 35ff 	mov.w	r5, #4294967295
 800b4d2:	4628      	mov	r0, r5
 800b4d4:	bd38      	pop	{r3, r4, r5, pc}
 800b4d6:	8993      	ldrh	r3, [r2, #12]
 800b4d8:	f023 0320 	bic.w	r3, r3, #32
 800b4dc:	8193      	strh	r3, [r2, #12]
 800b4de:	6b63      	ldr	r3, [r4, #52]	; 0x34
 800b4e0:	6852      	ldr	r2, [r2, #4]
 800b4e2:	b2cd      	uxtb	r5, r1
 800b4e4:	b18b      	cbz	r3, 800b50a <_sungetc_r+0x44>
 800b4e6:	6ba3      	ldr	r3, [r4, #56]	; 0x38
 800b4e8:	4293      	cmp	r3, r2
 800b4ea:	dd08      	ble.n	800b4fe <_sungetc_r+0x38>
 800b4ec:	6823      	ldr	r3, [r4, #0]
 800b4ee:	1e5a      	subs	r2, r3, #1
 800b4f0:	6022      	str	r2, [r4, #0]
 800b4f2:	f803 5c01 	strb.w	r5, [r3, #-1]
 800b4f6:	6863      	ldr	r3, [r4, #4]
 800b4f8:	3301      	adds	r3, #1
 800b4fa:	6063      	str	r3, [r4, #4]
 800b4fc:	e7e9      	b.n	800b4d2 <_sungetc_r+0xc>
 800b4fe:	4621      	mov	r1, r4
 800b500:	f000 fb9d 	bl	800bc3e <__submore>
 800b504:	2800      	cmp	r0, #0
 800b506:	d0f1      	beq.n	800b4ec <_sungetc_r+0x26>
 800b508:	e7e1      	b.n	800b4ce <_sungetc_r+0x8>
 800b50a:	6921      	ldr	r1, [r4, #16]
 800b50c:	6823      	ldr	r3, [r4, #0]
 800b50e:	b151      	cbz	r1, 800b526 <_sungetc_r+0x60>
 800b510:	4299      	cmp	r1, r3
 800b512:	d208      	bcs.n	800b526 <_sungetc_r+0x60>
 800b514:	f813 1c01 	ldrb.w	r1, [r3, #-1]
 800b518:	42a9      	cmp	r1, r5
 800b51a:	d104      	bne.n	800b526 <_sungetc_r+0x60>
 800b51c:	3b01      	subs	r3, #1
 800b51e:	3201      	adds	r2, #1
 800b520:	6023      	str	r3, [r4, #0]
 800b522:	6062      	str	r2, [r4, #4]
 800b524:	e7d5      	b.n	800b4d2 <_sungetc_r+0xc>
 800b526:	e9c4 320f 	strd	r3, r2, [r4, #60]	; 0x3c
 800b52a:	f104 0344 	add.w	r3, r4, #68	; 0x44
 800b52e:	6363      	str	r3, [r4, #52]	; 0x34
 800b530:	2303      	movs	r3, #3
 800b532:	63a3      	str	r3, [r4, #56]	; 0x38
 800b534:	4623      	mov	r3, r4
 800b536:	f803 5f46 	strb.w	r5, [r3, #70]!
 800b53a:	6023      	str	r3, [r4, #0]
 800b53c:	2301      	movs	r3, #1
 800b53e:	e7dc      	b.n	800b4fa <_sungetc_r+0x34>

0800b540 <__ssrefill_r>:
 800b540:	b510      	push	{r4, lr}
 800b542:	460c      	mov	r4, r1
 800b544:	6b49      	ldr	r1, [r1, #52]	; 0x34
 800b546:	b169      	cbz	r1, 800b564 <__ssrefill_r+0x24>
 800b548:	f104 0344 	add.w	r3, r4, #68	; 0x44
 800b54c:	4299      	cmp	r1, r3
 800b54e:	d001      	beq.n	800b554 <__ssrefill_r+0x14>
 800b550:	f7ff f942 	bl	800a7d8 <_free_r>
 800b554:	6c23      	ldr	r3, [r4, #64]	; 0x40
 800b556:	6063      	str	r3, [r4, #4]
 800b558:	2000      	movs	r0, #0
 800b55a:	6360      	str	r0, [r4, #52]	; 0x34
 800b55c:	b113      	cbz	r3, 800b564 <__ssrefill_r+0x24>
 800b55e:	6be3      	ldr	r3, [r4, #60]	; 0x3c
 800b560:	6023      	str	r3, [r4, #0]
 800b562:	bd10      	pop	{r4, pc}
 800b564:	6923      	ldr	r3, [r4, #16]
 800b566:	6023      	str	r3, [r4, #0]
 800b568:	2300      	movs	r3, #0
 800b56a:	6063      	str	r3, [r4, #4]
 800b56c:	89a3      	ldrh	r3, [r4, #12]
 800b56e:	f043 0320 	orr.w	r3, r3, #32
 800b572:	81a3      	strh	r3, [r4, #12]
 800b574:	f04f 30ff 	mov.w	r0, #4294967295
 800b578:	e7f3      	b.n	800b562 <__ssrefill_r+0x22>
	...

0800b57c <__ssvfiscanf_r>:
 800b57c:	e92d 47f0 	stmdb	sp!, {r4, r5, r6, r7, r8, r9, sl, lr}
 800b580:	460c      	mov	r4, r1
 800b582:	f5ad 7d22 	sub.w	sp, sp, #648	; 0x288
 800b586:	2100      	movs	r1, #0
 800b588:	e9cd 1144 	strd	r1, r1, [sp, #272]	; 0x110
 800b58c:	49a6      	ldr	r1, [pc, #664]	; (800b828 <__ssvfiscanf_r+0x2ac>)
 800b58e:	91a0      	str	r1, [sp, #640]	; 0x280
 800b590:	f10d 0804 	add.w	r8, sp, #4
 800b594:	49a5      	ldr	r1, [pc, #660]	; (800b82c <__ssvfiscanf_r+0x2b0>)
 800b596:	4fa6      	ldr	r7, [pc, #664]	; (800b830 <__ssvfiscanf_r+0x2b4>)
 800b598:	f8df 9298 	ldr.w	r9, [pc, #664]	; 800b834 <__ssvfiscanf_r+0x2b8>
 800b59c:	f8cd 8118 	str.w	r8, [sp, #280]	; 0x118
 800b5a0:	4606      	mov	r6, r0
 800b5a2:	91a1      	str	r1, [sp, #644]	; 0x284
 800b5a4:	9300      	str	r3, [sp, #0]
 800b5a6:	7813      	ldrb	r3, [r2, #0]
 800b5a8:	2b00      	cmp	r3, #0
 800b5aa:	f000 815a 	beq.w	800b862 <__ssvfiscanf_r+0x2e6>
 800b5ae:	5cf9      	ldrb	r1, [r7, r3]
 800b5b0:	f011 0108 	ands.w	r1, r1, #8
 800b5b4:	f102 0501 	add.w	r5, r2, #1
 800b5b8:	d019      	beq.n	800b5ee <__ssvfiscanf_r+0x72>
 800b5ba:	6863      	ldr	r3, [r4, #4]
 800b5bc:	2b00      	cmp	r3, #0
 800b5be:	dd0f      	ble.n	800b5e0 <__ssvfiscanf_r+0x64>
 800b5c0:	6823      	ldr	r3, [r4, #0]
 800b5c2:	781a      	ldrb	r2, [r3, #0]
 800b5c4:	5cba      	ldrb	r2, [r7, r2]
 800b5c6:	0712      	lsls	r2, r2, #28
 800b5c8:	d401      	bmi.n	800b5ce <__ssvfiscanf_r+0x52>
 800b5ca:	462a      	mov	r2, r5
 800b5cc:	e7eb      	b.n	800b5a6 <__ssvfiscanf_r+0x2a>
 800b5ce:	9a45      	ldr	r2, [sp, #276]	; 0x114
 800b5d0:	3201      	adds	r2, #1
 800b5d2:	9245      	str	r2, [sp, #276]	; 0x114
 800b5d4:	6862      	ldr	r2, [r4, #4]
 800b5d6:	3301      	adds	r3, #1
 800b5d8:	3a01      	subs	r2, #1
 800b5da:	6062      	str	r2, [r4, #4]
 800b5dc:	6023      	str	r3, [r4, #0]
 800b5de:	e7ec      	b.n	800b5ba <__ssvfiscanf_r+0x3e>
 800b5e0:	9ba1      	ldr	r3, [sp, #644]	; 0x284
 800b5e2:	4621      	mov	r1, r4
 800b5e4:	4630      	mov	r0, r6
 800b5e6:	4798      	blx	r3
 800b5e8:	2800      	cmp	r0, #0
 800b5ea:	d0e9      	beq.n	800b5c0 <__ssvfiscanf_r+0x44>
 800b5ec:	e7ed      	b.n	800b5ca <__ssvfiscanf_r+0x4e>
 800b5ee:	2b25      	cmp	r3, #37	; 0x25
 800b5f0:	d012      	beq.n	800b618 <__ssvfiscanf_r+0x9c>
 800b5f2:	469a      	mov	sl, r3
 800b5f4:	6863      	ldr	r3, [r4, #4]
 800b5f6:	2b00      	cmp	r3, #0
 800b5f8:	f340 8091 	ble.w	800b71e <__ssvfiscanf_r+0x1a2>
 800b5fc:	6822      	ldr	r2, [r4, #0]
 800b5fe:	7813      	ldrb	r3, [r2, #0]
 800b600:	4553      	cmp	r3, sl
 800b602:	f040 812e 	bne.w	800b862 <__ssvfiscanf_r+0x2e6>
 800b606:	6863      	ldr	r3, [r4, #4]
 800b608:	3b01      	subs	r3, #1
 800b60a:	6063      	str	r3, [r4, #4]
 800b60c:	9b45      	ldr	r3, [sp, #276]	; 0x114
 800b60e:	3201      	adds	r2, #1
 800b610:	3301      	adds	r3, #1
 800b612:	6022      	str	r2, [r4, #0]
 800b614:	9345      	str	r3, [sp, #276]	; 0x114
 800b616:	e7d8      	b.n	800b5ca <__ssvfiscanf_r+0x4e>
 800b618:	9141      	str	r1, [sp, #260]	; 0x104
 800b61a:	9143      	str	r1, [sp, #268]	; 0x10c
 800b61c:	7853      	ldrb	r3, [r2, #1]
 800b61e:	2b2a      	cmp	r3, #42	; 0x2a
 800b620:	bf02      	ittt	eq
 800b622:	2310      	moveq	r3, #16
 800b624:	1c95      	addeq	r5, r2, #2
 800b626:	9341      	streq	r3, [sp, #260]	; 0x104
 800b628:	220a      	movs	r2, #10
 800b62a:	46aa      	mov	sl, r5
 800b62c:	f81a 1b01 	ldrb.w	r1, [sl], #1
 800b630:	f1a1 0330 	sub.w	r3, r1, #48	; 0x30
 800b634:	2b09      	cmp	r3, #9
 800b636:	d91c      	bls.n	800b672 <__ssvfiscanf_r+0xf6>
 800b638:	487e      	ldr	r0, [pc, #504]	; (800b834 <__ssvfiscanf_r+0x2b8>)
 800b63a:	2203      	movs	r2, #3
 800b63c:	f7f4 fe00 	bl	8000240 <memchr>
 800b640:	b138      	cbz	r0, 800b652 <__ssvfiscanf_r+0xd6>
 800b642:	9a41      	ldr	r2, [sp, #260]	; 0x104
 800b644:	eba0 0009 	sub.w	r0, r0, r9
 800b648:	2301      	movs	r3, #1
 800b64a:	4083      	lsls	r3, r0
 800b64c:	4313      	orrs	r3, r2
 800b64e:	9341      	str	r3, [sp, #260]	; 0x104
 800b650:	4655      	mov	r5, sl
 800b652:	f815 3b01 	ldrb.w	r3, [r5], #1
 800b656:	2b78      	cmp	r3, #120	; 0x78
 800b658:	d806      	bhi.n	800b668 <__ssvfiscanf_r+0xec>
 800b65a:	2b57      	cmp	r3, #87	; 0x57
 800b65c:	d810      	bhi.n	800b680 <__ssvfiscanf_r+0x104>
 800b65e:	2b25      	cmp	r3, #37	; 0x25
 800b660:	d0c7      	beq.n	800b5f2 <__ssvfiscanf_r+0x76>
 800b662:	d857      	bhi.n	800b714 <__ssvfiscanf_r+0x198>
 800b664:	2b00      	cmp	r3, #0
 800b666:	d065      	beq.n	800b734 <__ssvfiscanf_r+0x1b8>
 800b668:	2303      	movs	r3, #3
 800b66a:	9347      	str	r3, [sp, #284]	; 0x11c
 800b66c:	230a      	movs	r3, #10
 800b66e:	9342      	str	r3, [sp, #264]	; 0x108
 800b670:	e076      	b.n	800b760 <__ssvfiscanf_r+0x1e4>
 800b672:	9b43      	ldr	r3, [sp, #268]	; 0x10c
 800b674:	fb02 1103 	mla	r1, r2, r3, r1
 800b678:	3930      	subs	r1, #48	; 0x30
 800b67a:	9143      	str	r1, [sp, #268]	; 0x10c
 800b67c:	4655      	mov	r5, sl
 800b67e:	e7d4      	b.n	800b62a <__ssvfiscanf_r+0xae>
 800b680:	f1a3 0258 	sub.w	r2, r3, #88	; 0x58
 800b684:	2a20      	cmp	r2, #32
 800b686:	d8ef      	bhi.n	800b668 <__ssvfiscanf_r+0xec>
 800b688:	a101      	add	r1, pc, #4	; (adr r1, 800b690 <__ssvfiscanf_r+0x114>)
 800b68a:	f851 f022 	ldr.w	pc, [r1, r2, lsl #2]
 800b68e:	bf00      	nop
 800b690:	0800b743 	.word	0x0800b743
 800b694:	0800b669 	.word	0x0800b669
 800b698:	0800b669 	.word	0x0800b669
 800b69c:	0800b7a1 	.word	0x0800b7a1
 800b6a0:	0800b669 	.word	0x0800b669
 800b6a4:	0800b669 	.word	0x0800b669
 800b6a8:	0800b669 	.word	0x0800b669
 800b6ac:	0800b669 	.word	0x0800b669
 800b6b0:	0800b669 	.word	0x0800b669
 800b6b4:	0800b669 	.word	0x0800b669
 800b6b8:	0800b669 	.word	0x0800b669
 800b6bc:	0800b7b7 	.word	0x0800b7b7
 800b6c0:	0800b79d 	.word	0x0800b79d
 800b6c4:	0800b71b 	.word	0x0800b71b
 800b6c8:	0800b71b 	.word	0x0800b71b
 800b6cc:	0800b71b 	.word	0x0800b71b
 800b6d0:	0800b669 	.word	0x0800b669
 800b6d4:	0800b759 	.word	0x0800b759
 800b6d8:	0800b669 	.word	0x0800b669
 800b6dc:	0800b669 	.word	0x0800b669
 800b6e0:	0800b669 	.word	0x0800b669
 800b6e4:	0800b669 	.word	0x0800b669
 800b6e8:	0800b7c7 	.word	0x0800b7c7
 800b6ec:	0800b795 	.word	0x0800b795
 800b6f0:	0800b73b 	.word	0x0800b73b
 800b6f4:	0800b669 	.word	0x0800b669
 800b6f8:	0800b669 	.word	0x0800b669
 800b6fc:	0800b7c3 	.word	0x0800b7c3
 800b700:	0800b669 	.word	0x0800b669
 800b704:	0800b79d 	.word	0x0800b79d
 800b708:	0800b669 	.word	0x0800b669
 800b70c:	0800b669 	.word	0x0800b669
 800b710:	0800b743 	.word	0x0800b743
 800b714:	3b45      	subs	r3, #69	; 0x45
 800b716:	2b02      	cmp	r3, #2
 800b718:	d8a6      	bhi.n	800b668 <__ssvfiscanf_r+0xec>
 800b71a:	2305      	movs	r3, #5
 800b71c:	e01f      	b.n	800b75e <__ssvfiscanf_r+0x1e2>
 800b71e:	9ba1      	ldr	r3, [sp, #644]	; 0x284
 800b720:	4621      	mov	r1, r4
 800b722:	4630      	mov	r0, r6
 800b724:	4798      	blx	r3
 800b726:	2800      	cmp	r0, #0
 800b728:	f43f af68 	beq.w	800b5fc <__ssvfiscanf_r+0x80>
 800b72c:	9844      	ldr	r0, [sp, #272]	; 0x110
 800b72e:	2800      	cmp	r0, #0
 800b730:	f040 808d 	bne.w	800b84e <__ssvfiscanf_r+0x2d2>
 800b734:	f04f 30ff 	mov.w	r0, #4294967295
 800b738:	e08f      	b.n	800b85a <__ssvfiscanf_r+0x2de>
 800b73a:	9a41      	ldr	r2, [sp, #260]	; 0x104
 800b73c:	f042 0220 	orr.w	r2, r2, #32
 800b740:	9241      	str	r2, [sp, #260]	; 0x104
 800b742:	9a41      	ldr	r2, [sp, #260]	; 0x104
 800b744:	f442 7200 	orr.w	r2, r2, #512	; 0x200
 800b748:	9241      	str	r2, [sp, #260]	; 0x104
 800b74a:	2210      	movs	r2, #16
 800b74c:	2b6f      	cmp	r3, #111	; 0x6f
 800b74e:	9242      	str	r2, [sp, #264]	; 0x108
 800b750:	bf34      	ite	cc
 800b752:	2303      	movcc	r3, #3
 800b754:	2304      	movcs	r3, #4
 800b756:	e002      	b.n	800b75e <__ssvfiscanf_r+0x1e2>
 800b758:	2300      	movs	r3, #0
 800b75a:	9342      	str	r3, [sp, #264]	; 0x108
 800b75c:	2303      	movs	r3, #3
 800b75e:	9347      	str	r3, [sp, #284]	; 0x11c
 800b760:	6863      	ldr	r3, [r4, #4]
 800b762:	2b00      	cmp	r3, #0
 800b764:	dd3d      	ble.n	800b7e2 <__ssvfiscanf_r+0x266>
 800b766:	9b41      	ldr	r3, [sp, #260]	; 0x104
 800b768:	0659      	lsls	r1, r3, #25
 800b76a:	d404      	bmi.n	800b776 <__ssvfiscanf_r+0x1fa>
 800b76c:	6823      	ldr	r3, [r4, #0]
 800b76e:	781a      	ldrb	r2, [r3, #0]
 800b770:	5cba      	ldrb	r2, [r7, r2]
 800b772:	0712      	lsls	r2, r2, #28
 800b774:	d43c      	bmi.n	800b7f0 <__ssvfiscanf_r+0x274>
 800b776:	9b47      	ldr	r3, [sp, #284]	; 0x11c
 800b778:	2b02      	cmp	r3, #2
 800b77a:	dc4b      	bgt.n	800b814 <__ssvfiscanf_r+0x298>
 800b77c:	466b      	mov	r3, sp
 800b77e:	4622      	mov	r2, r4
 800b780:	a941      	add	r1, sp, #260	; 0x104
 800b782:	4630      	mov	r0, r6
 800b784:	f000 f872 	bl	800b86c <_scanf_chars>
 800b788:	2801      	cmp	r0, #1
 800b78a:	d06a      	beq.n	800b862 <__ssvfiscanf_r+0x2e6>
 800b78c:	2802      	cmp	r0, #2
 800b78e:	f47f af1c 	bne.w	800b5ca <__ssvfiscanf_r+0x4e>
 800b792:	e7cb      	b.n	800b72c <__ssvfiscanf_r+0x1b0>
 800b794:	2308      	movs	r3, #8
 800b796:	9342      	str	r3, [sp, #264]	; 0x108
 800b798:	2304      	movs	r3, #4
 800b79a:	e7e0      	b.n	800b75e <__ssvfiscanf_r+0x1e2>
 800b79c:	220a      	movs	r2, #10
 800b79e:	e7d5      	b.n	800b74c <__ssvfiscanf_r+0x1d0>
 800b7a0:	4629      	mov	r1, r5
 800b7a2:	4640      	mov	r0, r8
 800b7a4:	f000 fa12 	bl	800bbcc <__sccl>
 800b7a8:	9b41      	ldr	r3, [sp, #260]	; 0x104
 800b7aa:	f043 0340 	orr.w	r3, r3, #64	; 0x40
 800b7ae:	9341      	str	r3, [sp, #260]	; 0x104
 800b7b0:	4605      	mov	r5, r0
 800b7b2:	2301      	movs	r3, #1
 800b7b4:	e7d3      	b.n	800b75e <__ssvfiscanf_r+0x1e2>
 800b7b6:	9b41      	ldr	r3, [sp, #260]	; 0x104
 800b7b8:	f043 0340 	orr.w	r3, r3, #64	; 0x40
 800b7bc:	9341      	str	r3, [sp, #260]	; 0x104
 800b7be:	2300      	movs	r3, #0
 800b7c0:	e7cd      	b.n	800b75e <__ssvfiscanf_r+0x1e2>
 800b7c2:	2302      	movs	r3, #2
 800b7c4:	e7cb      	b.n	800b75e <__ssvfiscanf_r+0x1e2>
 800b7c6:	9841      	ldr	r0, [sp, #260]	; 0x104
 800b7c8:	06c3      	lsls	r3, r0, #27
 800b7ca:	f53f aefe 	bmi.w	800b5ca <__ssvfiscanf_r+0x4e>
 800b7ce:	9b00      	ldr	r3, [sp, #0]
 800b7d0:	9a45      	ldr	r2, [sp, #276]	; 0x114
 800b7d2:	1d19      	adds	r1, r3, #4
 800b7d4:	9100      	str	r1, [sp, #0]
 800b7d6:	681b      	ldr	r3, [r3, #0]
 800b7d8:	07c0      	lsls	r0, r0, #31
 800b7da:	bf4c      	ite	mi
 800b7dc:	801a      	strhmi	r2, [r3, #0]
 800b7de:	601a      	strpl	r2, [r3, #0]
 800b7e0:	e6f3      	b.n	800b5ca <__ssvfiscanf_r+0x4e>
 800b7e2:	9ba1      	ldr	r3, [sp, #644]	; 0x284
 800b7e4:	4621      	mov	r1, r4
 800b7e6:	4630      	mov	r0, r6
 800b7e8:	4798      	blx	r3
 800b7ea:	2800      	cmp	r0, #0
 800b7ec:	d0bb      	beq.n	800b766 <__ssvfiscanf_r+0x1ea>
 800b7ee:	e79d      	b.n	800b72c <__ssvfiscanf_r+0x1b0>
 800b7f0:	9a45      	ldr	r2, [sp, #276]	; 0x114
 800b7f2:	3201      	adds	r2, #1
 800b7f4:	9245      	str	r2, [sp, #276]	; 0x114
 800b7f6:	6862      	ldr	r2, [r4, #4]
 800b7f8:	3a01      	subs	r2, #1
 800b7fa:	2a00      	cmp	r2, #0
 800b7fc:	6062      	str	r2, [r4, #4]
 800b7fe:	dd02      	ble.n	800b806 <__ssvfiscanf_r+0x28a>
 800b800:	3301      	adds	r3, #1
 800b802:	6023      	str	r3, [r4, #0]
 800b804:	e7b2      	b.n	800b76c <__ssvfiscanf_r+0x1f0>
 800b806:	9ba1      	ldr	r3, [sp, #644]	; 0x284
 800b808:	4621      	mov	r1, r4
 800b80a:	4630      	mov	r0, r6
 800b80c:	4798      	blx	r3
 800b80e:	2800      	cmp	r0, #0
 800b810:	d0ac      	beq.n	800b76c <__ssvfiscanf_r+0x1f0>
 800b812:	e78b      	b.n	800b72c <__ssvfiscanf_r+0x1b0>
 800b814:	2b04      	cmp	r3, #4
 800b816:	dc0f      	bgt.n	800b838 <__ssvfiscanf_r+0x2bc>
 800b818:	466b      	mov	r3, sp
 800b81a:	4622      	mov	r2, r4
 800b81c:	a941      	add	r1, sp, #260	; 0x104
 800b81e:	4630      	mov	r0, r6
 800b820:	f000 f87e 	bl	800b920 <_scanf_i>
 800b824:	e7b0      	b.n	800b788 <__ssvfiscanf_r+0x20c>
 800b826:	bf00      	nop
 800b828:	0800b4c7 	.word	0x0800b4c7
 800b82c:	0800b541 	.word	0x0800b541
 800b830:	0800dbae 	.word	0x0800dbae
 800b834:	0800dda0 	.word	0x0800dda0
 800b838:	4b0b      	ldr	r3, [pc, #44]	; (800b868 <__ssvfiscanf_r+0x2ec>)
 800b83a:	2b00      	cmp	r3, #0
 800b83c:	f43f aec5 	beq.w	800b5ca <__ssvfiscanf_r+0x4e>
 800b840:	466b      	mov	r3, sp
 800b842:	4622      	mov	r2, r4
 800b844:	a941      	add	r1, sp, #260	; 0x104
 800b846:	4630      	mov	r0, r6
 800b848:	f3af 8000 	nop.w
 800b84c:	e79c      	b.n	800b788 <__ssvfiscanf_r+0x20c>
 800b84e:	89a3      	ldrh	r3, [r4, #12]
 800b850:	f013 0f40 	tst.w	r3, #64	; 0x40
 800b854:	bf18      	it	ne
 800b856:	f04f 30ff 	movne.w	r0, #4294967295
 800b85a:	f50d 7d22 	add.w	sp, sp, #648	; 0x288
 800b85e:	e8bd 87f0 	ldmia.w	sp!, {r4, r5, r6, r7, r8, r9, sl, pc}
 800b862:	9844      	ldr	r0, [sp, #272]	; 0x110
 800b864:	e7f9      	b.n	800b85a <__ssvfiscanf_r+0x2de>
 800b866:	bf00      	nop
 800b868:	00000000 	.word	0x00000000

0800b86c <_scanf_chars>:
 800b86c:	e92d 43f8 	stmdb	sp!, {r3, r4, r5, r6, r7, r8, r9, lr}
 800b870:	4615      	mov	r5, r2
 800b872:	688a      	ldr	r2, [r1, #8]
 800b874:	4680      	mov	r8, r0
 800b876:	460c      	mov	r4, r1
 800b878:	b932      	cbnz	r2, 800b888 <_scanf_chars+0x1c>
 800b87a:	698a      	ldr	r2, [r1, #24]
 800b87c:	2a00      	cmp	r2, #0
 800b87e:	bf0c      	ite	eq
 800b880:	2201      	moveq	r2, #1
 800b882:	f04f 32ff 	movne.w	r2, #4294967295
 800b886:	608a      	str	r2, [r1, #8]
 800b888:	6822      	ldr	r2, [r4, #0]
 800b88a:	f8df 9090 	ldr.w	r9, [pc, #144]	; 800b91c <_scanf_chars+0xb0>
 800b88e:	06d1      	lsls	r1, r2, #27
 800b890:	bf5f      	itttt	pl
 800b892:	681a      	ldrpl	r2, [r3, #0]
 800b894:	1d11      	addpl	r1, r2, #4
 800b896:	6019      	strpl	r1, [r3, #0]
 800b898:	6816      	ldrpl	r6, [r2, #0]
 800b89a:	2700      	movs	r7, #0
 800b89c:	69a0      	ldr	r0, [r4, #24]
 800b89e:	b188      	cbz	r0, 800b8c4 <_scanf_chars+0x58>
 800b8a0:	2801      	cmp	r0, #1
 800b8a2:	d107      	bne.n	800b8b4 <_scanf_chars+0x48>
 800b8a4:	682a      	ldr	r2, [r5, #0]
 800b8a6:	7811      	ldrb	r1, [r2, #0]
 800b8a8:	6962      	ldr	r2, [r4, #20]
 800b8aa:	5c52      	ldrb	r2, [r2, r1]
 800b8ac:	b952      	cbnz	r2, 800b8c4 <_scanf_chars+0x58>
 800b8ae:	2f00      	cmp	r7, #0
 800b8b0:	d031      	beq.n	800b916 <_scanf_chars+0xaa>
 800b8b2:	e022      	b.n	800b8fa <_scanf_chars+0x8e>
 800b8b4:	2802      	cmp	r0, #2
 800b8b6:	d120      	bne.n	800b8fa <_scanf_chars+0x8e>
 800b8b8:	682b      	ldr	r3, [r5, #0]
 800b8ba:	781b      	ldrb	r3, [r3, #0]
 800b8bc:	f819 3003 	ldrb.w	r3, [r9, r3]
 800b8c0:	071b      	lsls	r3, r3, #28
 800b8c2:	d41a      	bmi.n	800b8fa <_scanf_chars+0x8e>
 800b8c4:	6823      	ldr	r3, [r4, #0]
 800b8c6:	06da      	lsls	r2, r3, #27
 800b8c8:	bf5e      	ittt	pl
 800b8ca:	682b      	ldrpl	r3, [r5, #0]
 800b8cc:	781b      	ldrbpl	r3, [r3, #0]
 800b8ce:	f806 3b01 	strbpl.w	r3, [r6], #1
 800b8d2:	682a      	ldr	r2, [r5, #0]
 800b8d4:	686b      	ldr	r3, [r5, #4]
 800b8d6:	3201      	adds	r2, #1
 800b8d8:	602a      	str	r2, [r5, #0]
 800b8da:	68a2      	ldr	r2, [r4, #8]
 800b8dc:	3b01      	subs	r3, #1
 800b8de:	3a01      	subs	r2, #1
 800b8e0:	606b      	str	r3, [r5, #4]
 800b8e2:	3701      	adds	r7, #1
 800b8e4:	60a2      	str	r2, [r4, #8]
 800b8e6:	b142      	cbz	r2, 800b8fa <_scanf_chars+0x8e>
 800b8e8:	2b00      	cmp	r3, #0
 800b8ea:	dcd7      	bgt.n	800b89c <_scanf_chars+0x30>
 800b8ec:	f8d4 3180 	ldr.w	r3, [r4, #384]	; 0x180
 800b8f0:	4629      	mov	r1, r5
 800b8f2:	4640      	mov	r0, r8
 800b8f4:	4798      	blx	r3
 800b8f6:	2800      	cmp	r0, #0
 800b8f8:	d0d0      	beq.n	800b89c <_scanf_chars+0x30>
 800b8fa:	6823      	ldr	r3, [r4, #0]
 800b8fc:	f013 0310 	ands.w	r3, r3, #16
 800b900:	d105      	bne.n	800b90e <_scanf_chars+0xa2>
 800b902:	68e2      	ldr	r2, [r4, #12]
 800b904:	3201      	adds	r2, #1
 800b906:	60e2      	str	r2, [r4, #12]
 800b908:	69a2      	ldr	r2, [r4, #24]
 800b90a:	b102      	cbz	r2, 800b90e <_scanf_chars+0xa2>
 800b90c:	7033      	strb	r3, [r6, #0]
 800b90e:	6923      	ldr	r3, [r4, #16]
 800b910:	443b      	add	r3, r7
 800b912:	6123      	str	r3, [r4, #16]
 800b914:	2000      	movs	r0, #0
 800b916:	e8bd 83f8 	ldmia.w	sp!, {r3, r4, r5, r6, r7, r8, r9, pc}
 800b91a:	bf00      	nop
 800b91c:	0800dbae 	.word	0x0800dbae

0800b920 <_scanf_i>:
 800b920:	e92d 4ff0 	stmdb	sp!, {r4, r5, r6, r7, r8, r9, sl, fp, lr}
 800b924:	4698      	mov	r8, r3
 800b926:	4b74      	ldr	r3, [pc, #464]	; (800baf8 <_scanf_i+0x1d8>)
 800b928:	460c      	mov	r4, r1
 800b92a:	4682      	mov	sl, r0
 800b92c:	4616      	mov	r6, r2
 800b92e:	e893 0007 	ldmia.w	r3, {r0, r1, r2}
 800b932:	b087      	sub	sp, #28
 800b934:	ab03      	add	r3, sp, #12
 800b936:	e883 0007 	stmia.w	r3, {r0, r1, r2}
 800b93a:	4b70      	ldr	r3, [pc, #448]	; (800bafc <_scanf_i+0x1dc>)
 800b93c:	69a1      	ldr	r1, [r4, #24]
 800b93e:	4a70      	ldr	r2, [pc, #448]	; (800bb00 <_scanf_i+0x1e0>)
 800b940:	2903      	cmp	r1, #3
 800b942:	bf18      	it	ne
 800b944:	461a      	movne	r2, r3
 800b946:	68a3      	ldr	r3, [r4, #8]
 800b948:	9201      	str	r2, [sp, #4]
 800b94a:	1e5a      	subs	r2, r3, #1
 800b94c:	f5b2 7fae 	cmp.w	r2, #348	; 0x15c
 800b950:	bf88      	it	hi
 800b952:	f46f 75ae 	mvnhi.w	r5, #348	; 0x15c
 800b956:	4627      	mov	r7, r4
 800b958:	bf82      	ittt	hi
 800b95a:	eb03 0905 	addhi.w	r9, r3, r5
 800b95e:	f240 135d 	movwhi	r3, #349	; 0x15d
 800b962:	60a3      	strhi	r3, [r4, #8]
 800b964:	f857 3b1c 	ldr.w	r3, [r7], #28
 800b968:	f443 6350 	orr.w	r3, r3, #3328	; 0xd00
 800b96c:	bf98      	it	ls
 800b96e:	f04f 0900 	movls.w	r9, #0
 800b972:	6023      	str	r3, [r4, #0]
 800b974:	463d      	mov	r5, r7
 800b976:	f04f 0b00 	mov.w	fp, #0
 800b97a:	6831      	ldr	r1, [r6, #0]
 800b97c:	ab03      	add	r3, sp, #12
 800b97e:	7809      	ldrb	r1, [r1, #0]
 800b980:	f853 002b 	ldr.w	r0, [r3, fp, lsl #2]
 800b984:	2202      	movs	r2, #2
 800b986:	f7f4 fc5b 	bl	8000240 <memchr>
 800b98a:	b328      	cbz	r0, 800b9d8 <_scanf_i+0xb8>
 800b98c:	f1bb 0f01 	cmp.w	fp, #1
 800b990:	d159      	bne.n	800ba46 <_scanf_i+0x126>
 800b992:	6862      	ldr	r2, [r4, #4]
 800b994:	b92a      	cbnz	r2, 800b9a2 <_scanf_i+0x82>
 800b996:	6822      	ldr	r2, [r4, #0]
 800b998:	2308      	movs	r3, #8
 800b99a:	f442 7200 	orr.w	r2, r2, #512	; 0x200
 800b99e:	6063      	str	r3, [r4, #4]
 800b9a0:	6022      	str	r2, [r4, #0]
 800b9a2:	6822      	ldr	r2, [r4, #0]
 800b9a4:	f422 62a0 	bic.w	r2, r2, #1280	; 0x500
 800b9a8:	6022      	str	r2, [r4, #0]
 800b9aa:	68a2      	ldr	r2, [r4, #8]
 800b9ac:	1e51      	subs	r1, r2, #1
 800b9ae:	60a1      	str	r1, [r4, #8]
 800b9b0:	b192      	cbz	r2, 800b9d8 <_scanf_i+0xb8>
 800b9b2:	6832      	ldr	r2, [r6, #0]
 800b9b4:	1c51      	adds	r1, r2, #1
 800b9b6:	6031      	str	r1, [r6, #0]
 800b9b8:	7812      	ldrb	r2, [r2, #0]
 800b9ba:	f805 2b01 	strb.w	r2, [r5], #1
 800b9be:	6872      	ldr	r2, [r6, #4]
 800b9c0:	3a01      	subs	r2, #1
 800b9c2:	2a00      	cmp	r2, #0
 800b9c4:	6072      	str	r2, [r6, #4]
 800b9c6:	dc07      	bgt.n	800b9d8 <_scanf_i+0xb8>
 800b9c8:	f8d4 2180 	ldr.w	r2, [r4, #384]	; 0x180
 800b9cc:	4631      	mov	r1, r6
 800b9ce:	4650      	mov	r0, sl
 800b9d0:	4790      	blx	r2
 800b9d2:	2800      	cmp	r0, #0
 800b9d4:	f040 8085 	bne.w	800bae2 <_scanf_i+0x1c2>
 800b9d8:	f10b 0b01 	add.w	fp, fp, #1
 800b9dc:	f1bb 0f03 	cmp.w	fp, #3
 800b9e0:	d1cb      	bne.n	800b97a <_scanf_i+0x5a>
 800b9e2:	6863      	ldr	r3, [r4, #4]
 800b9e4:	b90b      	cbnz	r3, 800b9ea <_scanf_i+0xca>
 800b9e6:	230a      	movs	r3, #10
 800b9e8:	6063      	str	r3, [r4, #4]
 800b9ea:	6863      	ldr	r3, [r4, #4]
 800b9ec:	4945      	ldr	r1, [pc, #276]	; (800bb04 <_scanf_i+0x1e4>)
 800b9ee:	6960      	ldr	r0, [r4, #20]
 800b9f0:	1ac9      	subs	r1, r1, r3
 800b9f2:	f000 f8eb 	bl	800bbcc <__sccl>
 800b9f6:	f04f 0b00 	mov.w	fp, #0
 800b9fa:	68a3      	ldr	r3, [r4, #8]
 800b9fc:	6822      	ldr	r2, [r4, #0]
 800b9fe:	2b00      	cmp	r3, #0
 800ba00:	d03d      	beq.n	800ba7e <_scanf_i+0x15e>
 800ba02:	6831      	ldr	r1, [r6, #0]
 800ba04:	6960      	ldr	r0, [r4, #20]
 800ba06:	f891 c000 	ldrb.w	ip, [r1]
 800ba0a:	f810 000c 	ldrb.w	r0, [r0, ip]
 800ba0e:	2800      	cmp	r0, #0
 800ba10:	d035      	beq.n	800ba7e <_scanf_i+0x15e>
 800ba12:	f1bc 0f30 	cmp.w	ip, #48	; 0x30
 800ba16:	d124      	bne.n	800ba62 <_scanf_i+0x142>
 800ba18:	0510      	lsls	r0, r2, #20
 800ba1a:	d522      	bpl.n	800ba62 <_scanf_i+0x142>
 800ba1c:	f10b 0b01 	add.w	fp, fp, #1
 800ba20:	f1b9 0f00 	cmp.w	r9, #0
 800ba24:	d003      	beq.n	800ba2e <_scanf_i+0x10e>
 800ba26:	3301      	adds	r3, #1
 800ba28:	f109 39ff 	add.w	r9, r9, #4294967295
 800ba2c:	60a3      	str	r3, [r4, #8]
 800ba2e:	6873      	ldr	r3, [r6, #4]
 800ba30:	3b01      	subs	r3, #1
 800ba32:	2b00      	cmp	r3, #0
 800ba34:	6073      	str	r3, [r6, #4]
 800ba36:	dd1b      	ble.n	800ba70 <_scanf_i+0x150>
 800ba38:	6833      	ldr	r3, [r6, #0]
 800ba3a:	3301      	adds	r3, #1
 800ba3c:	6033      	str	r3, [r6, #0]
 800ba3e:	68a3      	ldr	r3, [r4, #8]
 800ba40:	3b01      	subs	r3, #1
 800ba42:	60a3      	str	r3, [r4, #8]
 800ba44:	e7d9      	b.n	800b9fa <_scanf_i+0xda>
 800ba46:	f1bb 0f02 	cmp.w	fp, #2
 800ba4a:	d1ae      	bne.n	800b9aa <_scanf_i+0x8a>
 800ba4c:	6822      	ldr	r2, [r4, #0]
 800ba4e:	f402 61c0 	and.w	r1, r2, #1536	; 0x600
 800ba52:	f5b1 7f00 	cmp.w	r1, #512	; 0x200
 800ba56:	d1bf      	bne.n	800b9d8 <_scanf_i+0xb8>
 800ba58:	2310      	movs	r3, #16
 800ba5a:	6063      	str	r3, [r4, #4]
 800ba5c:	f442 7280 	orr.w	r2, r2, #256	; 0x100
 800ba60:	e7a2      	b.n	800b9a8 <_scanf_i+0x88>
 800ba62:	f422 6210 	bic.w	r2, r2, #2304	; 0x900
 800ba66:	6022      	str	r2, [r4, #0]
 800ba68:	780b      	ldrb	r3, [r1, #0]
 800ba6a:	f805 3b01 	strb.w	r3, [r5], #1
 800ba6e:	e7de      	b.n	800ba2e <_scanf_i+0x10e>
 800ba70:	f8d4 3180 	ldr.w	r3, [r4, #384]	; 0x180
 800ba74:	4631      	mov	r1, r6
 800ba76:	4650      	mov	r0, sl
 800ba78:	4798      	blx	r3
 800ba7a:	2800      	cmp	r0, #0
 800ba7c:	d0df      	beq.n	800ba3e <_scanf_i+0x11e>
 800ba7e:	6823      	ldr	r3, [r4, #0]
 800ba80:	05d9      	lsls	r1, r3, #23
 800ba82:	d50d      	bpl.n	800baa0 <_scanf_i+0x180>
 800ba84:	42bd      	cmp	r5, r7
 800ba86:	d909      	bls.n	800ba9c <_scanf_i+0x17c>
 800ba88:	f815 1c01 	ldrb.w	r1, [r5, #-1]
 800ba8c:	f8d4 317c 	ldr.w	r3, [r4, #380]	; 0x17c
 800ba90:	4632      	mov	r2, r6
 800ba92:	4650      	mov	r0, sl
 800ba94:	4798      	blx	r3
 800ba96:	f105 39ff 	add.w	r9, r5, #4294967295
 800ba9a:	464d      	mov	r5, r9
 800ba9c:	42bd      	cmp	r5, r7
 800ba9e:	d028      	beq.n	800baf2 <_scanf_i+0x1d2>
 800baa0:	6822      	ldr	r2, [r4, #0]
 800baa2:	f012 0210 	ands.w	r2, r2, #16
 800baa6:	d113      	bne.n	800bad0 <_scanf_i+0x1b0>
 800baa8:	702a      	strb	r2, [r5, #0]
 800baaa:	6863      	ldr	r3, [r4, #4]
 800baac:	9e01      	ldr	r6, [sp, #4]
 800baae:	4639      	mov	r1, r7
 800bab0:	4650      	mov	r0, sl
 800bab2:	47b0      	blx	r6
 800bab4:	f8d8 3000 	ldr.w	r3, [r8]
 800bab8:	6821      	ldr	r1, [r4, #0]
 800baba:	1d1a      	adds	r2, r3, #4
 800babc:	f8c8 2000 	str.w	r2, [r8]
 800bac0:	f011 0f20 	tst.w	r1, #32
 800bac4:	681b      	ldr	r3, [r3, #0]
 800bac6:	d00f      	beq.n	800bae8 <_scanf_i+0x1c8>
 800bac8:	6018      	str	r0, [r3, #0]
 800baca:	68e3      	ldr	r3, [r4, #12]
 800bacc:	3301      	adds	r3, #1
 800bace:	60e3      	str	r3, [r4, #12]
 800bad0:	6923      	ldr	r3, [r4, #16]
 800bad2:	1bed      	subs	r5, r5, r7
 800bad4:	445d      	add	r5, fp
 800bad6:	442b      	add	r3, r5
 800bad8:	6123      	str	r3, [r4, #16]
 800bada:	2000      	movs	r0, #0
 800badc:	b007      	add	sp, #28
 800bade:	e8bd 8ff0 	ldmia.w	sp!, {r4, r5, r6, r7, r8, r9, sl, fp, pc}
 800bae2:	f04f 0b00 	mov.w	fp, #0
 800bae6:	e7ca      	b.n	800ba7e <_scanf_i+0x15e>
 800bae8:	07ca      	lsls	r2, r1, #31
 800baea:	bf4c      	ite	mi
 800baec:	8018      	strhmi	r0, [r3, #0]
 800baee:	6018      	strpl	r0, [r3, #0]
 800baf0:	e7eb      	b.n	800baca <_scanf_i+0x1aa>
 800baf2:	2001      	movs	r0, #1
 800baf4:	e7f2      	b.n	800badc <_scanf_i+0x1bc>
 800baf6:	bf00      	nop
 800baf8:	0800bda8 	.word	0x0800bda8
 800bafc:	0800ab55 	.word	0x0800ab55
 800bb00:	0800993d 	.word	0x0800993d
 800bb04:	0800de40 	.word	0x0800de40

0800bb08 <__swhatbuf_r>:
 800bb08:	b570      	push	{r4, r5, r6, lr}
 800bb0a:	460c      	mov	r4, r1
 800bb0c:	f9b1 100e 	ldrsh.w	r1, [r1, #14]
 800bb10:	2900      	cmp	r1, #0
 800bb12:	b096      	sub	sp, #88	; 0x58
 800bb14:	4615      	mov	r5, r2
 800bb16:	461e      	mov	r6, r3
 800bb18:	da0d      	bge.n	800bb36 <__swhatbuf_r+0x2e>
 800bb1a:	89a3      	ldrh	r3, [r4, #12]
 800bb1c:	f013 0f80 	tst.w	r3, #128	; 0x80
 800bb20:	f04f 0100 	mov.w	r1, #0
 800bb24:	bf0c      	ite	eq
 800bb26:	f44f 6380 	moveq.w	r3, #1024	; 0x400
 800bb2a:	2340      	movne	r3, #64	; 0x40
 800bb2c:	2000      	movs	r0, #0
 800bb2e:	6031      	str	r1, [r6, #0]
 800bb30:	602b      	str	r3, [r5, #0]
 800bb32:	b016      	add	sp, #88	; 0x58
 800bb34:	bd70      	pop	{r4, r5, r6, pc}
 800bb36:	466a      	mov	r2, sp
 800bb38:	f000 f8ec 	bl	800bd14 <_fstat_r>
 800bb3c:	2800      	cmp	r0, #0
 800bb3e:	dbec      	blt.n	800bb1a <__swhatbuf_r+0x12>
 800bb40:	9901      	ldr	r1, [sp, #4]
 800bb42:	f401 4170 	and.w	r1, r1, #61440	; 0xf000
 800bb46:	f5a1 5300 	sub.w	r3, r1, #8192	; 0x2000
 800bb4a:	4259      	negs	r1, r3
 800bb4c:	4159      	adcs	r1, r3
 800bb4e:	f44f 6380 	mov.w	r3, #1024	; 0x400
 800bb52:	e7eb      	b.n	800bb2c <__swhatbuf_r+0x24>

0800bb54 <__smakebuf_r>:
 800bb54:	898b      	ldrh	r3, [r1, #12]
 800bb56:	b573      	push	{r0, r1, r4, r5, r6, lr}
 800bb58:	079d      	lsls	r5, r3, #30
 800bb5a:	4606      	mov	r6, r0
 800bb5c:	460c      	mov	r4, r1
 800bb5e:	d507      	bpl.n	800bb70 <__smakebuf_r+0x1c>
 800bb60:	f104 0347 	add.w	r3, r4, #71	; 0x47
 800bb64:	6023      	str	r3, [r4, #0]
 800bb66:	6123      	str	r3, [r4, #16]
 800bb68:	2301      	movs	r3, #1
 800bb6a:	6163      	str	r3, [r4, #20]
 800bb6c:	b002      	add	sp, #8
 800bb6e:	bd70      	pop	{r4, r5, r6, pc}
 800bb70:	ab01      	add	r3, sp, #4
 800bb72:	466a      	mov	r2, sp
 800bb74:	f7ff ffc8 	bl	800bb08 <__swhatbuf_r>
 800bb78:	9900      	ldr	r1, [sp, #0]
 800bb7a:	4605      	mov	r5, r0
 800bb7c:	4630      	mov	r0, r6
 800bb7e:	f7fe feeb 	bl	800a958 <_malloc_r>
 800bb82:	b948      	cbnz	r0, 800bb98 <__smakebuf_r+0x44>
 800bb84:	f9b4 300c 	ldrsh.w	r3, [r4, #12]
 800bb88:	059a      	lsls	r2, r3, #22
 800bb8a:	d4ef      	bmi.n	800bb6c <__smakebuf_r+0x18>
 800bb8c:	f023 0303 	bic.w	r3, r3, #3
 800bb90:	f043 0302 	orr.w	r3, r3, #2
 800bb94:	81a3      	strh	r3, [r4, #12]
 800bb96:	e7e3      	b.n	800bb60 <__smakebuf_r+0xc>
 800bb98:	89a3      	ldrh	r3, [r4, #12]
 800bb9a:	6020      	str	r0, [r4, #0]
 800bb9c:	f043 0380 	orr.w	r3, r3, #128	; 0x80
 800bba0:	81a3      	strh	r3, [r4, #12]
 800bba2:	9b00      	ldr	r3, [sp, #0]
 800bba4:	6163      	str	r3, [r4, #20]
 800bba6:	9b01      	ldr	r3, [sp, #4]
 800bba8:	6120      	str	r0, [r4, #16]
 800bbaa:	b15b      	cbz	r3, 800bbc4 <__smakebuf_r+0x70>
 800bbac:	f9b4 100e 	ldrsh.w	r1, [r4, #14]
 800bbb0:	4630      	mov	r0, r6
 800bbb2:	f000 f8c1 	bl	800bd38 <_isatty_r>
 800bbb6:	b128      	cbz	r0, 800bbc4 <__smakebuf_r+0x70>
 800bbb8:	89a3      	ldrh	r3, [r4, #12]
 800bbba:	f023 0303 	bic.w	r3, r3, #3
 800bbbe:	f043 0301 	orr.w	r3, r3, #1
 800bbc2:	81a3      	strh	r3, [r4, #12]
 800bbc4:	89a3      	ldrh	r3, [r4, #12]
 800bbc6:	431d      	orrs	r5, r3
 800bbc8:	81a5      	strh	r5, [r4, #12]
 800bbca:	e7cf      	b.n	800bb6c <__smakebuf_r+0x18>

0800bbcc <__sccl>:
 800bbcc:	b570      	push	{r4, r5, r6, lr}
 800bbce:	780b      	ldrb	r3, [r1, #0]
 800bbd0:	4604      	mov	r4, r0
 800bbd2:	2b5e      	cmp	r3, #94	; 0x5e
 800bbd4:	bf0b      	itete	eq
 800bbd6:	784b      	ldrbeq	r3, [r1, #1]
 800bbd8:	1c4a      	addne	r2, r1, #1
 800bbda:	1c8a      	addeq	r2, r1, #2
 800bbdc:	2100      	movne	r1, #0
 800bbde:	bf08      	it	eq
 800bbe0:	2101      	moveq	r1, #1
 800bbe2:	3801      	subs	r0, #1
 800bbe4:	f104 05ff 	add.w	r5, r4, #255	; 0xff
 800bbe8:	f800 1f01 	strb.w	r1, [r0, #1]!
 800bbec:	42a8      	cmp	r0, r5
 800bbee:	d1fb      	bne.n	800bbe8 <__sccl+0x1c>
 800bbf0:	b90b      	cbnz	r3, 800bbf6 <__sccl+0x2a>
 800bbf2:	1e50      	subs	r0, r2, #1
 800bbf4:	bd70      	pop	{r4, r5, r6, pc}
 800bbf6:	f081 0101 	eor.w	r1, r1, #1
 800bbfa:	54e1      	strb	r1, [r4, r3]
 800bbfc:	4610      	mov	r0, r2
 800bbfe:	4602      	mov	r2, r0
 800bc00:	f812 5b01 	ldrb.w	r5, [r2], #1
 800bc04:	2d2d      	cmp	r5, #45	; 0x2d
 800bc06:	d005      	beq.n	800bc14 <__sccl+0x48>
 800bc08:	2d5d      	cmp	r5, #93	; 0x5d
 800bc0a:	d016      	beq.n	800bc3a <__sccl+0x6e>
 800bc0c:	2d00      	cmp	r5, #0
 800bc0e:	d0f1      	beq.n	800bbf4 <__sccl+0x28>
 800bc10:	462b      	mov	r3, r5
 800bc12:	e7f2      	b.n	800bbfa <__sccl+0x2e>
 800bc14:	7846      	ldrb	r6, [r0, #1]
 800bc16:	2e5d      	cmp	r6, #93	; 0x5d
 800bc18:	d0fa      	beq.n	800bc10 <__sccl+0x44>
 800bc1a:	42b3      	cmp	r3, r6
 800bc1c:	dcf8      	bgt.n	800bc10 <__sccl+0x44>
 800bc1e:	3002      	adds	r0, #2
 800bc20:	461a      	mov	r2, r3
 800bc22:	3201      	adds	r2, #1
 800bc24:	4296      	cmp	r6, r2
 800bc26:	54a1      	strb	r1, [r4, r2]
 800bc28:	dcfb      	bgt.n	800bc22 <__sccl+0x56>
 800bc2a:	1af2      	subs	r2, r6, r3
 800bc2c:	3a01      	subs	r2, #1
 800bc2e:	1c5d      	adds	r5, r3, #1
 800bc30:	42b3      	cmp	r3, r6
 800bc32:	bfa8      	it	ge
 800bc34:	2200      	movge	r2, #0
 800bc36:	18ab      	adds	r3, r5, r2
 800bc38:	e7e1      	b.n	800bbfe <__sccl+0x32>
 800bc3a:	4610      	mov	r0, r2
 800bc3c:	e7da      	b.n	800bbf4 <__sccl+0x28>

0800bc3e <__submore>:
 800bc3e:	e92d 41f0 	stmdb	sp!, {r4, r5, r6, r7, r8, lr}
 800bc42:	460c      	mov	r4, r1
 800bc44:	6b49      	ldr	r1, [r1, #52]	; 0x34
 800bc46:	f104 0344 	add.w	r3, r4, #68	; 0x44
 800bc4a:	4299      	cmp	r1, r3
 800bc4c:	d11d      	bne.n	800bc8a <__submore+0x4c>
 800bc4e:	f44f 6180 	mov.w	r1, #1024	; 0x400
 800bc52:	f7fe fe81 	bl	800a958 <_malloc_r>
 800bc56:	b918      	cbnz	r0, 800bc60 <__submore+0x22>
 800bc58:	f04f 30ff 	mov.w	r0, #4294967295
 800bc5c:	e8bd 81f0 	ldmia.w	sp!, {r4, r5, r6, r7, r8, pc}
 800bc60:	f44f 6380 	mov.w	r3, #1024	; 0x400
 800bc64:	63a3      	str	r3, [r4, #56]	; 0x38
 800bc66:	f894 3046 	ldrb.w	r3, [r4, #70]	; 0x46
 800bc6a:	6360      	str	r0, [r4, #52]	; 0x34
 800bc6c:	f880 33ff 	strb.w	r3, [r0, #1023]	; 0x3ff
 800bc70:	f894 3045 	ldrb.w	r3, [r4, #69]	; 0x45
 800bc74:	f880 33fe 	strb.w	r3, [r0, #1022]	; 0x3fe
 800bc78:	f894 3044 	ldrb.w	r3, [r4, #68]	; 0x44
 800bc7c:	f880 33fd 	strb.w	r3, [r0, #1021]	; 0x3fd
 800bc80:	f200 30fd 	addw	r0, r0, #1021	; 0x3fd
 800bc84:	6020      	str	r0, [r4, #0]
 800bc86:	2000      	movs	r0, #0
 800bc88:	e7e8      	b.n	800bc5c <__submore+0x1e>
 800bc8a:	6ba6      	ldr	r6, [r4, #56]	; 0x38
 800bc8c:	0077      	lsls	r7, r6, #1
 800bc8e:	463a      	mov	r2, r7
 800bc90:	f7ff fbea 	bl	800b468 <_realloc_r>
 800bc94:	4605      	mov	r5, r0
 800bc96:	2800      	cmp	r0, #0
 800bc98:	d0de      	beq.n	800bc58 <__submore+0x1a>
 800bc9a:	eb00 0806 	add.w	r8, r0, r6
 800bc9e:	4601      	mov	r1, r0
 800bca0:	4632      	mov	r2, r6
 800bca2:	4640      	mov	r0, r8
 800bca4:	f7fe fd57 	bl	800a756 <memcpy>
 800bca8:	e9c4 570d 	strd	r5, r7, [r4, #52]	; 0x34
 800bcac:	f8c4 8000 	str.w	r8, [r4]
 800bcb0:	e7e9      	b.n	800bc86 <__submore+0x48>

0800bcb2 <_raise_r>:
 800bcb2:	291f      	cmp	r1, #31
 800bcb4:	b538      	push	{r3, r4, r5, lr}
 800bcb6:	4604      	mov	r4, r0
 800bcb8:	460d      	mov	r5, r1
 800bcba:	d904      	bls.n	800bcc6 <_raise_r+0x14>
 800bcbc:	2316      	movs	r3, #22
 800bcbe:	6003      	str	r3, [r0, #0]
 800bcc0:	f04f 30ff 	mov.w	r0, #4294967295
 800bcc4:	bd38      	pop	{r3, r4, r5, pc}
 800bcc6:	6bc2      	ldr	r2, [r0, #60]	; 0x3c
 800bcc8:	b112      	cbz	r2, 800bcd0 <_raise_r+0x1e>
 800bcca:	f852 3021 	ldr.w	r3, [r2, r1, lsl #2]
 800bcce:	b94b      	cbnz	r3, 800bce4 <_raise_r+0x32>
 800bcd0:	4620      	mov	r0, r4
 800bcd2:	f000 f853 	bl	800bd7c <_getpid_r>
 800bcd6:	462a      	mov	r2, r5
 800bcd8:	4601      	mov	r1, r0
 800bcda:	4620      	mov	r0, r4
 800bcdc:	e8bd 4038 	ldmia.w	sp!, {r3, r4, r5, lr}
 800bce0:	f000 b83a 	b.w	800bd58 <_kill_r>
 800bce4:	2b01      	cmp	r3, #1
 800bce6:	d00a      	beq.n	800bcfe <_raise_r+0x4c>
 800bce8:	1c59      	adds	r1, r3, #1
 800bcea:	d103      	bne.n	800bcf4 <_raise_r+0x42>
 800bcec:	2316      	movs	r3, #22
 800bcee:	6003      	str	r3, [r0, #0]
 800bcf0:	2001      	movs	r0, #1
 800bcf2:	e7e7      	b.n	800bcc4 <_raise_r+0x12>
 800bcf4:	2400      	movs	r4, #0
 800bcf6:	f842 4025 	str.w	r4, [r2, r5, lsl #2]
 800bcfa:	4628      	mov	r0, r5
 800bcfc:	4798      	blx	r3
 800bcfe:	2000      	movs	r0, #0
 800bd00:	e7e0      	b.n	800bcc4 <_raise_r+0x12>
	...

0800bd04 <raise>:
 800bd04:	4b02      	ldr	r3, [pc, #8]	; (800bd10 <raise+0xc>)
 800bd06:	4601      	mov	r1, r0
 800bd08:	6818      	ldr	r0, [r3, #0]
 800bd0a:	f7ff bfd2 	b.w	800bcb2 <_raise_r>
 800bd0e:	bf00      	nop
 800bd10:	2000008c 	.word	0x2000008c

0800bd14 <_fstat_r>:
 800bd14:	b538      	push	{r3, r4, r5, lr}
 800bd16:	4d07      	ldr	r5, [pc, #28]	; (800bd34 <_fstat_r+0x20>)
 800bd18:	2300      	movs	r3, #0
 800bd1a:	4604      	mov	r4, r0
 800bd1c:	4608      	mov	r0, r1
 800bd1e:	4611      	mov	r1, r2
 800bd20:	602b      	str	r3, [r5, #0]
 800bd22:	f7f4 ff48 	bl	8000bb6 <_fstat>
 800bd26:	1c43      	adds	r3, r0, #1
 800bd28:	d102      	bne.n	800bd30 <_fstat_r+0x1c>
 800bd2a:	682b      	ldr	r3, [r5, #0]
 800bd2c:	b103      	cbz	r3, 800bd30 <_fstat_r+0x1c>
 800bd2e:	6023      	str	r3, [r4, #0]
 800bd30:	bd38      	pop	{r3, r4, r5, pc}
 800bd32:	bf00      	nop
 800bd34:	2000ace4 	.word	0x2000ace4

0800bd38 <_isatty_r>:
 800bd38:	b538      	push	{r3, r4, r5, lr}
 800bd3a:	4d06      	ldr	r5, [pc, #24]	; (800bd54 <_isatty_r+0x1c>)
 800bd3c:	2300      	movs	r3, #0
 800bd3e:	4604      	mov	r4, r0
 800bd40:	4608      	mov	r0, r1
 800bd42:	602b      	str	r3, [r5, #0]
 800bd44:	f7f4 ff3c 	bl	8000bc0 <_isatty>
 800bd48:	1c43      	adds	r3, r0, #1
 800bd4a:	d102      	bne.n	800bd52 <_isatty_r+0x1a>
 800bd4c:	682b      	ldr	r3, [r5, #0]
 800bd4e:	b103      	cbz	r3, 800bd52 <_isatty_r+0x1a>
 800bd50:	6023      	str	r3, [r4, #0]
 800bd52:	bd38      	pop	{r3, r4, r5, pc}
 800bd54:	2000ace4 	.word	0x2000ace4

0800bd58 <_kill_r>:
 800bd58:	b538      	push	{r3, r4, r5, lr}
 800bd5a:	4d07      	ldr	r5, [pc, #28]	; (800bd78 <_kill_r+0x20>)
 800bd5c:	2300      	movs	r3, #0
 800bd5e:	4604      	mov	r4, r0
 800bd60:	4608      	mov	r0, r1
 800bd62:	4611      	mov	r1, r2
 800bd64:	602b      	str	r3, [r5, #0]
 800bd66:	f7f4 fef9 	bl	8000b5c <_kill>
 800bd6a:	1c43      	adds	r3, r0, #1
 800bd6c:	d102      	bne.n	800bd74 <_kill_r+0x1c>
 800bd6e:	682b      	ldr	r3, [r5, #0]
 800bd70:	b103      	cbz	r3, 800bd74 <_kill_r+0x1c>
 800bd72:	6023      	str	r3, [r4, #0]
 800bd74:	bd38      	pop	{r3, r4, r5, pc}
 800bd76:	bf00      	nop
 800bd78:	2000ace4 	.word	0x2000ace4

0800bd7c <_getpid_r>:
 800bd7c:	f7f4 beec 	b.w	8000b58 <_getpid>

0800bd80 <_malloc_usable_size_r>:
 800bd80:	f851 3c04 	ldr.w	r3, [r1, #-4]
 800bd84:	1f18      	subs	r0, r3, #4
 800bd86:	2b00      	cmp	r3, #0
 800bd88:	bfbc      	itt	lt
 800bd8a:	580b      	ldrlt	r3, [r1, r0]
 800bd8c:	18c0      	addlt	r0, r0, r3
 800bd8e:	4770      	bx	lr

0800bd90 <_init>:
 800bd90:	b5f8      	push	{r3, r4, r5, r6, r7, lr}
 800bd92:	bf00      	nop
 800bd94:	bcf8      	pop	{r3, r4, r5, r6, r7}
 800bd96:	bc08      	pop	{r3}
 800bd98:	469e      	mov	lr, r3
 800bd9a:	4770      	bx	lr

0800bd9c <_fini>:
 800bd9c:	b5f8      	push	{r3, r4, r5, r6, r7, lr}
 800bd9e:	bf00      	nop
 800bda0:	bcf8      	pop	{r3, r4, r5, r6, r7}
 800bda2:	bc08      	pop	{r3}
 800bda4:	469e      	mov	lr, r3
 800bda6:	4770      	bx	lr
